 ray

 Timestamp is 564c1116 (Wed Nov 18 02:48:06 2015)

 Preferred load address is 00400000

 Start         Length     Name                   Class
 0001:00000000 0010a3e6H .text                   CODE
 0001:0010a3f0 00007e04H .text$x                 CODE
 0001:00112200 000000d4H .text$yc                CODE
 0001:001122e0 00000671H .text$yd                CODE
 0002:00000000 00000774H .idata$5                DATA
 0002:00000774 00000004H .CRT$XCA                DATA
 0002:00000778 00000004H .CRT$XCAA               DATA
 0002:0000077c 00000004H .CRT$XCL                DATA
 0002:00000780 00000018H .CRT$XCU                DATA
 0002:00000798 00000004H .CRT$XCZ                DATA
 0002:0000079c 00000004H .CRT$XIA                DATA
 0002:000007a0 00000004H .CRT$XIAA               DATA
 0002:000007a4 00000004H .CRT$XIC                DATA
 0002:000007a8 00000004H .CRT$XIY                DATA
 0002:000007ac 00000004H .CRT$XIZ                DATA
 0002:000007b0 0002f710H .rdata                  DATA
 0002:0002fec0 0000006cH .rdata$debug            DATA
 0002:0002ff2c 0000178cH .rdata$r                DATA
 0002:000316c0 00000724H .rdata$sxdata           DATA
 0002:00031de4 00000004H .rtc$IAA                DATA
 0002:00031de8 00000074H .rtc$IMZ                DATA
 0002:00031e5c 00000004H .rtc$IZZ                DATA
 0002:00031e60 00000004H .rtc$TAA                DATA
 0002:00031e64 00000074H .rtc$TMZ                DATA
 0002:00031ed8 00000004H .rtc$TZZ                DATA
 0002:00031ee0 00006abcH .xdata$x                DATA
 0002:0003899c 000000f0H .idata$2                DATA
 0002:00038a8c 00000014H .idata$3                DATA
 0002:00038aa0 00000774H .idata$4                DATA
 0002:00039214 00002a46H .idata$6                DATA
 0002:0003bc5a 00000000H .edata                  DATA
 0003:00000000 00007484H .data                   DATA
 0003:00007488 00003758H .bss                    DATA

  Address         Publics by Value              Rva+Base       Lib:Object

 0000:00000000       __except_list              00000000     <absolute>
 0000:000001c9       ___safe_se_handler_count   000001c9     <absolute>
 0000:00009876       __fltused                  00009876     <absolute>
 0000:00009876       __ldused                   00009876     <absolute>
 0000:00000000       ___ImageBase               00400000     <linker-defined>
 0001:00000000       ?GetOption@@YAHHPAPADPAD0@Z 00401000 f   getopt.obj
 0001:000001c0       ?strchr@@YAPADPADH@Z       004011c0 f i getopt.obj
 0001:00000210       ?getopt@@YAHHPAPADPAD@Z    00401210 f   getopt.obj
 0001:00000290       _main                      00401290 f   main.obj
 0001:00000450       ?trace@RayTracer@@QAE?AV?$Vec3@N@@NN@Z 00401450 f   RayTracer.obj
 0001:00000600       ??0ray@@QAE@ABV?$Vec3@N@@0W4RayType@0@@Z 00401600 f i RayTracer.obj
 0001:00000660       ??1ray@@QAE@XZ             00401660 f i RayTracer.obj
 0001:00000690       ?getCamera@Scene@@QAEAAVCamera@@XZ 00401690 f i RayTracer.obj
 0001:000006d0       ?isMultithreading@TraceUI@@QBE_NXZ 004016d0 f i RayTracer.obj
 0001:00000700       ?traceRay@RayTracer@@QAE?AV?$Vec3@N@@ABVray@@ABV2@H@Z 00401700 f   RayTracer.obj
 0001:00000850       ??0isect@@QAE@XZ           00401850 f i RayTracer.obj
 0001:000008c0       ??1isect@@QAE@XZ           004018c0 f i RayTracer.obj
 0001:00000920       ??0RayTracer@@QAE@XZ       00401920 f   RayTracer.obj
 0001:00000980       ??1RayTracer@@QAE@XZ       00401980 f   RayTracer.obj
 0001:00000a30       ?getBuffer@RayTracer@@QAEXAAPAEAAH1@Z 00401a30 f   RayTracer.obj
 0001:00000a80       ?aspectRatio@RayTracer@@QAENXZ 00401a80 f   RayTracer.obj
 0001:00000af0       ?sceneLoaded@RayTracer@@QAE_NXZ 00401af0 f i RayTracer.obj
 0001:00000b30       ?getAspectRatio@Camera@@QAENXZ 00401b30 f i RayTracer.obj
 0001:00000b60       ?loadScene@RayTracer@@QAE_NPBD@Z 00401b60 f   RayTracer.obj
 0001:00001220       ?message@TextureMapException@@QAE?AV?$basic_string@DU?$char_traits@D@std@@V?$allocator@D@2@@std@@XZ 00402220 f i RayTracer.obj
 0001:00001290       ?message@ParserException@@QBEABV?$basic_string@DU?$char_traits@D@std@@V?$allocator@D@2@@std@@XZ 00402290 f i RayTracer.obj
 0001:000012c0       ?formattedMessage@SyntaxErrorException@@QBE?AV?$basic_string@DU?$char_traits@D@std@@V?$allocator@D@2@@std@@XZ 004022c0 f i RayTracer.obj
 0001:00001330       ??0Parser@@QAE@AAVTokenizer@@V?$basic_string@DU?$char_traits@D@std@@V?$allocator@D@2@@std@@@Z 00402330 f i RayTracer.obj
 0001:00001410       ??1?$map@V?$basic_string@DU?$char_traits@D@std@@V?$allocator@D@2@@std@@VMaterial@@U?$less@V?$basic_string@DU?$char_traits@D@std@@V?$allocator@D@2@@std@@@2@V?$allocator@U?$pair@$$CBV?$basic_string@DU?$char_traits@D@std@@V?$allocator@D@2@@std@@VMaterial@@@std@@@2@@std@@QAE@XZ 00402410 f i RayTracer.obj
 0001:00001450       ??_D?$basic_ifstream@DU?$char_traits@D@std@@@std@@QAEXXZ 00402450 f i RayTracer.obj
 0001:000014b0       ??1Tokenizer@@QAE@XZ       004024b0 f i RayTracer.obj
 0001:000014f0       ??1Parser@@QAE@XZ          004024f0 f i RayTracer.obj
 0001:00001580       ??1TextureMapException@@QAE@XZ 00402580 f i RayTracer.obj
 0001:000015c0       ??1Buffer@@QAE@XZ          004025c0 f i RayTracer.obj
 0001:00001650       ??1?$_String_const_iterator@DU?$char_traits@D@std@@V?$allocator@D@2@@std@@QAE@XZ 00402650 f i RayTracer.obj
 0001:00001690       ??1?$_Iterator012@Urandom_access_iterator_tag@std@@DHPBDABDU_Iterator_base12@2@@std@@QAE@XZ 00402690 f i RayTracer.obj
 0001:000016d0       ??1_Iterator_base12@std@@QAE@XZ 004026d0 f i RayTracer.obj
 0001:000017a0       ?_Orphan_me@_Iterator_base12@std@@QAEXXZ 004027a0 f i RayTracer.obj
 0001:00001850       ?traceSetup@RayTracer@@QAEXHH@Z 00402850 f   RayTracer.obj
 0001:00001930       ?tracePixel@RayTracer@@QAEXHH@Z 00402930 f   RayTracer.obj
 0001:00001a80       ??0?$basic_string@DU?$char_traits@D@std@@V?$allocator@D@2@@std@@QAE@ABV01@@Z 00402a80 f i RayTracer.obj
 0001:00001b40       ??0?$basic_string@DU?$char_traits@D@std@@V?$allocator@D@2@@std@@QAE@PBD@Z 00402b40 f i RayTracer.obj
 0001:00001bf0       ??4?$basic_string@DU?$char_traits@D@std@@V?$allocator@D@2@@std@@QAEAAV01@$$QAV01@@Z 00402bf0 f i RayTracer.obj
 0001:00001c40       ??1?$basic_string@DU?$char_traits@D@std@@V?$allocator@D@2@@std@@QAE@XZ 00402c40 f i RayTracer.obj
 0001:00001cd0       ??4?$basic_string@DU?$char_traits@D@std@@V?$allocator@D@2@@std@@QAEAAV01@PBD@Z 00402cd0 f i RayTracer.obj
 0001:00001d20       ?append@?$basic_string@DU?$char_traits@D@std@@V?$allocator@D@2@@std@@QAEAAV12@ABV12@@Z 00402d20 f i RayTracer.obj
 0001:00001d70       ?append@?$basic_string@DU?$char_traits@D@std@@V?$allocator@D@2@@std@@QAEAAV12@PBD@Z 00402d70 f i RayTracer.obj
 0001:00001de0       ?length@?$char_traits@D@std@@SAIPBD@Z 00402de0 f i RayTracer.obj
 0001:00001e20       ?find_last_of@?$basic_string@DU?$char_traits@D@std@@V?$allocator@D@2@@std@@QBEIPBDI@Z 00402e20 f i RayTracer.obj
 0001:00001e90       ?substr@?$basic_string@DU?$char_traits@D@std@@V?$allocator@D@2@@std@@QBE?AV12@II@Z 00402e90 f i RayTracer.obj
 0001:00001f10       ??0?$Vec3@N@@QAE@XZ        00402f10 f i RayTracer.obj
 0001:00001f60       ??0?$Vec3@N@@QAE@NNN@Z     00402f60 f i RayTracer.obj
 0001:00001fb0       ??0?$Vec3@N@@QAE@ABV0@@Z   00402fb0 f i RayTracer.obj
 0001:00002010       ??4?$Vec3@N@@QAEAAV0@ABV0@@Z 00403010 f i RayTracer.obj
 0001:00002070       ??A?$Vec3@N@@QAEAANH@Z     00403070 f i RayTracer.obj
 0001:000020b0       ?clamp@?$Vec3@N@@QAEXXZ    004030b0 f i RayTracer.obj
 0001:00002130       ??0?$Vec2@N@@QAE@XZ        00403130 f i RayTracer.obj
 0001:00002170       ?clear@?$vector@U?$pair@Vray@@Visect@@@std@@V?$allocator@U?$pair@Vray@@Visect@@@std@@@2@@std@@QAEXXZ 00403170 f i RayTracer.obj
 0001:000022b0       ??0?$map@V?$basic_string@DU?$char_traits@D@std@@V?$allocator@D@2@@std@@VMaterial@@U?$less@V?$basic_string@DU?$char_traits@D@std@@V?$allocator@D@2@@std@@@2@V?$allocator@U?$pair@$$CBV?$basic_string@DU?$char_traits@D@std@@V?$allocator@D@2@@std@@VMaterial@@@std@@@2@@std@@QAE@XZ 004032b0 f i RayTracer.obj
 0001:00002310       ??1?$_Tree@V?$_Tmap_traits@V?$basic_string@DU?$char_traits@D@std@@V?$allocator@D@2@@std@@VMaterial@@U?$less@V?$basic_string@DU?$char_traits@D@std@@V?$allocator@D@2@@std@@@2@V?$allocator@U?$pair@$$CBV?$basic_string@DU?$char_traits@D@std@@V?$allocator@D@2@@std@@VMaterial@@@std@@@2@$0A@@std@@@std@@QAE@XZ 00403310 f i RayTracer.obj
 0001:00002390       ??0?$basic_ifstream@DU?$char_traits@D@std@@@std@@QAE@PBDHH@Z 00403390 f i RayTracer.obj
 0001:000024d0       ??1?$basic_ifstream@DU?$char_traits@D@std@@@std@@UAE@XZ 004034d0 f i RayTracer.obj
 0001:00002580       ??1?$basic_filebuf@DU?$char_traits@D@std@@@std@@UAE@XZ 00403580 f i RayTracer.obj
 0001:00002630       ?_Lock@?$basic_filebuf@DU?$char_traits@D@std@@@std@@UAEXXZ 00403630 f i RayTracer.obj
 0001:00002690       ?_Unlock@?$basic_filebuf@DU?$char_traits@D@std@@@std@@UAEXXZ 00403690 f i RayTracer.obj
 0001:000026f0       ?overflow@?$basic_filebuf@DU?$char_traits@D@std@@@std@@MAEHH@Z 004036f0 f i RayTracer.obj
 0001:00002c30       ?to_char_type@?$char_traits@D@std@@SADABH@Z 00403c30 f i RayTracer.obj
 0001:00002c60       ?eq_int_type@?$char_traits@D@std@@SA_NABH0@Z 00403c60 f i RayTracer.obj
 0001:00002ca0       ?not_eof@?$char_traits@D@std@@SAHABH@Z 00403ca0 f i RayTracer.obj
 0001:00002d10       ?eof@?$char_traits@D@std@@SAHXZ 00403d10 f i RayTracer.obj
 0001:00002d40       ??$_Fputc@D@std@@YA_NDPAU_iobuf@@@Z 00403d40 f i RayTracer.obj
 0001:00002da0       ?size@?$basic_string@DU?$char_traits@D@std@@V?$allocator@D@2@@std@@QBEIXZ 00403da0 f i RayTracer.obj
 0001:00002dd0       ?pbackfail@?$basic_filebuf@DU?$char_traits@D@std@@@std@@MAEHH@Z 00403dd0 f i RayTracer.obj
 0001:00002fa0       ?to_int_type@?$char_traits@D@std@@SAHABD@Z 00403fa0 f i RayTracer.obj
 0001:00002fd0       ??$_Ungetc@D@std@@YA_NABDPAU_iobuf@@@Z 00403fd0 f i RayTracer.obj
 0001:00003030       ?underflow@?$basic_filebuf@DU?$char_traits@D@std@@@std@@MAEHXZ 00404030 f i RayTracer.obj
 0001:00003160       ?uflow@?$basic_filebuf@DU?$char_traits@D@std@@@std@@MAEHXZ 00404160 f i RayTracer.obj
 0001:00003650       ??$_Fgetc@D@std@@YA_NAADPAU_iobuf@@@Z 00404650 f i RayTracer.obj
 0001:000036c0       ??0?$basic_string@DU?$char_traits@D@std@@V?$allocator@D@2@@std@@QAE@XZ 004046c0 f i RayTracer.obj
 0001:00003760       ?seekoff@?$basic_filebuf@DU?$char_traits@D@std@@@std@@MAE?AV?$fpos@H@2@_JHH@Z 00404760 f i RayTracer.obj
 0001:000038c0       ?seekpos@?$basic_filebuf@DU?$char_traits@D@std@@@std@@MAE?AV?$fpos@H@2@V32@H@Z 004048c0 f i RayTracer.obj
 0001:00003a30       ?setbuf@?$basic_filebuf@DU?$char_traits@D@std@@@std@@MAEPAV?$basic_streambuf@DU?$char_traits@D@std@@@2@PAD_J@Z 00404a30 f i RayTracer.obj
 0001:00003ae0       ?sync@?$basic_filebuf@DU?$char_traits@D@std@@@std@@MAEHXZ 00404ae0 f i RayTracer.obj
 0001:00003bb0       ?imbue@?$basic_filebuf@DU?$char_traits@D@std@@@std@@MAEXABVlocale@2@@Z 00404bb0 f i RayTracer.obj
 0001:00003c00       ??1?$_String_iterator@DU?$char_traits@D@std@@V?$allocator@D@2@@std@@QAE@XZ 00404c00 f i RayTracer.obj
 0001:00003c40       ??1?$_Vector_iterator@V?$_Vector_val@U?$pair@Vray@@Visect@@@std@@V?$allocator@U?$pair@Vray@@Visect@@@std@@@2@@std@@@std@@QAE@XZ 00404c40 f i RayTracer.obj
 0001:00003c80       ??0?$_Vector_const_iterator@V?$_Vector_val@U?$pair@Vray@@Visect@@@std@@V?$allocator@U?$pair@Vray@@Visect@@@std@@@2@@std@@@std@@QAE@ABV01@@Z 00404c80 f i RayTracer.obj
 0001:00003ce0       ??1?$_Vector_const_iterator@V?$_Vector_val@U?$pair@Vray@@Visect@@@std@@V?$allocator@U?$pair@Vray@@Visect@@@std@@@2@@std@@@std@@QAE@XZ 00404ce0 f i RayTracer.obj
 0001:00003d20       ??_E?$basic_ifstream@DU?$char_traits@D@std@@@std@@UAEPAXI@Z 00404d20 f i RayTracer.obj
 0001:00003d20       ??_G?$basic_ifstream@DU?$char_traits@D@std@@@std@@UAEPAXI@Z 00404d20 f i RayTracer.obj
 0001:00003d90       ??_E?$basic_filebuf@DU?$char_traits@D@std@@@std@@UAEPAXI@Z 00404d90 f i RayTracer.obj
 0001:00003d90       ??_G?$basic_filebuf@DU?$char_traits@D@std@@@std@@UAEPAXI@Z 00404d90 f i RayTracer.obj
 0001:00003df0       ??0?$_Iterator012@Urandom_access_iterator_tag@std@@U?$pair@Vray@@Visect@@@2@HPBU32@ABU32@U_Iterator_base12@2@@std@@QAE@ABU01@@Z 00404df0 f i RayTracer.obj
 0001:00003e40       ??0_Iterator_base12@std@@QAE@ABU01@@Z 00404e40 f i RayTracer.obj
 0001:00003ea0       ??4_Iterator_base12@std@@QAEAAU01@ABU01@@Z 00404ea0 f i RayTracer.obj
 0001:00003f00       ?_Adopt@_Iterator_base12@std@@QAEXPBU_Container_base12@2@@Z 00404f00 f i RayTracer.obj
 0001:00004010       ??1?$_Iterator012@Urandom_access_iterator_tag@std@@U?$pair@Vray@@Visect@@@2@HPBU32@ABU32@U_Iterator_base12@2@@std@@QAE@XZ 00405010 f i RayTracer.obj
 0001:00004050       ??0?$basic_string@DU?$char_traits@D@std@@V?$allocator@D@2@@std@@QAE@ABV01@IIABV?$allocator@D@1@@Z 00405050 f i RayTracer.obj
 0001:00004100       ??0?$basic_string@DU?$char_traits@D@std@@V?$allocator@D@2@@std@@QAE@ID@Z 00405100 f i RayTracer.obj
 0001:000041b0       ?assign@?$basic_string@DU?$char_traits@D@std@@V?$allocator@D@2@@std@@QAEAAV12@$$QAV12@@Z 004051b0 f i RayTracer.obj
 0001:000042c0       ?move@?$char_traits@D@std@@SAPADPADPBDI@Z 004052c0 f i RayTracer.obj
 0001:00004310       ?append@?$basic_string@DU?$char_traits@D@std@@V?$allocator@D@2@@std@@QAEAAV12@ABV12@II@Z 00405310 f i RayTracer.obj
 0001:000043f0       ?copy@?$char_traits@D@std@@SAPADPADPBDI@Z 004053f0 f i RayTracer.obj
 0001:00004440       ?append@?$basic_string@DU?$char_traits@D@std@@V?$allocator@D@2@@std@@QAEAAV12@PBDI@Z 00405440 f i RayTracer.obj
 0001:00004540       ?append@?$basic_string@DU?$char_traits@D@std@@V?$allocator@D@2@@std@@QAEAAV12@ID@Z 00405540 f i RayTracer.obj
 0001:000045e0       ?assign@?$basic_string@DU?$char_traits@D@std@@V?$allocator@D@2@@std@@QAEAAV12@ABV12@II@Z 004055e0 f i RayTracer.obj
 0001:000046c0       ?assign@?$basic_string@DU?$char_traits@D@std@@V?$allocator@D@2@@std@@QAEAAV12@PBD@Z 004056c0 f i RayTracer.obj
 0001:00004730       ?erase@?$basic_string@DU?$char_traits@D@std@@V?$allocator@D@2@@std@@QAEAAV12@II@Z 00405730 f i RayTracer.obj
 0001:000047f0       ?begin@?$basic_string@DU?$char_traits@D@std@@V?$allocator@D@2@@std@@QAE?AV?$_String_iterator@DU?$char_traits@D@std@@V?$allocator@D@2@@2@XZ 004057f0 f i RayTracer.obj
 0001:00004860       ?find_last_of@?$basic_string@DU?$char_traits@D@std@@V?$allocator@D@2@@std@@QBEIPBDII@Z 00405860 f i RayTracer.obj
 0001:00004950       ?find@?$char_traits@D@std@@SAPBDPBDIABD@Z 00405950 f i RayTracer.obj
 0001:000049b0       ?get_allocator@?$basic_string@DU?$char_traits@D@std@@V?$allocator@D@2@@std@@QBE?AV?$allocator@D@2@XZ 004059b0 f i RayTracer.obj
 0001:00004a00       ?_Tidy@?$basic_string@DU?$char_traits@D@std@@V?$allocator@D@2@@std@@QAEX_NI@Z 00405a00 f i RayTracer.obj
 0001:00004ab0       ?_Myptr@?$basic_string@DU?$char_traits@D@std@@V?$allocator@D@2@@std@@QBEPBDXZ 00405ab0 f i RayTracer.obj
 0001:00004b10       ??0?$_String_val@DV?$allocator@D@std@@@std@@QAE@V?$allocator@D@1@@Z 00405b10 f i RayTracer.obj
 0001:00004c20       ??0_Container_proxy@std@@QAE@XZ 00405c20 f i RayTracer.obj
 0001:00004c60       ??1?$_String_val@DV?$allocator@D@std@@@std@@QAE@XZ 00405c60 f i RayTracer.obj
 0001:00004d60       ??0?$allocator@D@std@@QAE@XZ 00405d60 f i RayTracer.obj
 0001:00004d90       ??0?$allocator@D@std@@QAE@ABV01@@Z 00405d90 f i RayTracer.obj
 0001:00004dc0       ?begin@?$vector@U?$pair@Vray@@Visect@@@std@@V?$allocator@U?$pair@Vray@@Visect@@@std@@@2@@std@@QAE?AV?$_Vector_iterator@V?$_Vector_val@U?$pair@Vray@@Visect@@@std@@V?$allocator@U?$pair@Vray@@Visect@@@std@@@2@@std@@@2@XZ 00405dc0 f i RayTracer.obj
 0001:00004e30       ?end@?$vector@U?$pair@Vray@@Visect@@@std@@V?$allocator@U?$pair@Vray@@Visect@@@std@@@2@@std@@QAE?AV?$_Vector_iterator@V?$_Vector_val@U?$pair@Vray@@Visect@@@std@@V?$allocator@U?$pair@Vray@@Visect@@@std@@@2@@std@@@2@XZ 00405e30 f i RayTracer.obj
 0001:00004ea0       ?erase@?$vector@U?$pair@Vray@@Visect@@@std@@V?$allocator@U?$pair@Vray@@Visect@@@std@@@2@@std@@QAE?AV?$_Vector_iterator@V?$_Vector_val@U?$pair@Vray@@Visect@@@std@@V?$allocator@U?$pair@Vray@@Visect@@@std@@@2@@std@@@2@V?$_Vector_const_iterator@V?$_Vector_val@U?$pair@Vray@@Visect@@@std@@V?$allocator@U?$pair@Vray@@Visect@@@std@@@2@@std@@@2@0@Z 00405ea0 f i RayTracer.obj
 0001:000050c0       ?_Getcont@_Iterator_base12@std@@QBEPBU_Container_base12@2@XZ 004060c0 f i RayTracer.obj
 0001:00005120       ??0?$_Tree@V?$_Tmap_traits@V?$basic_string@DU?$char_traits@D@std@@V?$allocator@D@2@@std@@VMaterial@@U?$less@V?$basic_string@DU?$char_traits@D@std@@V?$allocator@D@2@@std@@@2@V?$allocator@U?$pair@$$CBV?$basic_string@DU?$char_traits@D@std@@V?$allocator@D@2@@std@@VMaterial@@@std@@@2@$0A@@std@@@std@@QAE@ABU?$less@V?$basic_string@DU?$char_traits@D@std@@V?$allocator@D@2@@std@@@1@ABV?$allocator@U?$pair@$$CBV?$basic_string@DU?$char_traits@D@std@@V?$allocator@D@2@@std@@VMaterial@@@std@@@1@@Z 00406120 f i RayTracer.obj
 0001:00005180       ?_Tidy@?$_Tree@V?$_Tmap_traits@V?$basic_string@DU?$char_traits@D@std@@V?$allocator@D@2@@std@@VMaterial@@U?$less@V?$basic_string@DU?$char_traits@D@std@@V?$allocator@D@2@@std@@@2@V?$allocator@U?$pair@$$CBV?$basic_string@DU?$char_traits@D@std@@V?$allocator@D@2@@std@@VMaterial@@@std@@@2@$0A@@std@@@std@@IAEXXZ 00406180 f i RayTracer.obj
 0001:000052c0       ??1?$_Tree_val@V?$_Tmap_traits@V?$basic_string@DU?$char_traits@D@std@@V?$allocator@D@2@@std@@VMaterial@@U?$less@V?$basic_string@DU?$char_traits@D@std@@V?$allocator@D@2@@std@@@2@V?$allocator@U?$pair@$$CBV?$basic_string@DU?$char_traits@D@std@@V?$allocator@D@2@@std@@VMaterial@@@std@@@2@$0A@@std@@@std@@QAE@XZ 004062c0 f i RayTracer.obj
 0001:00005350       ??0?$allocator@U?$pair@$$CBV?$basic_string@DU?$char_traits@D@std@@V?$allocator@D@2@@std@@VMaterial@@@std@@@std@@QAE@XZ 00406350 f i RayTracer.obj
 0001:00005380       ??0?$basic_filebuf@DU?$char_traits@D@std@@@std@@QAE@PAU_iobuf@@@Z 00406380 f i RayTracer.obj
 0001:00005420       ?open@?$basic_filebuf@DU?$char_traits@D@std@@@std@@QAEPAV12@PBDHH@Z 00406420 f i RayTracer.obj
 0001:00005530       ??1locale@std@@QAE@XZ      00406530 f i RayTracer.obj
 0001:00005590       ?close@?$basic_filebuf@DU?$char_traits@D@std@@@std@@QAEPAV12@XZ 00406590 f i RayTracer.obj
 0001:00005630       ?_Init@?$basic_filebuf@DU?$char_traits@D@std@@@std@@IAEXPAU_iobuf@@W4_Initfl@12@@Z 00406630 f i RayTracer.obj
 0001:00005710       ?_Endwrite@?$basic_filebuf@DU?$char_traits@D@std@@@std@@IAE_NXZ 00406710 f i RayTracer.obj
 0001:00005af0       ?_Initcvt@?$basic_filebuf@DU?$char_traits@D@std@@@std@@IAEXPBV?$codecvt@DDH@2@@Z 00406af0 f i RayTracer.obj
 0001:00005b70       ?_Reset_back@?$basic_filebuf@DU?$char_traits@D@std@@@std@@AAEXXZ 00406b70 f i RayTracer.obj
 0001:00005bf0       ?_Set_back@?$basic_filebuf@DU?$char_traits@D@std@@@std@@AAEXXZ 00406bf0 f i RayTracer.obj
 0001:00005ca0       ??D?$_String_iterator@DU?$char_traits@D@std@@V?$allocator@D@2@@std@@QBEAADXZ 00406ca0 f i RayTracer.obj
 0001:00005ce0       ??0?$fpos@H@std@@QAE@_J@Z  00406ce0 f i RayTracer.obj
 0001:00005d40       ??0?$fpos@H@std@@QAE@H_J@Z 00406d40 f i RayTracer.obj
 0001:00005da0       ?state@?$fpos@H@std@@QBEHXZ 00406da0 f i RayTracer.obj
 0001:00005dd0       ?seekpos@?$fpos@H@std@@QBE_JXZ 00406dd0 f i RayTracer.obj
 0001:00005e10       ??B?$fpos@H@std@@QBE_JXZ   00406e10 f i RayTracer.obj
 0001:00005e50       ??0?$_Vector_iterator@V?$_Vector_val@U?$pair@Vray@@Visect@@@std@@V?$allocator@U?$pair@Vray@@Visect@@@std@@@2@@std@@@std@@QAE@ABV01@@Z 00406e50 f i RayTracer.obj
 0001:00005ea0       ??1?$_Tree_iterator@V?$_Tree_val@V?$_Tmap_traits@V?$basic_string@DU?$char_traits@D@std@@V?$allocator@D@2@@std@@VMaterial@@U?$less@V?$basic_string@DU?$char_traits@D@std@@V?$allocator@D@2@@std@@@2@V?$allocator@U?$pair@$$CBV?$basic_string@DU?$char_traits@D@std@@V?$allocator@D@2@@std@@VMaterial@@@std@@@2@$0A@@std@@@std@@@std@@QAE@XZ 00406ea0 f i RayTracer.obj
 0001:00005ee0       ??0?$_Tree_const_iterator@V?$_Tree_val@V?$_Tmap_traits@V?$basic_string@DU?$char_traits@D@std@@V?$allocator@D@2@@std@@VMaterial@@U?$less@V?$basic_string@DU?$char_traits@D@std@@V?$allocator@D@2@@std@@@2@V?$allocator@U?$pair@$$CBV?$basic_string@DU?$char_traits@D@std@@V?$allocator@D@2@@std@@VMaterial@@@std@@@2@$0A@@std@@@std@@@std@@QAE@ABV01@@Z 00406ee0 f i RayTracer.obj
 0001:00005f30       ??1?$_Tree_const_iterator@V?$_Tree_val@V?$_Tmap_traits@V?$basic_string@DU?$char_traits@D@std@@V?$allocator@D@2@@std@@VMaterial@@U?$less@V?$basic_string@DU?$char_traits@D@std@@V?$allocator@D@2@@std@@@2@V?$allocator@U?$pair@$$CBV?$basic_string@DU?$char_traits@D@std@@V?$allocator@D@2@@std@@VMaterial@@@std@@@2@$0A@@std@@@std@@@std@@QAE@XZ 00406f30 f i RayTracer.obj
 0001:00005f70       ??0?$_Tree_unchecked_const_iterator@V?$_Tree_val@V?$_Tmap_traits@V?$basic_string@DU?$char_traits@D@std@@V?$allocator@D@2@@std@@VMaterial@@U?$less@V?$basic_string@DU?$char_traits@D@std@@V?$allocator@D@2@@std@@@2@V?$allocator@U?$pair@$$CBV?$basic_string@DU?$char_traits@D@std@@V?$allocator@D@2@@std@@VMaterial@@@std@@@2@$0A@@std@@@std@@U_Iterator_base12@2@@std@@QAE@ABV01@@Z 00406f70 f i RayTracer.obj
 0001:00005fd0       ??1?$_Tree_unchecked_const_iterator@V?$_Tree_val@V?$_Tmap_traits@V?$basic_string@DU?$char_traits@D@std@@V?$allocator@D@2@@std@@VMaterial@@U?$less@V?$basic_string@DU?$char_traits@D@std@@V?$allocator@D@2@@std@@@2@V?$allocator@U?$pair@$$CBV?$basic_string@DU?$char_traits@D@std@@V?$allocator@D@2@@std@@VMaterial@@@std@@@2@$0A@@std@@@std@@U_Iterator_base12@2@@std@@QAE@XZ 00406fd0 f i RayTracer.obj
 0001:00006010       ??0?$_Iterator012@Ubidirectional_iterator_tag@std@@U?$pair@$$CBV?$basic_string@DU?$char_traits@D@std@@V?$allocator@D@2@@std@@VMaterial@@@2@HPBU32@ABU32@U_Iterator_base12@2@@std@@QAE@ABU01@@Z 00407010 f i RayTracer.obj
 0001:00006060       ??1?$_Iterator012@Ubidirectional_iterator_tag@std@@U?$pair@$$CBV?$basic_string@DU?$char_traits@D@std@@V?$allocator@D@2@@std@@VMaterial@@@2@HPBU32@ABU32@U_Iterator_base12@2@@std@@QAE@XZ 00407060 f i RayTracer.obj
 0001:000060a0       ??4?$basic_string@DU?$char_traits@D@std@@V?$allocator@D@2@@std@@QAEAAV01@ABV01@@Z 004070a0 f i RayTracer.obj
 0001:000060f0       ?assign@?$basic_string@DU?$char_traits@D@std@@V?$allocator@D@2@@std@@QAEAAV12@PBDI@Z 004070f0 f i RayTracer.obj
 0001:000061c0       ?assign@?$basic_string@DU?$char_traits@D@std@@V?$allocator@D@2@@std@@QAEAAV12@ID@Z 004071c0 f i RayTracer.obj
 0001:00006250       ?_Chassign@?$basic_string@DU?$char_traits@D@std@@V?$allocator@D@2@@std@@QAEXIID@Z 00407250 f i RayTracer.obj
 0001:000062d0       ?assign@?$char_traits@D@std@@SAPADPADID@Z 004072d0 f i RayTracer.obj
 0001:00006320       ?assign@?$char_traits@D@std@@SAXAADABD@Z 00407320 f i RayTracer.obj
 0001:00006350       ?_Eos@?$basic_string@DU?$char_traits@D@std@@V?$allocator@D@2@@std@@QAEXI@Z 00407350 f i RayTracer.obj
 0001:000063c0       ?_Grow@?$basic_string@DU?$char_traits@D@std@@V?$allocator@D@2@@std@@QAE_NI_N@Z 004073c0 f i RayTracer.obj
 0001:00006490       ?_Inside@?$basic_string@DU?$char_traits@D@std@@V?$allocator@D@2@@std@@QAE_NPBD@Z 00407490 f i RayTracer.obj
 0001:00006500       ?_Myptr@?$basic_string@DU?$char_traits@D@std@@V?$allocator@D@2@@std@@QAEPADXZ 00407500 f i RayTracer.obj
 0001:00006560       ?_Xlen@?$basic_string@DU?$char_traits@D@std@@V?$allocator@D@2@@std@@QBEXXZ 00407560 f i RayTracer.obj
 0001:000065b0       ?_Xran@?$basic_string@DU?$char_traits@D@std@@V?$allocator@D@2@@std@@QBEXXZ 004075b0 f i RayTracer.obj
 0001:00006600       ?deallocate@?$allocator@D@std@@QAEXPADI@Z 00407600 f i RayTracer.obj
 0001:00006650       ?_Make_iter@?$vector@U?$pair@Vray@@Visect@@@std@@V?$allocator@U?$pair@Vray@@Visect@@@std@@@2@@std@@QBE?AV?$_Vector_iterator@V?$_Vector_val@U?$pair@Vray@@Visect@@@std@@V?$allocator@U?$pair@Vray@@Visect@@@std@@@2@@std@@@2@V?$_Vector_const_iterator@V?$_Vector_val@U?$pair@Vray@@Visect@@@std@@V?$allocator@U?$pair@Vray@@Visect@@@std@@@2@@std@@@2@@Z 00407650 f i RayTracer.obj
 0001:00006700       ?_Destroy@?$vector@U?$pair@Vray@@Visect@@@std@@V?$allocator@U?$pair@Vray@@Visect@@@std@@@2@@std@@IAEXPAU?$pair@Vray@@Visect@@@2@0@Z 00407700 f i RayTracer.obj
 0001:00006750       ?_Orphan_range@?$vector@U?$pair@Vray@@Visect@@@std@@V?$allocator@U?$pair@Vray@@Visect@@@std@@@2@@std@@IBEXPAU?$pair@Vray@@Visect@@@2@0@Z 00407750 f i RayTracer.obj
 0001:00006880       ?_Clrcont@_Iterator_base12@std@@QAEXXZ 00407880 f i RayTracer.obj
 0001:000068c0       ?_Getpnext@_Iterator_base12@std@@QAEPAPAU12@XZ 004078c0 f i RayTracer.obj
 0001:000068f0       ??D?$_String_const_iterator@DU?$char_traits@D@std@@V?$allocator@D@2@@std@@QBEABDXZ 004078f0 f i RayTracer.obj
 0001:00006a00       ?begin@?$_Tree@V?$_Tmap_traits@V?$basic_string@DU?$char_traits@D@std@@V?$allocator@D@2@@std@@VMaterial@@U?$less@V?$basic_string@DU?$char_traits@D@std@@V?$allocator@D@2@@std@@@2@V?$allocator@U?$pair@$$CBV?$basic_string@DU?$char_traits@D@std@@V?$allocator@D@2@@std@@VMaterial@@@std@@@2@$0A@@std@@@std@@QAE?AV?$_Tree_iterator@V?$_Tree_val@V?$_Tmap_traits@V?$basic_string@DU?$char_traits@D@std@@V?$allocator@D@2@@std@@VMaterial@@U?$less@V?$basic_string@DU?$char_traits@D@std@@V?$allocator@D@2@@std@@@2@V?$allocator@U?$pair@$$CBV?$basic_string@DU?$char_traits@D@std@@V?$allocator@D@2@@std@@VMaterial@@@std@@@2@$0A@@std@@@std@@@2@XZ 00407a00 f i RayTracer.obj
 0001:00006a70       ?end@?$_Tree@V?$_Tmap_traits@V?$basic_string@DU?$char_traits@D@std@@V?$allocator@D@2@@std@@VMaterial@@U?$less@V?$basic_string@DU?$char_traits@D@std@@V?$allocator@D@2@@std@@@2@V?$allocator@U?$pair@$$CBV?$basic_string@DU?$char_traits@D@std@@V?$allocator@D@2@@std@@VMaterial@@@std@@@2@$0A@@std@@@std@@QAE?AV?$_Tree_iterator@V?$_Tree_val@V?$_Tmap_traits@V?$basic_string@DU?$char_traits@D@std@@V?$allocator@D@2@@std@@VMaterial@@U?$less@V?$basic_string@DU?$char_traits@D@std@@V?$allocator@D@2@@std@@@2@V?$allocator@U?$pair@$$CBV?$basic_string@DU?$char_traits@D@std@@V?$allocator@D@2@@std@@VMaterial@@@std@@@2@$0A@@std@@@std@@@2@XZ 00407a70 f i RayTracer.obj
 0001:00006ae0       ?erase@?$_Tree@V?$_Tmap_traits@V?$basic_string@DU?$char_traits@D@std@@V?$allocator@D@2@@std@@VMaterial@@U?$less@V?$basic_string@DU?$char_traits@D@std@@V?$allocator@D@2@@std@@@2@V?$allocator@U?$pair@$$CBV?$basic_string@DU?$char_traits@D@std@@V?$allocator@D@2@@std@@VMaterial@@@std@@@2@$0A@@std@@@std@@QAE?AV?$_Tree_iterator@V?$_Tree_val@V?$_Tmap_traits@V?$basic_string@DU?$char_traits@D@std@@V?$allocator@D@2@@std@@VMaterial@@U?$less@V?$basic_string@DU?$char_traits@D@std@@V?$allocator@D@2@@std@@@2@V?$allocator@U?$pair@$$CBV?$basic_string@DU?$char_traits@D@std@@V?$allocator@D@2@@std@@VMaterial@@@std@@@2@$0A@@std@@@std@@@2@V?$_Tree_const_iterator@V?$_Tree_val@V?$_Tmap_traits@V?$basic_string@DU?$char_traits@D@std@@V?$allocator@D@2@@std@@VMaterial@@U?$less@V?$basic_string@DU?$char_traits@D@std@@V?$allocator@D@2@@std@@@2@V?$allocator@U?$pair@$$CBV?$basic_string@DU?$char_traits@D@std@@V?$allocator@D@2@@std@@VMaterial@@@std@@@2@$0A@@std@@@std@@@2@0@Z 00407ae0 f i RayTracer.obj
 0001:00006d50       ??0?$_Tree_val@V?$_Tmap_traits@V?$basic_string@DU?$char_traits@D@std@@V?$allocator@D@2@@std@@VMaterial@@U?$less@V?$basic_string@DU?$char_traits@D@std@@V?$allocator@D@2@@std@@@2@V?$allocator@U?$pair@$$CBV?$basic_string@DU?$char_traits@D@std@@V?$allocator@D@2@@std@@VMaterial@@@std@@@2@$0A@@std@@@std@@QAE@ABU?$less@V?$basic_string@DU?$char_traits@D@std@@V?$allocator@D@2@@std@@@1@V?$allocator@U?$pair@$$CBV?$basic_string@DU?$char_traits@D@std@@V?$allocator@D@2@@std@@VMaterial@@@std@@@1@@Z 00407d50 f i RayTracer.obj
 0001:00006e70       ??1?$_Tree_nod@V?$_Tmap_traits@V?$basic_string@DU?$char_traits@D@std@@V?$allocator@D@2@@std@@VMaterial@@U?$less@V?$basic_string@DU?$char_traits@D@std@@V?$allocator@D@2@@std@@@2@V?$allocator@U?$pair@$$CBV?$basic_string@DU?$char_traits@D@std@@V?$allocator@D@2@@std@@VMaterial@@@std@@@2@$0A@@std@@@std@@QAE@XZ 00407e70 f i RayTracer.obj
 0001:00006f70       ??0?$allocator@U?$pair@$$CBV?$basic_string@DU?$char_traits@D@std@@V?$allocator@D@2@@std@@VMaterial@@@std@@@std@@QAE@ABV01@@Z 00407f70 f i RayTracer.obj
 0001:00006fa0       ?deallocate@?$allocator@U_Node@?$_Tree_nod@V?$_Tmap_traits@V?$basic_string@DU?$char_traits@D@std@@V?$allocator@D@2@@std@@VMaterial@@U?$less@V?$basic_string@DU?$char_traits@D@std@@V?$allocator@D@2@@std@@@2@V?$allocator@U?$pair@$$CBV?$basic_string@DU?$char_traits@D@std@@V?$allocator@D@2@@std@@VMaterial@@@std@@@2@$0A@@std@@@std@@@std@@QAEXPAU_Node@?$_Tree_nod@V?$_Tmap_traits@V?$basic_string@DU?$char_traits@D@std@@V?$allocator@D@2@@std@@VMaterial@@U?$less@V?$basic_string@DU?$char_traits@D@std@@V?$allocator@D@2@@std@@@2@V?$allocator@U?$pair@$$CBV?$basic_string@DU?$char_traits@D@std@@V?$allocator@D@2@@std@@VMaterial@@@std@@@2@$0A@@std@@@2@I@Z 00407fa0 f i RayTracer.obj
 0001:00006ff0       ??0?$_String_iterator@DU?$char_traits@D@std@@V?$allocator@D@2@@std@@QAE@PADPBU_Container_base12@1@@Z 00407ff0 f i RayTracer.obj
 0001:00007040       ??0?$_Vector_iterator@V?$_Vector_val@U?$pair@Vray@@Visect@@@std@@V?$allocator@U?$pair@Vray@@Visect@@@std@@@2@@std@@@std@@QAE@PAU?$pair@Vray@@Visect@@@1@PBU_Container_base12@1@@Z 00408040 f i RayTracer.obj
 0001:00007090       ??9?$_Vector_const_iterator@V?$_Vector_val@U?$pair@Vray@@Visect@@@std@@V?$allocator@U?$pair@Vray@@Visect@@@std@@@2@@std@@@std@@QBE_NABV01@@Z 00408090 f i RayTracer.obj
 0001:000070e0       ??M?$_Vector_const_iterator@V?$_Vector_val@U?$pair@Vray@@Visect@@@std@@V?$allocator@U?$pair@Vray@@Visect@@@std@@@2@@std@@@std@@QBE_NABV01@@Z 004080e0 f i RayTracer.obj
 0001:00007140       ?deallocate@?$allocator@U_Container_proxy@std@@@std@@QAEXPAU_Container_proxy@2@I@Z 00408140 f i RayTracer.obj
 0001:00007190       ?allocate@?$allocator@U_Container_proxy@std@@@std@@QAEPAU_Container_proxy@2@I@Z 00408190 f i RayTracer.obj
 0001:000071e0       ??1?$_Tmap_traits@V?$basic_string@DU?$char_traits@D@std@@V?$allocator@D@2@@std@@VMaterial@@U?$less@V?$basic_string@DU?$char_traits@D@std@@V?$allocator@D@2@@std@@@2@V?$allocator@U?$pair@$$CBV?$basic_string@DU?$char_traits@D@std@@V?$allocator@D@2@@std@@VMaterial@@@std@@@2@$0A@@std@@QAE@XZ 004081e0 f i RayTracer.obj
 0001:00007230       ?assign@?$basic_string@DU?$char_traits@D@std@@V?$allocator@D@2@@std@@QAEAAV12@ABV12@@Z 00408230 f i RayTracer.obj
 0001:00007280       ?max_size@?$basic_string@DU?$char_traits@D@std@@V?$allocator@D@2@@std@@QBEIXZ 00408280 f i RayTracer.obj
 0001:000072f0       ?_Copy@?$basic_string@DU?$char_traits@D@std@@V?$allocator@D@2@@std@@QAEXII@Z 004082f0 f i RayTracer.obj
 0001:000074b0       ??0?$_String_const_iterator@DU?$char_traits@D@std@@V?$allocator@D@2@@std@@QAE@PBDPBU_Container_base12@1@@Z 004084b0 f i RayTracer.obj
 0001:00007550       ?erase@?$_Tree@V?$_Tmap_traits@V?$basic_string@DU?$char_traits@D@std@@V?$allocator@D@2@@std@@VMaterial@@U?$less@V?$basic_string@DU?$char_traits@D@std@@V?$allocator@D@2@@std@@@2@V?$allocator@U?$pair@$$CBV?$basic_string@DU?$char_traits@D@std@@V?$allocator@D@2@@std@@VMaterial@@@std@@@2@$0A@@std@@@std@@QAE?AV?$_Tree_iterator@V?$_Tree_val@V?$_Tmap_traits@V?$basic_string@DU?$char_traits@D@std@@V?$allocator@D@2@@std@@VMaterial@@U?$less@V?$basic_string@DU?$char_traits@D@std@@V?$allocator@D@2@@std@@@2@V?$allocator@U?$pair@$$CBV?$basic_string@DU?$char_traits@D@std@@V?$allocator@D@2@@std@@VMaterial@@@std@@@2@$0A@@std@@@std@@@2@V?$_Tree_const_iterator@V?$_Tree_val@V?$_Tmap_traits@V?$basic_string@DU?$char_traits@D@std@@V?$allocator@D@2@@std@@VMaterial@@U?$less@V?$basic_string@DU?$char_traits@D@std@@V?$allocator@D@2@@std@@@2@V?$allocator@U?$pair@$$CBV?$basic_string@DU?$char_traits@D@std@@V?$allocator@D@2@@std@@VMaterial@@@std@@@2@$0A@@std@@@std@@@2@@Z 00408550 f i RayTracer.obj
 0001:00007da0       ?clear@?$_Tree@V?$_Tmap_traits@V?$basic_string@DU?$char_traits@D@std@@V?$allocator@D@2@@std@@VMaterial@@U?$less@V?$basic_string@DU?$char_traits@D@std@@V?$allocator@D@2@@std@@@2@V?$allocator@U?$pair@$$CBV?$basic_string@DU?$char_traits@D@std@@V?$allocator@D@2@@std@@VMaterial@@@std@@@2@$0A@@std@@@std@@QAEXXZ 00408da0 f i RayTracer.obj
 0001:00007e40       ?_Lmost@?$_Tree@V?$_Tmap_traits@V?$basic_string@DU?$char_traits@D@std@@V?$allocator@D@2@@std@@VMaterial@@U?$less@V?$basic_string@DU?$char_traits@D@std@@V?$allocator@D@2@@std@@@2@V?$allocator@U?$pair@$$CBV?$basic_string@DU?$char_traits@D@std@@V?$allocator@D@2@@std@@VMaterial@@@std@@@2@$0A@@std@@@std@@IBEAAPAU_Node@?$_Tree_nod@V?$_Tmap_traits@V?$basic_string@DU?$char_traits@D@std@@V?$allocator@D@2@@std@@VMaterial@@U?$less@V?$basic_string@DU?$char_traits@D@std@@V?$allocator@D@2@@std@@@2@V?$allocator@U?$pair@$$CBV?$basic_string@DU?$char_traits@D@std@@V?$allocator@D@2@@std@@VMaterial@@@std@@@2@$0A@@std@@@2@XZ 00408e40 f i RayTracer.obj
 0001:00007e90       ?_Color@?$_Tree_val@V?$_Tmap_traits@V?$basic_string@DU?$char_traits@D@std@@V?$allocator@D@2@@std@@VMaterial@@U?$less@V?$basic_string@DU?$char_traits@D@std@@V?$allocator@D@2@@std@@@2@V?$allocator@U?$pair@$$CBV?$basic_string@DU?$char_traits@D@std@@V?$allocator@D@2@@std@@VMaterial@@@std@@@2@$0A@@std@@@std@@SAAADPAU_Node@?$_Tree_nod@V?$_Tmap_traits@V?$basic_string@DU?$char_traits@D@std@@V?$allocator@D@2@@std@@VMaterial@@U?$less@V?$basic_string@DU?$char_traits@D@std@@V?$allocator@D@2@@std@@@2@V?$allocator@U?$pair@$$CBV?$basic_string@DU?$char_traits@D@std@@V?$allocator@D@2@@std@@VMaterial@@@std@@@2@$0A@@std@@@2@@Z 00408e90 f i RayTracer.obj
 0001:00007ec0       ?_Isnil@?$_Tree_val@V?$_Tmap_traits@V?$basic_string@DU?$char_traits@D@std@@V?$allocator@D@2@@std@@VMaterial@@U?$less@V?$basic_string@DU?$char_traits@D@std@@V?$allocator@D@2@@std@@@2@V?$allocator@U?$pair@$$CBV?$basic_string@DU?$char_traits@D@std@@V?$allocator@D@2@@std@@VMaterial@@@std@@@2@$0A@@std@@@std@@SAAADPAU_Node@?$_Tree_nod@V?$_Tmap_traits@V?$basic_string@DU?$char_traits@D@std@@V?$allocator@D@2@@std@@VMaterial@@U?$less@V?$basic_string@DU?$char_traits@D@std@@V?$allocator@D@2@@std@@@2@V?$allocator@U?$pair@$$CBV?$basic_string@DU?$char_traits@D@std@@V?$allocator@D@2@@std@@VMaterial@@@std@@@2@$0A@@std@@@2@@Z 00408ec0 f i RayTracer.obj
 0001:00007ef0       ?_Left@?$_Tree_val@V?$_Tmap_traits@V?$basic_string@DU?$char_traits@D@std@@V?$allocator@D@2@@std@@VMaterial@@U?$less@V?$basic_string@DU?$char_traits@D@std@@V?$allocator@D@2@@std@@@2@V?$allocator@U?$pair@$$CBV?$basic_string@DU?$char_traits@D@std@@V?$allocator@D@2@@std@@VMaterial@@@std@@@2@$0A@@std@@@std@@SAAAPAU_Node@?$_Tree_nod@V?$_Tmap_traits@V?$basic_string@DU?$char_traits@D@std@@V?$allocator@D@2@@std@@VMaterial@@U?$less@V?$basic_string@DU?$char_traits@D@std@@V?$allocator@D@2@@std@@@2@V?$allocator@U?$pair@$$CBV?$basic_string@DU?$char_traits@D@std@@V?$allocator@D@2@@std@@VMaterial@@@std@@@2@$0A@@std@@@2@PAU342@@Z 00408ef0 f i RayTracer.obj
 0001:00007f20       ?_Parent@?$_Tree_val@V?$_Tmap_traits@V?$basic_string@DU?$char_traits@D@std@@V?$allocator@D@2@@std@@VMaterial@@U?$less@V?$basic_string@DU?$char_traits@D@std@@V?$allocator@D@2@@std@@@2@V?$allocator@U?$pair@$$CBV?$basic_string@DU?$char_traits@D@std@@V?$allocator@D@2@@std@@VMaterial@@@std@@@2@$0A@@std@@@std@@SAAAPAU_Node@?$_Tree_nod@V?$_Tmap_traits@V?$basic_string@DU?$char_traits@D@std@@V?$allocator@D@2@@std@@VMaterial@@U?$less@V?$basic_string@DU?$char_traits@D@std@@V?$allocator@D@2@@std@@@2@V?$allocator@U?$pair@$$CBV?$basic_string@DU?$char_traits@D@std@@V?$allocator@D@2@@std@@VMaterial@@@std@@@2@$0A@@std@@@2@PAU342@@Z 00408f20 f i RayTracer.obj
 0001:00007f50       ?_Right@?$_Tree_val@V?$_Tmap_traits@V?$basic_string@DU?$char_traits@D@std@@V?$allocator@D@2@@std@@VMaterial@@U?$less@V?$basic_string@DU?$char_traits@D@std@@V?$allocator@D@2@@std@@@2@V?$allocator@U?$pair@$$CBV?$basic_string@DU?$char_traits@D@std@@V?$allocator@D@2@@std@@VMaterial@@@std@@@2@$0A@@std@@@std@@SAAAPAU_Node@?$_Tree_nod@V?$_Tmap_traits@V?$basic_string@DU?$char_traits@D@std@@V?$allocator@D@2@@std@@VMaterial@@U?$less@V?$basic_string@DU?$char_traits@D@std@@V?$allocator@D@2@@std@@@2@V?$allocator@U?$pair@$$CBV?$basic_string@DU?$char_traits@D@std@@V?$allocator@D@2@@std@@VMaterial@@@std@@@2@$0A@@std@@@2@PAU342@@Z 00408f50 f i RayTracer.obj
 0001:00007f80       ??0?$_Tree_nod@V?$_Tmap_traits@V?$basic_string@DU?$char_traits@D@std@@V?$allocator@D@2@@std@@VMaterial@@U?$less@V?$basic_string@DU?$char_traits@D@std@@V?$allocator@D@2@@std@@@2@V?$allocator@U?$pair@$$CBV?$basic_string@DU?$char_traits@D@std@@V?$allocator@D@2@@std@@VMaterial@@@std@@@2@$0A@@std@@@std@@QAE@ABU?$less@V?$basic_string@DU?$char_traits@D@std@@V?$allocator@D@2@@std@@@1@V?$allocator@U?$pair@$$CBV?$basic_string@DU?$char_traits@D@std@@V?$allocator@D@2@@std@@VMaterial@@@std@@@1@@Z 00408f80 f i RayTracer.obj
 0001:000080a0       ?allocate@?$allocator@U_Node@?$_Tree_nod@V?$_Tmap_traits@V?$basic_string@DU?$char_traits@D@std@@V?$allocator@D@2@@std@@VMaterial@@U?$less@V?$basic_string@DU?$char_traits@D@std@@V?$allocator@D@2@@std@@@2@V?$allocator@U?$pair@$$CBV?$basic_string@DU?$char_traits@D@std@@V?$allocator@D@2@@std@@VMaterial@@@std@@@2@$0A@@std@@@std@@@std@@QAEPAU_Node@?$_Tree_nod@V?$_Tmap_traits@V?$basic_string@DU?$char_traits@D@std@@V?$allocator@D@2@@std@@VMaterial@@U?$less@V?$basic_string@DU?$char_traits@D@std@@V?$allocator@D@2@@std@@@2@V?$allocator@U?$pair@$$CBV?$basic_string@DU?$char_traits@D@std@@V?$allocator@D@2@@std@@VMaterial@@@std@@@2@$0A@@std@@@2@I@Z 004090a0 f i RayTracer.obj
 0001:000080f0       ??0?$_Vector_const_iterator@V?$_Vector_val@U?$pair@Vray@@Visect@@@std@@V?$allocator@U?$pair@Vray@@Visect@@@std@@@2@@std@@@std@@QAE@PAU?$pair@Vray@@Visect@@@1@PBU_Container_base12@1@@Z 004090f0 f i RayTracer.obj
 0001:00008190       ??8?$_Vector_const_iterator@V?$_Vector_val@U?$pair@Vray@@Visect@@@std@@V?$allocator@U?$pair@Vray@@Visect@@@std@@@2@@std@@@std@@QBE_NABV01@@Z 00409190 f i RayTracer.obj
 0001:000081f0       ?_Compat@?$_Vector_const_iterator@V?$_Vector_val@U?$pair@Vray@@Visect@@@std@@V?$allocator@U?$pair@Vray@@Visect@@@std@@@2@@std@@@std@@QBEXABV12@@Z 004091f0 f i RayTracer.obj
 0001:000082d0       ??0?$_Tree_iterator@V?$_Tree_val@V?$_Tmap_traits@V?$basic_string@DU?$char_traits@D@std@@V?$allocator@D@2@@std@@VMaterial@@U?$less@V?$basic_string@DU?$char_traits@D@std@@V?$allocator@D@2@@std@@@2@V?$allocator@U?$pair@$$CBV?$basic_string@DU?$char_traits@D@std@@V?$allocator@D@2@@std@@VMaterial@@@std@@@2@$0A@@std@@@std@@@std@@QAE@PAU_Node@?$_Tree_nod@V?$_Tmap_traits@V?$basic_string@DU?$char_traits@D@std@@V?$allocator@D@2@@std@@VMaterial@@U?$less@V?$basic_string@DU?$char_traits@D@std@@V?$allocator@D@2@@std@@@2@V?$allocator@U?$pair@$$CBV?$basic_string@DU?$char_traits@D@std@@V?$allocator@D@2@@std@@VMaterial@@@std@@@2@$0A@@std@@@1@PBV?$_Tree_val@V?$_Tmap_traits@V?$basic_string@DU?$char_traits@D@std@@V?$allocator@D@2@@std@@VMaterial@@U?$less@V?$basic_string@DU?$char_traits@D@std@@V?$allocator@D@2@@std@@@2@V?$allocator@U?$pair@$$CBV?$basic_string@DU?$char_traits@D@std@@V?$allocator@D@2@@std@@VMaterial@@@std@@@2@$0A@@std@@@1@@Z 004092d0 f i RayTracer.obj
 0001:00008320       ??E?$_Tree_const_iterator@V?$_Tree_val@V?$_Tmap_traits@V?$basic_string@DU?$char_traits@D@std@@V?$allocator@D@2@@std@@VMaterial@@U?$less@V?$basic_string@DU?$char_traits@D@std@@V?$allocator@D@2@@std@@@2@V?$allocator@U?$pair@$$CBV?$basic_string@DU?$char_traits@D@std@@V?$allocator@D@2@@std@@VMaterial@@@std@@@2@$0A@@std@@@std@@@std@@QAE?AV01@H@Z 00409320 f i RayTracer.obj
 0001:00008400       ??8?$_Tree_const_iterator@V?$_Tree_val@V?$_Tmap_traits@V?$basic_string@DU?$char_traits@D@std@@V?$allocator@D@2@@std@@VMaterial@@U?$less@V?$basic_string@DU?$char_traits@D@std@@V?$allocator@D@2@@std@@@2@V?$allocator@U?$pair@$$CBV?$basic_string@DU?$char_traits@D@std@@V?$allocator@D@2@@std@@VMaterial@@@std@@@2@$0A@@std@@@std@@@std@@QBE_NABV01@@Z 00409400 f i RayTracer.obj
 0001:00008500       ??9?$_Tree_const_iterator@V?$_Tree_val@V?$_Tmap_traits@V?$basic_string@DU?$char_traits@D@std@@V?$allocator@D@2@@std@@VMaterial@@U?$less@V?$basic_string@DU?$char_traits@D@std@@V?$allocator@D@2@@std@@@2@V?$allocator@U?$pair@$$CBV?$basic_string@DU?$char_traits@D@std@@V?$allocator@D@2@@std@@VMaterial@@@std@@@2@$0A@@std@@@std@@@std@@QBE_NABV01@@Z 00409500 f i RayTracer.obj
 0001:00008550       ??0?$_Iterator012@Urandom_access_iterator_tag@std@@DHPBDABDU_Iterator_base12@2@@std@@QAE@XZ 00409550 f i RayTracer.obj
 0001:000085a0       ??0_Iterator_base12@std@@QAE@XZ 004095a0 f i RayTracer.obj
 0001:000085e0       ??0?$_Iterator012@Urandom_access_iterator_tag@std@@U?$pair@Vray@@Visect@@@2@HPBU32@ABU32@U_Iterator_base12@2@@std@@QAE@XZ 004095e0 f i RayTracer.obj
 0001:00008630       ?allocate@?$allocator@D@std@@QAEPADI@Z 00409630 f i RayTracer.obj
 0001:00008680       ?max_size@?$allocator@D@std@@QBEIXZ 00409680 f i RayTracer.obj
 0001:000086e0       ?_Erase@?$_Tree@V?$_Tmap_traits@V?$basic_string@DU?$char_traits@D@std@@V?$allocator@D@2@@std@@VMaterial@@U?$less@V?$basic_string@DU?$char_traits@D@std@@V?$allocator@D@2@@std@@@2@V?$allocator@U?$pair@$$CBV?$basic_string@DU?$char_traits@D@std@@V?$allocator@D@2@@std@@VMaterial@@@std@@@2@$0A@@std@@@std@@IAEXPAU_Node@?$_Tree_nod@V?$_Tmap_traits@V?$basic_string@DU?$char_traits@D@std@@V?$allocator@D@2@@std@@VMaterial@@U?$less@V?$basic_string@DU?$char_traits@D@std@@V?$allocator@D@2@@std@@@2@V?$allocator@U?$pair@$$CBV?$basic_string@DU?$char_traits@D@std@@V?$allocator@D@2@@std@@VMaterial@@@std@@@2@$0A@@std@@@2@@Z 004096e0 f i RayTracer.obj
 0001:000087a0       ?_Lrotate@?$_Tree@V?$_Tmap_traits@V?$basic_string@DU?$char_traits@D@std@@V?$allocator@D@2@@std@@VMaterial@@U?$less@V?$basic_string@DU?$char_traits@D@std@@V?$allocator@D@2@@std@@@2@V?$allocator@U?$pair@$$CBV?$basic_string@DU?$char_traits@D@std@@V?$allocator@D@2@@std@@VMaterial@@@std@@@2@$0A@@std@@@std@@IAEXPAU_Node@?$_Tree_nod@V?$_Tmap_traits@V?$basic_string@DU?$char_traits@D@std@@V?$allocator@D@2@@std@@VMaterial@@U?$less@V?$basic_string@DU?$char_traits@D@std@@V?$allocator@D@2@@std@@@2@V?$allocator@U?$pair@$$CBV?$basic_string@DU?$char_traits@D@std@@V?$allocator@D@2@@std@@VMaterial@@@std@@@2@$0A@@std@@@2@@Z 004097a0 f i RayTracer.obj
 0001:00008900       ?_Rmost@?$_Tree@V?$_Tmap_traits@V?$basic_string@DU?$char_traits@D@std@@V?$allocator@D@2@@std@@VMaterial@@U?$less@V?$basic_string@DU?$char_traits@D@std@@V?$allocator@D@2@@std@@@2@V?$allocator@U?$pair@$$CBV?$basic_string@DU?$char_traits@D@std@@V?$allocator@D@2@@std@@VMaterial@@@std@@@2@$0A@@std@@@std@@IBEAAPAU_Node@?$_Tree_nod@V?$_Tmap_traits@V?$basic_string@DU?$char_traits@D@std@@V?$allocator@D@2@@std@@VMaterial@@U?$less@V?$basic_string@DU?$char_traits@D@std@@V?$allocator@D@2@@std@@@2@V?$allocator@U?$pair@$$CBV?$basic_string@DU?$char_traits@D@std@@V?$allocator@D@2@@std@@VMaterial@@@std@@@2@$0A@@std@@@2@XZ 00409900 f i RayTracer.obj
 0001:00008950       ?_Root@?$_Tree@V?$_Tmap_traits@V?$basic_string@DU?$char_traits@D@std@@V?$allocator@D@2@@std@@VMaterial@@U?$less@V?$basic_string@DU?$char_traits@D@std@@V?$allocator@D@2@@std@@@2@V?$allocator@U?$pair@$$CBV?$basic_string@DU?$char_traits@D@std@@V?$allocator@D@2@@std@@VMaterial@@@std@@@2@$0A@@std@@@std@@IBEAAPAU_Node@?$_Tree_nod@V?$_Tmap_traits@V?$basic_string@DU?$char_traits@D@std@@V?$allocator@D@2@@std@@VMaterial@@U?$less@V?$basic_string@DU?$char_traits@D@std@@V?$allocator@D@2@@std@@@2@V?$allocator@U?$pair@$$CBV?$basic_string@DU?$char_traits@D@std@@V?$allocator@D@2@@std@@VMaterial@@@std@@@2@$0A@@std@@@2@XZ 00409950 f i RayTracer.obj
 0001:000089a0       ?_Rrotate@?$_Tree@V?$_Tmap_traits@V?$basic_string@DU?$char_traits@D@std@@V?$allocator@D@2@@std@@VMaterial@@U?$less@V?$basic_string@DU?$char_traits@D@std@@V?$allocator@D@2@@std@@@2@V?$allocator@U?$pair@$$CBV?$basic_string@DU?$char_traits@D@std@@V?$allocator@D@2@@std@@VMaterial@@@std@@@2@$0A@@std@@@std@@IAEXPAU_Node@?$_Tree_nod@V?$_Tmap_traits@V?$basic_string@DU?$char_traits@D@std@@V?$allocator@D@2@@std@@VMaterial@@U?$less@V?$basic_string@DU?$char_traits@D@std@@V?$allocator@D@2@@std@@@2@V?$allocator@U?$pair@$$CBV?$basic_string@DU?$char_traits@D@std@@V?$allocator@D@2@@std@@VMaterial@@@std@@@2@$0A@@std@@@2@@Z 004099a0 f i RayTracer.obj
 0001:00008b00       ?_Orphan_ptr@?$_Tree@V?$_Tmap_traits@V?$basic_string@DU?$char_traits@D@std@@V?$allocator@D@2@@std@@VMaterial@@U?$less@V?$basic_string@DU?$char_traits@D@std@@V?$allocator@D@2@@std@@@2@V?$allocator@U?$pair@$$CBV?$basic_string@DU?$char_traits@D@std@@V?$allocator@D@2@@std@@VMaterial@@@std@@@2@$0A@@std@@@std@@IBEXAAV12@PAU_Node@?$_Tree_nod@V?$_Tmap_traits@V?$basic_string@DU?$char_traits@D@std@@V?$allocator@D@2@@std@@VMaterial@@U?$less@V?$basic_string@DU?$char_traits@D@std@@V?$allocator@D@2@@std@@@2@V?$allocator@U?$pair@$$CBV?$basic_string@DU?$char_traits@D@std@@V?$allocator@D@2@@std@@VMaterial@@@std@@@2@$0A@@std@@@2@@Z 00409b00 f i RayTracer.obj
 0001:00008c40       ?_Myval@?$_Tree_val@V?$_Tmap_traits@V?$basic_string@DU?$char_traits@D@std@@V?$allocator@D@2@@std@@VMaterial@@U?$less@V?$basic_string@DU?$char_traits@D@std@@V?$allocator@D@2@@std@@@2@V?$allocator@U?$pair@$$CBV?$basic_string@DU?$char_traits@D@std@@V?$allocator@D@2@@std@@VMaterial@@@std@@@2@$0A@@std@@@std@@SAAAU?$pair@$$CBV?$basic_string@DU?$char_traits@D@std@@V?$allocator@D@2@@std@@VMaterial@@@2@PAU_Node@?$_Tree_nod@V?$_Tmap_traits@V?$basic_string@DU?$char_traits@D@std@@V?$allocator@D@2@@std@@VMaterial@@U?$less@V?$basic_string@DU?$char_traits@D@std@@V?$allocator@D@2@@std@@@2@V?$allocator@U?$pair@$$CBV?$basic_string@DU?$char_traits@D@std@@V?$allocator@D@2@@std@@VMaterial@@@std@@@2@$0A@@std@@@2@@Z 00409c40 f i RayTracer.obj
 0001:00008c70       ?_Max@?$_Tree_val@V?$_Tmap_traits@V?$basic_string@DU?$char_traits@D@std@@V?$allocator@D@2@@std@@VMaterial@@U?$less@V?$basic_string@DU?$char_traits@D@std@@V?$allocator@D@2@@std@@@2@V?$allocator@U?$pair@$$CBV?$basic_string@DU?$char_traits@D@std@@V?$allocator@D@2@@std@@VMaterial@@@std@@@2@$0A@@std@@@std@@SAPAU_Node@?$_Tree_nod@V?$_Tmap_traits@V?$basic_string@DU?$char_traits@D@std@@V?$allocator@D@2@@std@@VMaterial@@U?$less@V?$basic_string@DU?$char_traits@D@std@@V?$allocator@D@2@@std@@@2@V?$allocator@U?$pair@$$CBV?$basic_string@DU?$char_traits@D@std@@V?$allocator@D@2@@std@@VMaterial@@@std@@@2@$0A@@std@@@2@PAU342@@Z 00409c70 f i RayTracer.obj
 0001:00008ce0       ?_Min@?$_Tree_val@V?$_Tmap_traits@V?$basic_string@DU?$char_traits@D@std@@V?$allocator@D@2@@std@@VMaterial@@U?$less@V?$basic_string@DU?$char_traits@D@std@@V?$allocator@D@2@@std@@@2@V?$allocator@U?$pair@$$CBV?$basic_string@DU?$char_traits@D@std@@V?$allocator@D@2@@std@@VMaterial@@@std@@@2@$0A@@std@@@std@@SAPAU_Node@?$_Tree_nod@V?$_Tmap_traits@V?$basic_string@DU?$char_traits@D@std@@V?$allocator@D@2@@std@@VMaterial@@U?$less@V?$basic_string@DU?$char_traits@D@std@@V?$allocator@D@2@@std@@@2@V?$allocator@U?$pair@$$CBV?$basic_string@DU?$char_traits@D@std@@V?$allocator@D@2@@std@@VMaterial@@@std@@@2@$0A@@std@@@2@PAU342@@Z 00409ce0 f i RayTracer.obj
 0001:00008d50       ??0?$_Tmap_traits@V?$basic_string@DU?$char_traits@D@std@@V?$allocator@D@2@@std@@VMaterial@@U?$less@V?$basic_string@DU?$char_traits@D@std@@V?$allocator@D@2@@std@@@2@V?$allocator@U?$pair@$$CBV?$basic_string@DU?$char_traits@D@std@@V?$allocator@D@2@@std@@VMaterial@@@std@@@2@$0A@@std@@QAE@U?$less@V?$basic_string@DU?$char_traits@D@std@@V?$allocator@D@2@@std@@@1@@Z 00409d50 f i RayTracer.obj
 0001:00008da0       ??0?$_Tree_const_iterator@V?$_Tree_val@V?$_Tmap_traits@V?$basic_string@DU?$char_traits@D@std@@V?$allocator@D@2@@std@@VMaterial@@U?$less@V?$basic_string@DU?$char_traits@D@std@@V?$allocator@D@2@@std@@@2@V?$allocator@U?$pair@$$CBV?$basic_string@DU?$char_traits@D@std@@V?$allocator@D@2@@std@@VMaterial@@@std@@@2@$0A@@std@@@std@@@std@@QAE@PAU_Node@?$_Tree_nod@V?$_Tmap_traits@V?$basic_string@DU?$char_traits@D@std@@V?$allocator@D@2@@std@@VMaterial@@U?$less@V?$basic_string@DU?$char_traits@D@std@@V?$allocator@D@2@@std@@@2@V?$allocator@U?$pair@$$CBV?$basic_string@DU?$char_traits@D@std@@V?$allocator@D@2@@std@@VMaterial@@@std@@@2@$0A@@std@@@1@PBV?$_Tree_val@V?$_Tmap_traits@V?$basic_string@DU?$char_traits@D@std@@V?$allocator@D@2@@std@@VMaterial@@U?$less@V?$basic_string@DU?$char_traits@D@std@@V?$allocator@D@2@@std@@@2@V?$allocator@U?$pair@$$CBV?$basic_string@DU?$char_traits@D@std@@V?$allocator@D@2@@std@@VMaterial@@@std@@@2@$0A@@std@@@1@@Z 00409da0 f i RayTracer.obj
 0001:00008df0       ??E?$_Tree_const_iterator@V?$_Tree_val@V?$_Tmap_traits@V?$basic_string@DU?$char_traits@D@std@@V?$allocator@D@2@@std@@VMaterial@@U?$less@V?$basic_string@DU?$char_traits@D@std@@V?$allocator@D@2@@std@@@2@V?$allocator@U?$pair@$$CBV?$basic_string@DU?$char_traits@D@std@@V?$allocator@D@2@@std@@VMaterial@@@std@@@2@$0A@@std@@@std@@@std@@QAEAAV01@XZ 00409df0 f i RayTracer.obj
 0001:00008ef0       ?_Mynode@?$_Tree_unchecked_const_iterator@V?$_Tree_val@V?$_Tmap_traits@V?$basic_string@DU?$char_traits@D@std@@V?$allocator@D@2@@std@@VMaterial@@U?$less@V?$basic_string@DU?$char_traits@D@std@@V?$allocator@D@2@@std@@@2@V?$allocator@U?$pair@$$CBV?$basic_string@DU?$char_traits@D@std@@V?$allocator@D@2@@std@@VMaterial@@@std@@@2@$0A@@std@@@std@@U_Iterator_base12@2@@std@@QBEPAU_Node@?$_Tree_nod@V?$_Tmap_traits@V?$basic_string@DU?$char_traits@D@std@@V?$allocator@D@2@@std@@VMaterial@@U?$less@V?$basic_string@DU?$char_traits@D@std@@V?$allocator@D@2@@std@@@2@V?$allocator@U?$pair@$$CBV?$basic_string@DU?$char_traits@D@std@@V?$allocator@D@2@@std@@VMaterial@@@std@@@2@$0A@@std@@@2@XZ 00409ef0 f i RayTracer.obj
 0001:00008f20       ??0?$_Tree_unchecked_const_iterator@V?$_Tree_val@V?$_Tmap_traits@V?$basic_string@DU?$char_traits@D@std@@V?$allocator@D@2@@std@@VMaterial@@U?$less@V?$basic_string@DU?$char_traits@D@std@@V?$allocator@D@2@@std@@@2@V?$allocator@U?$pair@$$CBV?$basic_string@DU?$char_traits@D@std@@V?$allocator@D@2@@std@@VMaterial@@@std@@@2@$0A@@std@@@std@@U_Iterator_base12@2@@std@@QAE@PAU_Node@?$_Tree_nod@V?$_Tmap_traits@V?$basic_string@DU?$char_traits@D@std@@V?$allocator@D@2@@std@@VMaterial@@U?$less@V?$basic_string@DU?$char_traits@D@std@@V?$allocator@D@2@@std@@@2@V?$allocator@U?$pair@$$CBV?$basic_string@DU?$char_traits@D@std@@V?$allocator@D@2@@std@@VMaterial@@@std@@@2@$0A@@std@@@1@PBV?$_Tree_val@V?$_Tmap_traits@V?$basic_string@DU?$char_traits@D@std@@V?$allocator@D@2@@std@@VMaterial@@U?$less@V?$basic_string@DU?$char_traits@D@std@@V?$allocator@D@2@@std@@@2@V?$allocator@U?$pair@$$CBV?$basic_string@DU?$char_traits@D@std@@V?$allocator@D@2@@std@@VMaterial@@@std@@@2@$0A@@std@@@1@@Z 00409f20 f i RayTracer.obj
 0001:00008fc0       ??E?$_Tree_unchecked_const_iterator@V?$_Tree_val@V?$_Tmap_traits@V?$basic_string@DU?$char_traits@D@std@@V?$allocator@D@2@@std@@VMaterial@@U?$less@V?$basic_string@DU?$char_traits@D@std@@V?$allocator@D@2@@std@@@2@V?$allocator@U?$pair@$$CBV?$basic_string@DU?$char_traits@D@std@@V?$allocator@D@2@@std@@VMaterial@@@std@@@2@$0A@@std@@@std@@U_Iterator_base12@2@@std@@QAEAAV01@XZ 00409fc0 f i RayTracer.obj
 0001:000090b0       ??0?$_Iterator012@Ubidirectional_iterator_tag@std@@U?$pair@$$CBV?$basic_string@DU?$char_traits@D@std@@V?$allocator@D@2@@std@@VMaterial@@@2@HPBU32@ABU32@U_Iterator_base12@2@@std@@QAE@XZ 0040a0b0 f i RayTracer.obj
 0001:00009100       ??$_DebugHeapDelete@Vfacet@locale@std@@@std@@YAXPAVfacet@locale@0@@Z 0040a100 f i RayTracer.obj
 0001:00009170       ??$forward@V?$basic_string@DU?$char_traits@D@std@@V?$allocator@D@2@@std@@@std@@YA$$QAV?$basic_string@DU?$char_traits@D@std@@V?$allocator@D@2@@0@AAV10@@Z 0040a170 f i RayTracer.obj
 0001:000091a0       ??$_Debug_pointer@D@std@@YAXPBDPB_WI@Z 0040a1a0 f i RayTracer.obj
 0001:00009200       ??$use_facet@V?$codecvt@DDH@std@@@std@@YAABV?$codecvt@DDH@0@ABVlocale@0@@Z 0040a200 f i RayTracer.obj
 0001:000093b0       ?_Register@facet@locale@std@@QAEXXZ 0040a3b0 f i RayTracer.obj
 0001:00009400       ?_Getfacet@locale@std@@QBEPBVfacet@12@I@Z 0040a400 f i RayTracer.obj
 0001:000094d0       ??$?9DD@std@@YA_NABV?$allocator@D@0@0@Z 0040a4d0 f i RayTracer.obj
 0001:00009520       ??$?0D@?$allocator@U_Container_proxy@std@@@std@@QAE@ABV?$allocator@D@1@@Z 0040a520 f i RayTracer.obj
 0001:00009550       ??$_Cons_val@V?$allocator@U_Container_proxy@std@@@std@@U_Container_proxy@2@U32@@std@@YAXAAV?$allocator@U_Container_proxy@std@@@0@PAU_Container_proxy@0@$$QAU20@@Z 0040a550 f i RayTracer.obj
 0001:000095a0       ??$_Dest_val@V?$allocator@U_Container_proxy@std@@@std@@U_Container_proxy@2@@std@@YAXAAV?$allocator@U_Container_proxy@std@@@0@PAU_Container_proxy@0@@Z 0040a5a0 f i RayTracer.obj
 0001:000095e0       ??$_Move@PAU?$pair@Vray@@Visect@@@std@@PAU12@@std@@YAPAU?$pair@Vray@@Visect@@@0@PAU10@00@Z 0040a5e0 f i RayTracer.obj
 0001:00009650       ??$_Destroy_range@V?$allocator@U?$pair@Vray@@Visect@@@std@@@std@@@std@@YAXPAU?$pair@Vray@@Visect@@@0@0AAV?$allocator@U?$pair@Vray@@Visect@@@std@@@0@@Z 0040a650 f i RayTracer.obj
 0001:000096c0       ??$?0U_Node@?$_Tree_nod@V?$_Tmap_traits@V?$basic_string@DU?$char_traits@D@std@@V?$allocator@D@2@@std@@VMaterial@@U?$less@V?$basic_string@DU?$char_traits@D@std@@V?$allocator@D@2@@std@@@2@V?$allocator@U?$pair@$$CBV?$basic_string@DU?$char_traits@D@std@@V?$allocator@D@2@@std@@VMaterial@@@std@@@2@$0A@@std@@@std@@@?$allocator@U_Container_proxy@std@@@std@@QAE@ABV?$allocator@U_Node@?$_Tree_nod@V?$_Tmap_traits@V?$basic_string@DU?$char_traits@D@std@@V?$allocator@D@2@@std@@VMaterial@@U?$less@V?$basic_string@DU?$char_traits@D@std@@V?$allocator@D@2@@std@@@2@V?$allocator@U?$pair@$$CBV?$basic_string@DU?$char_traits@D@std@@V?$allocator@D@2@@std@@VMaterial@@@std@@@2@$0A@@std@@@std@@@1@@Z 0040a6c0 f i RayTracer.obj
 0001:000096f0       ??$_Allocate@U_Container_proxy@std@@@std@@YAPAU_Container_proxy@0@IPAU10@@Z 0040a6f0 f i RayTracer.obj
 0001:00009780       ??0bad_alloc@std@@QAE@PBD@Z 0040a780 f i RayTracer.obj
 0001:000097e0       ??1bad_alloc@std@@UAE@XZ   0040a7e0 f i RayTracer.obj
 0001:00009840       ??_Gbad_alloc@std@@UAEPAXI@Z 0040a840 f i RayTracer.obj
 0001:00009840       ??_Ebad_alloc@std@@UAEPAXI@Z 0040a840 f i RayTracer.obj
 0001:000098a0       ??$swap@D@std@@YAXAAD0@Z   0040a8a0 f i RayTracer.obj
 0001:00009940       ??$addressof@U?$pair@$$CBV?$basic_string@DU?$char_traits@D@std@@V?$allocator@D@2@@std@@VMaterial@@@std@@@std@@YAPAU?$pair@$$CBV?$basic_string@DU?$char_traits@D@std@@V?$allocator@D@2@@std@@VMaterial@@@0@AAU10@@Z 0040a940 f i RayTracer.obj
 0001:00009970       ??$_Dest_val@V?$allocator@U?$pair@$$CBV?$basic_string@DU?$char_traits@D@std@@V?$allocator@D@2@@std@@VMaterial@@@std@@@std@@U?$pair@$$CBV?$basic_string@DU?$char_traits@D@std@@V?$allocator@D@2@@std@@VMaterial@@@2@@std@@YAXAAV?$allocator@U?$pair@$$CBV?$basic_string@DU?$char_traits@D@std@@V?$allocator@D@2@@std@@VMaterial@@@std@@@0@PAU?$pair@$$CBV?$basic_string@DU?$char_traits@D@std@@V?$allocator@D@2@@std@@VMaterial@@@0@@Z 0040a970 f i RayTracer.obj
 0001:000099b0       ??$?0U?$pair@$$CBV?$basic_string@DU?$char_traits@D@std@@V?$allocator@D@2@@std@@VMaterial@@@std@@@?$allocator@U_Node@?$_Tree_nod@V?$_Tmap_traits@V?$basic_string@DU?$char_traits@D@std@@V?$allocator@D@2@@std@@VMaterial@@U?$less@V?$basic_string@DU?$char_traits@D@std@@V?$allocator@D@2@@std@@@2@V?$allocator@U?$pair@$$CBV?$basic_string@DU?$char_traits@D@std@@V?$allocator@D@2@@std@@VMaterial@@@std@@@2@$0A@@std@@@std@@@std@@QAE@ABV?$allocator@U?$pair@$$CBV?$basic_string@DU?$char_traits@D@std@@V?$allocator@D@2@@std@@VMaterial@@@std@@@1@@Z 0040a9b0 f i RayTracer.obj
 0001:000099e0       ??$_Allocate@U_Node@?$_Tree_nod@V?$_Tmap_traits@V?$basic_string@DU?$char_traits@D@std@@V?$allocator@D@2@@std@@VMaterial@@U?$less@V?$basic_string@DU?$char_traits@D@std@@V?$allocator@D@2@@std@@@2@V?$allocator@U?$pair@$$CBV?$basic_string@DU?$char_traits@D@std@@V?$allocator@D@2@@std@@VMaterial@@@std@@@2@$0A@@std@@@std@@@std@@YAPAU_Node@?$_Tree_nod@V?$_Tmap_traits@V?$basic_string@DU?$char_traits@D@std@@V?$allocator@D@2@@std@@VMaterial@@U?$less@V?$basic_string@DU?$char_traits@D@std@@V?$allocator@D@2@@std@@@2@V?$allocator@U?$pair@$$CBV?$basic_string@DU?$char_traits@D@std@@V?$allocator@D@2@@std@@VMaterial@@@std@@@2@$0A@@std@@@0@IPAU120@@Z 0040a9e0 f i RayTracer.obj
 0001:00009a70       ??$_Allocate@D@std@@YAPADIPAD@Z 0040aa70 f i RayTracer.obj
 0001:00009b00       ??0bad_alloc@std@@QAE@ABV01@@Z 0040ab00 f i RayTracer.obj
 0001:00009b60       ?destroy@?$allocator@U?$pair@$$CBV?$basic_string@DU?$char_traits@D@std@@V?$allocator@D@2@@std@@VMaterial@@@std@@@std@@QAEXPAU?$pair@$$CBV?$basic_string@DU?$char_traits@D@std@@V?$allocator@D@2@@std@@VMaterial@@@2@@Z 0040ab60 f i RayTracer.obj
 0001:00009bb0       ?construct@?$allocator@U_Container_proxy@std@@@std@@QAEXPAU_Container_proxy@2@$$QAU32@@Z 0040abb0 f i RayTracer.obj
 0001:00009c80       ??2@YAPAXIPAX@Z            0040ac80 f i RayTracer.obj
 0001:00009cb0       ??3@YAXPAX0@Z              0040acb0 f i RayTracer.obj
 0001:00009ce0       ?destroy@?$allocator@U_Container_proxy@std@@@std@@QAEXPAU_Container_proxy@2@@Z 0040ace0 f i RayTracer.obj
 0001:00009d30       ??$?8DD@std@@YA_NABV?$allocator@D@0@0@Z 0040ad30 f i RayTracer.obj
 0001:00009d60       ??$forward@U_Container_proxy@std@@@std@@YA$$QAU_Container_proxy@0@AAU10@@Z 0040ad60 f i RayTracer.obj
 0001:00009d90       ??$_Ptr_cat@U?$pair@Vray@@Visect@@@std@@U12@@std@@YA?AU_Nonscalar_ptr_iterator_tag@0@PAU?$pair@Vray@@Visect@@@0@0@Z 0040ad90 f i RayTracer.obj
 0001:00009df0       ??$_Move@PAU?$pair@Vray@@Visect@@@std@@PAU12@@std@@YAPAU?$pair@Vray@@Visect@@@0@PAU10@00U_Nonscalar_ptr_iterator_tag@0@@Z 0040adf0 f i RayTracer.obj
 0001:00009e60       ??$_Destroy_range@V?$allocator@U?$pair@Vray@@Visect@@@std@@@std@@@std@@YAXPAU?$pair@Vray@@Visect@@@0@0AAV?$allocator@U?$pair@Vray@@Visect@@@std@@@0@U_Nonscalar_ptr_iterator_tag@0@@Z 0040ae60 f i RayTracer.obj
 0001:00009ec0       ??$_Move@AAD@std@@YA$$QADAAD@Z 0040aec0 f i RayTracer.obj
 0001:00009ef0       ??$_Destroy@U?$pair@$$CBV?$basic_string@DU?$char_traits@D@std@@V?$allocator@D@2@@std@@VMaterial@@@std@@@std@@YAXPAU?$pair@$$CBV?$basic_string@DU?$char_traits@D@std@@V?$allocator@D@2@@std@@VMaterial@@@0@@Z 0040aef0 f i RayTracer.obj
 0001:00009f30       ??$_Destroy@U_Container_proxy@std@@@std@@YAXPAU_Container_proxy@0@@Z 0040af30 f i RayTracer.obj
 0001:00009f60       ??_G?$pair@$$CBV?$basic_string@DU?$char_traits@D@std@@V?$allocator@D@2@@std@@VMaterial@@@std@@QAEPAXI@Z 0040af60 f i RayTracer.obj
 0001:00009fc0       ??1?$pair@$$CBV?$basic_string@DU?$char_traits@D@std@@V?$allocator@D@2@@std@@VMaterial@@@std@@QAE@XZ 0040afc0 f i RayTracer.obj
 0001:0000a000       ??1?$_Pair_base@$$CBV?$basic_string@DU?$char_traits@D@std@@V?$allocator@D@2@@std@@VMaterial@@@std@@QAE@XZ 0040b000 f i RayTracer.obj
 0001:0000a040       ??4?$pair@Vray@@Visect@@@std@@QAEAAU01@$$QAU01@@Z 0040b040 f i RayTracer.obj
 0001:0000a0b0       ??4ray@@QAEAAV0@ABV0@@Z    0040b0b0 f i RayTracer.obj
 0001:0000a110       ??4isect@@QAEAAV0@ABV0@@Z  0040b110 f i RayTracer.obj
 0001:0000a280       ??0Material@@QAE@ABV0@@Z   0040b280 f i RayTracer.obj
 0001:0000a370       ??0MaterialParameter@@QAE@ABV0@@Z 0040b370 f i RayTracer.obj
 0001:0000a3d0       ??4Material@@QAEAAV0@ABV0@@Z 0040b3d0 f i RayTracer.obj
 0001:0000a4b0       ??4MaterialParameter@@QAEAAV0@ABV0@@Z 0040b4b0 f i RayTracer.obj
 0001:0000a510       ??4?$Vec2@N@@QAEAAV0@ABV0@@Z 0040b510 f i RayTracer.obj
 0001:0000a560       ??$move@AAU?$pair@Vray@@Visect@@@std@@@std@@YA$$QAU?$pair@Vray@@Visect@@@0@AAU10@@Z 0040b560 f i RayTracer.obj
 0001:0000a590       ??$_Dest_val@V?$allocator@U?$pair@Vray@@Visect@@@std@@@std@@U?$pair@Vray@@Visect@@@2@@std@@YAXAAV?$allocator@U?$pair@Vray@@Visect@@@std@@@0@PAU?$pair@Vray@@Visect@@@0@@Z 0040b590 f i RayTracer.obj
 0001:0000a5d0       ??$move@AAVray@@@std@@YA$$QAVray@@AAV1@@Z 0040b5d0 f i RayTracer.obj
 0001:0000a600       ??$move@AAVisect@@@std@@YA$$QAVisect@@AAV1@@Z 0040b600 f i RayTracer.obj
 0001:0000a630       ?destroy@?$allocator@U?$pair@Vray@@Visect@@@std@@@std@@QAEXPAU?$pair@Vray@@Visect@@@2@@Z 0040b630 f i RayTracer.obj
 0001:0000a680       ??$_Destroy@U?$pair@Vray@@Visect@@@std@@@std@@YAXPAU?$pair@Vray@@Visect@@@0@@Z 0040b680 f i RayTracer.obj
 0001:0000a6c0       ??_G?$pair@Vray@@Visect@@@std@@QAEPAXI@Z 0040b6c0 f i RayTracer.obj
 0001:0000a720       ??1?$pair@Vray@@Visect@@@std@@QAE@XZ 0040b720 f i RayTracer.obj
 0001:0000a760       ??1?$_Pair_base@Vray@@Visect@@@std@@QAE@XZ 0040b760 f i RayTracer.obj
 0001:0000a7f0       ??0CommandLineUI@@QAE@HPAPAD@Z 0040b7f0 f   CommandLineUI.obj
 0001:0000aa50       ??0TraceUI@@QAE@XZ         0040ba50 f i CommandLineUI.obj
 0001:0000aac0       ?setRayTracer@TraceUI@@UAEXPAVRayTracer@@@Z 0040bac0 f i CommandLineUI.obj
 0001:0000ab00       ?run@CommandLineUI@@UAEHXZ 0040bb00 f   CommandLineUI.obj
 0001:0000ae70       ?setMultithreading@TraceUI@@QAEX_N@Z 0040be70 f i CommandLineUI.obj
 0001:0000aeb0       ?alert@CommandLineUI@@UAEXABV?$basic_string@DU?$char_traits@D@std@@V?$allocator@D@2@@std@@@Z 0040beb0 f   CommandLineUI.obj
 0001:0000af20       ?usage@CommandLineUI@@AAEXXZ 0040bf20 f   CommandLineUI.obj
 0001:0000b120       ?threadStart@CommandLineUI@@CAXPAVThreadPool@@PAX@Z 0040c120 f   CommandLineUI.obj
 0001:0000b250       ??$?6U?$char_traits@D@std@@@std@@YAAAV?$basic_ostream@DU?$char_traits@D@std@@@0@AAV10@PBD@Z 0040c250 f i CommandLineUI.obj
 0001:0000b720       ??0sentry@?$basic_ostream@DU?$char_traits@D@std@@@std@@QAE@AAV12@@Z 0040c720 f i CommandLineUI.obj
 0001:0000b840       ??1sentry@?$basic_ostream@DU?$char_traits@D@std@@@std@@QAE@XZ 0040c840 f i CommandLineUI.obj
 0001:0000b8f0       ??Bsentry@?$basic_ostream@DU?$char_traits@D@std@@@std@@QBEPQ_Bool_struct@2@HXZ 0040c8f0 f i CommandLineUI.obj
 0001:0000b930       ??0_Sentry_base@?$basic_ostream@DU?$char_traits@D@std@@@std@@QAE@AAV12@@Z 0040c930 f i CommandLineUI.obj
 0001:0000b9e0       ??1_Sentry_base@?$basic_ostream@DU?$char_traits@D@std@@@std@@QAE@XZ 0040c9e0 f i CommandLineUI.obj
 0001:0000ba80       ??$?6DU?$char_traits@D@std@@V?$allocator@D@1@@std@@YAAAV?$basic_ostream@DU?$char_traits@D@std@@@0@AAV10@ABV?$basic_string@DU?$char_traits@D@std@@V?$allocator@D@2@@0@@Z 0040ca80 f i CommandLineUI.obj
 0001:0000bf00       ?c_str@?$basic_string@DU?$char_traits@D@std@@V?$allocator@D@2@@std@@QBEPBDXZ 0040cf00 f i CommandLineUI.obj
 0001:0000bf40       ?makeRasterFont@@YAXXZ     0040cf40 f   debuggingView.obj
 0001:0000c0a0       ?printString@@YAXPAD@Z     0040d0a0 f   debuggingView.obj
 0001:0000c150       ??0DebuggingView@@QAE@HHHHPAD@Z 0040d150 f   debuggingView.obj
 0001:0000c2f0       ??0Fl_Gl_Window@@QAE@HHHHPBD@Z 0040d2f0 f i debuggingView.obj
 0001:0000c3a0       ??_GFl_Gl_Window@@UAEPAXI@Z 0040d3a0 f i debuggingView.obj
 0001:0000c3a0       ??_EFl_Gl_Window@@UAEPAXI@Z 0040d3a0 f i debuggingView.obj
 0001:0000c400       ??_EDebuggingView@@UAEPAXI@Z 0040d400 f i debuggingView.obj
 0001:0000c400       ??_GDebuggingView@@UAEPAXI@Z 0040d400 f i debuggingView.obj
 0001:0000c460       ??1DebuggingView@@UAE@XZ   0040d460 f   debuggingView.obj
 0001:0000c4d0       ?handle@DebuggingView@@UAEHH@Z 0040d4d0 f   debuggingView.obj
 0001:0000c640       ?h@Fl_Widget@@QBEHXZ       0040d640 f i debuggingView.obj
 0001:0000c680       ?event_x@Fl@@SAHXZ         0040d680 f i debuggingView.obj
 0001:0000c6b0       ?event_y@Fl@@SAHXZ         0040d6b0 f i debuggingView.obj
 0001:0000c6e0       ?event_button@Fl@@SAHXZ    0040d6e0 f i debuggingView.obj
 0001:0000c710       ?event_state@Fl@@SAHXZ     0040d710 f i debuggingView.obj
 0001:0000c740       ?resetCamera@DebuggingView@@QAEXXZ 0040d740 f   debuggingView.obj
 0001:0000c990       ?setDolly@ModelerCamera@@QAEXM@Z 0040d990 f i debuggingView.obj
 0001:0000c9d0       ?getScene@RayTracer@@QAEABVScene@@XZ 0040d9d0 f i debuggingView.obj
 0001:0000ca00       ?getEye@Camera@@QBEABV?$Vec3@N@@XZ 0040da00 f i debuggingView.obj
 0001:0000ca30       ?getLook@Camera@@QBEABV?$Vec3@N@@XZ 0040da30 f i debuggingView.obj
 0001:0000ca60       ?getCamera@Scene@@QBEABVCamera@@XZ 0040da60 f i debuggingView.obj
 0001:0000caa0       ?bounds@Scene@@QBEABVBoundingBox@@XZ 0040daa0 f i debuggingView.obj
 0001:0000cae0       ?checkGLError@@YAXXZ       0040dae0 f   debuggingView.obj
 0001:0000cb60       ?draw@DebuggingView@@UAEXXZ 0040db60 f   debuggingView.obj
 0001:0000cfa0       ?w@Fl_Widget@@QBEHXZ       0040dfa0 f i debuggingView.obj
 0001:0000cfe0       ?valid@Fl_Gl_Window@@QBEDXZ 0040dfe0 f i debuggingView.obj
 0001:0000d020       ?getU@Camera@@QBEABV?$Vec3@N@@XZ 0040e020 f i debuggingView.obj
 0001:0000d060       ?getV@Camera@@QBEABV?$Vec3@N@@XZ 0040e060 f i debuggingView.obj
 0001:0000d0a0       ?setRayTracer@DebuggingView@@QAEXPAVRayTracer@@@Z 0040e0a0 f   debuggingView.obj
 0001:0000d0e0       ?drawAxes@DebuggingView@@QAEXXZ 0040e0e0 f   debuggingView.obj
 0001:0000d3c0       ?lightScene@DebuggingView@@QAEXXZ 0040e3c0 f   debuggingView.obj
 0001:0000da10       ?beginLights@Scene@@QBE?AV?$_Vector_const_iterator@V?$_Vector_val@PAVLight@@V?$allocator@PAVLight@@@std@@@std@@@std@@XZ 0040ea10 f i debuggingView.obj
 0001:0000da80       ?endLights@Scene@@QBE?AV?$_Vector_const_iterator@V?$_Vector_val@PAVLight@@V?$allocator@PAVLight@@@std@@@std@@@std@@XZ 0040ea80 f i debuggingView.obj
 0001:0000daf0       ?ambient@Scene@@QBE?AV?$Vec3@N@@XZ 0040eaf0 f i debuggingView.obj
 0001:0000db40       ??1?$_Vector_const_iterator@V?$_Vector_val@PAVLight@@V?$allocator@PAVLight@@@std@@@std@@@std@@QAE@XZ 0040eb40 f i debuggingView.obj
 0001:0000db80       ??1?$_Iterator012@Urandom_access_iterator_tag@std@@PAVLight@@HPBQAV3@ABQAV3@U_Iterator_base12@2@@std@@QAE@XZ 0040eb80 f i debuggingView.obj
 0001:0000dbc0       ??1?$_Vector_iterator@V?$_Vector_val@IV?$allocator@I@std@@@std@@@std@@QAE@XZ 0040ebc0 f i debuggingView.obj
 0001:0000dc00       ??0?$_Vector_const_iterator@V?$_Vector_val@IV?$allocator@I@std@@@std@@@std@@QAE@ABV01@@Z 0040ec00 f i debuggingView.obj
 0001:0000dc60       ??1?$_Vector_const_iterator@V?$_Vector_val@IV?$allocator@I@std@@@std@@@std@@QAE@XZ 0040ec60 f i debuggingView.obj
 0001:0000dca0       ??0?$_Iterator012@Urandom_access_iterator_tag@std@@IHPBIABIU_Iterator_base12@2@@std@@QAE@ABU01@@Z 0040eca0 f i debuggingView.obj
 0001:0000dcf0       ??1?$_Iterator012@Urandom_access_iterator_tag@std@@IHPBIABIU_Iterator_base12@2@@std@@QAE@XZ 0040ecf0 f i debuggingView.obj
 0001:0000dd30       ?drawLights@DebuggingView@@QAEXXZ 0040ed30 f   debuggingView.obj
 0001:0000de90       ?drawScene@DebuggingView@@QAEXXZ 0040ee90 f   debuggingView.obj
 0001:0000e0f0       ?drawRays@DebuggingView@@QAEXXZ 0040f0f0 f   debuggingView.obj
 0001:0000e640       ?getPosition@ray@@QBE?AV?$Vec3@N@@XZ 0040f640 f i debuggingView.obj
 0001:0000e690       ?getDirection@ray@@QBE?AV?$Vec3@N@@XZ 0040f690 f i debuggingView.obj
 0001:0000e6e0       ?type@ray@@QBE?AW4RayType@1@XZ 0040f6e0 f i debuggingView.obj
 0001:0000e710       ?drawCamera@DebuggingView@@QAEXXZ 0040f710 f   debuggingView.obj
 0001:0000f290       ?isReady@RayTracer@@QBE_NXZ 00410290 f i debuggingView.obj
 0001:0000f2c0       ??A?$Vec3@N@@QBENH@Z       004102c0 f i debuggingView.obj
 0001:0000f300       ??G?$Vec3@N@@QBE?AV0@ABV0@@Z 00410300 f i debuggingView.obj
 0001:0000f380       ??H?$Vec3@N@@QBE?AV0@ABV0@@Z 00410380 f i debuggingView.obj
 0001:0000f400       ?getPointer@?$Vec3@N@@QBEPBNXZ 00410400 f i debuggingView.obj
 0001:0000f430       ?normalize@?$Vec3@N@@QAEXXZ 00410430 f i debuggingView.obj
 0001:0000f4d0       ?begin@?$vector@PAVLight@@V?$allocator@PAVLight@@@std@@@std@@QBE?AV?$_Vector_const_iterator@V?$_Vector_val@PAVLight@@V?$allocator@PAVLight@@@std@@@std@@@2@XZ 004104d0 f i debuggingView.obj
 0001:0000f540       ?end@?$vector@PAVLight@@V?$allocator@PAVLight@@@std@@@std@@QBE?AV?$_Vector_const_iterator@V?$_Vector_val@PAVLight@@V?$allocator@PAVLight@@@std@@@std@@@2@XZ 00410540 f i debuggingView.obj
 0001:0000f5b0       ??D?$_Vector_const_iterator@V?$_Vector_val@PAVLight@@V?$allocator@PAVLight@@@std@@@std@@@std@@QBEABQAVLight@@XZ 004105b0 f i debuggingView.obj
 0001:0000f6b0       ??E?$_Vector_const_iterator@V?$_Vector_val@PAVLight@@V?$allocator@PAVLight@@@std@@@std@@@std@@QAEAAV01@XZ 004106b0 f i debuggingView.obj
 0001:0000f7a0       ??9?$_Vector_const_iterator@V?$_Vector_val@PAVLight@@V?$allocator@PAVLight@@@std@@@std@@@std@@QBE_NABV01@@Z 004107a0 f i debuggingView.obj
 0001:0000f7f0       ??0?$vector@IV?$allocator@I@std@@@std@@QAE@XZ 004107f0 f i debuggingView.obj
 0001:0000f840       ?push_back@?$vector@IV?$allocator@I@std@@@std@@QAEX$$QAI@Z 00410840 f i debuggingView.obj
 0001:0000f980       ??1?$vector@IV?$allocator@I@std@@@std@@QAE@XZ 00410980 f i debuggingView.obj
 0001:0000fa00       ?begin@?$vector@IV?$allocator@I@std@@@std@@QAE?AV?$_Vector_iterator@V?$_Vector_val@IV?$allocator@I@std@@@std@@@2@XZ 00410a00 f i debuggingView.obj
 0001:0000fa70       ?end@?$vector@IV?$allocator@I@std@@@std@@QAE?AV?$_Vector_iterator@V?$_Vector_val@IV?$allocator@I@std@@@std@@@2@XZ 00410a70 f i debuggingView.obj
 0001:0000fae0       ?empty@?$vector@IV?$allocator@I@std@@@std@@QBE_NXZ 00410ae0 f i debuggingView.obj
 0001:0000fb20       ??D?$_Vector_const_iterator@V?$_Vector_val@IV?$allocator@I@std@@@std@@@std@@QBEABIXZ 00410b20 f i debuggingView.obj
 0001:0000fc20       ??E?$_Vector_const_iterator@V?$_Vector_val@IV?$allocator@I@std@@@std@@@std@@QAEAAV01@XZ 00410c20 f i debuggingView.obj
 0001:0000fd10       ??8?$_Vector_const_iterator@V?$_Vector_val@IV?$allocator@I@std@@@std@@@std@@QBE_NABV01@@Z 00410d10 f i debuggingView.obj
 0001:0000fd70       ??9?$_Vector_const_iterator@V?$_Vector_val@IV?$allocator@I@std@@@std@@@std@@QBE_NABV01@@Z 00410d70 f i debuggingView.obj
 0001:0000fdc0       ??C?$_Vector_const_iterator@V?$_Vector_val@U?$pair@Vray@@Visect@@@std@@V?$allocator@U?$pair@Vray@@Visect@@@std@@@2@@std@@@std@@QBEPBU?$pair@Vray@@Visect@@@1@XZ 00410dc0 f i debuggingView.obj
 0001:0000fe00       ??E?$_Vector_const_iterator@V?$_Vector_val@U?$pair@Vray@@Visect@@@std@@V?$allocator@U?$pair@Vray@@Visect@@@std@@@2@@std@@@std@@QAEAAV01@XZ 00410e00 f i debuggingView.obj
 0001:0000fef0       ?length@?$Vec3@N@@QBENXZ   00410ef0 f i debuggingView.obj
 0001:0000ff40       ??0?$_Vector_const_iterator@V?$_Vector_val@PAVLight@@V?$allocator@PAVLight@@@std@@@std@@@std@@QAE@PAPAVLight@@PBU_Container_base12@1@@Z 00410f40 f i debuggingView.obj
 0001:0000ffe0       ??8?$_Vector_const_iterator@V?$_Vector_val@PAVLight@@V?$allocator@PAVLight@@@std@@@std@@@std@@QBE_NABV01@@Z 00410fe0 f i debuggingView.obj
 0001:00010040       ?_Inside@?$vector@IV?$allocator@I@std@@@std@@IBE_NPBI@Z 00411040 f i debuggingView.obj
 0001:000100a0       ?_Reserve@?$vector@IV?$allocator@I@std@@@std@@IAEXI@Z 004110a0 f i debuggingView.obj
 0001:00010130       ?_Tidy@?$vector@IV?$allocator@I@std@@@std@@IAEXXZ 00411130 f i debuggingView.obj
 0001:000101e0       ?_Orphan_range@?$vector@IV?$allocator@I@std@@@std@@IBEXPAI0@Z 004111e0 f i debuggingView.obj
 0001:00010310       ??0?$_Vector_val@IV?$allocator@I@std@@@std@@QAE@V?$allocator@I@1@@Z 00411310 f i debuggingView.obj
 0001:00010440       ??1?$_Vector_val@IV?$allocator@I@std@@@std@@QAE@XZ 00411440 f i debuggingView.obj
 0001:00010540       ??0?$allocator@I@std@@QAE@XZ 00411540 f i debuggingView.obj
 0001:00010570       ?_Compat@?$_Vector_const_iterator@V?$_Vector_val@IV?$allocator@I@std@@@std@@@std@@QBEXABV12@@Z 00411570 f i debuggingView.obj
 0001:00010650       ??0?$_Vector_iterator@V?$_Vector_val@IV?$allocator@I@std@@@std@@@std@@QAE@PAIPBU_Container_base12@1@@Z 00411650 f i debuggingView.obj
 0001:000106a0       ??D?$_Vector_const_iterator@V?$_Vector_val@U?$pair@Vray@@Visect@@@std@@V?$allocator@U?$pair@Vray@@Visect@@@std@@@2@@std@@@std@@QBEABU?$pair@Vray@@Visect@@@1@XZ 004116a0 f i debuggingView.obj
 0001:000107a0       ??0?$_Iterator012@Urandom_access_iterator_tag@std@@PAVLight@@HPBQAV3@ABQAV3@U_Iterator_base12@2@@std@@QAE@XZ 004117a0 f i debuggingView.obj
 0001:000107f0       ?length2@?$Vec3@N@@QBENXZ  004117f0 f i debuggingView.obj
 0001:00010840       ?_Compat@?$_Vector_const_iterator@V?$_Vector_val@PAVLight@@V?$allocator@PAVLight@@@std@@@std@@@std@@QBEXABV12@@Z 00411840 f i debuggingView.obj
 0001:00010920       ?reserve@?$vector@IV?$allocator@I@std@@@std@@QAEXI@Z 00411920 f i debuggingView.obj
 0001:00010aa0       ?capacity@?$vector@IV?$allocator@I@std@@@std@@QBEIXZ 00411aa0 f i debuggingView.obj
 0001:00010ae0       ?size@?$vector@IV?$allocator@I@std@@@std@@QBEIXZ 00411ae0 f i debuggingView.obj
 0001:00010b20       ?max_size@?$vector@IV?$allocator@I@std@@@std@@QBEIXZ 00411b20 f i debuggingView.obj
 0001:00010b70       ?_Destroy@?$vector@IV?$allocator@I@std@@@std@@IAEXPAI0@Z 00411b70 f i debuggingView.obj
 0001:00010bc0       ?_Grow_to@?$vector@IV?$allocator@I@std@@@std@@IBEII@Z 00411bc0 f i debuggingView.obj
 0001:00010c50       ?_Xlen@?$vector@IV?$allocator@I@std@@@std@@IBEXXZ 00411c50 f i debuggingView.obj
 0001:00010ca0       ??0?$allocator@I@std@@QAE@ABV01@@Z 00411ca0 f i debuggingView.obj
 0001:00010cd0       ?deallocate@?$allocator@I@std@@QAEXPAII@Z 00411cd0 f i debuggingView.obj
 0001:00010d20       ??0?$_Vector_const_iterator@V?$_Vector_val@IV?$allocator@I@std@@@std@@@std@@QAE@PAIPBU_Container_base12@1@@Z 00411d20 f i debuggingView.obj
 0001:00010dc0       ??0?$_Iterator012@Urandom_access_iterator_tag@std@@IHPBIABIU_Iterator_base12@2@@std@@QAE@XZ 00411dc0 f i debuggingView.obj
 0001:00010e10       ?allocate@?$allocator@I@std@@QAEPAII@Z 00411e10 f i debuggingView.obj
 0001:00010e60       ?max_size@?$allocator@I@std@@QBEIXZ 00411e60 f i debuggingView.obj
 0001:00010ec0       ??$?DN@@YA?AV?$Vec3@N@@NABV0@@Z 00411ec0 f i debuggingView.obj
 0001:00010f10       ??$maximum@N@@YA?AV?$Vec3@N@@ABV0@0@Z 00411f10 f i debuggingView.obj
 0001:00011000       ??$?TN@@YA?AV?$Vec3@N@@ABV0@0@Z 00412000 f i debuggingView.obj
 0001:000110a0       ??$addressof@I@std@@YAPAIAAI@Z 004120a0 f i debuggingView.obj
 0001:000110d0       ??$forward@I@std@@YA$$QAIAAI@Z 004120d0 f i debuggingView.obj
 0001:00011100       ??$_Cons_val@V?$allocator@I@std@@II@std@@YAXAAV?$allocator@I@0@PAI$$QAI@Z 00412100 f i debuggingView.obj
 0001:00011150       ??$?0I@?$allocator@U_Container_proxy@std@@@std@@QAE@ABV?$allocator@I@1@@Z 00412150 f i debuggingView.obj
 0001:00011180       ??$_Umove@PAI@?$vector@IV?$allocator@I@std@@@std@@IAEPAIPAI00@Z 00412180 f i debuggingView.obj
 0001:000111e0       ??$_Destroy_range@V?$allocator@I@std@@@std@@YAXPAI0AAV?$allocator@I@0@@Z 004121e0 f i debuggingView.obj
 0001:00011250       ??$_Allocate@I@std@@YAPAIIPAI@Z 00412250 f i debuggingView.obj
 0001:000112e0       ?construct@?$allocator@I@std@@QAEXPAI$$QAI@Z 004122e0 f i debuggingView.obj
 0001:000113b0       ??$?DN@@YA?AV?$Vec3@N@@ABV0@N@Z 004123b0 f i debuggingView.obj
 0001:00011420       ??$_Uninitialized_move@PAIPAIV?$allocator@I@std@@@std@@YAPAIPAI00AAV?$allocator@I@0@@Z 00412420 f i debuggingView.obj
 0001:000114a0       ??$_Ptr_cat@II@std@@YA?AU_Scalar_ptr_iterator_tag@0@PAI0@Z 004124a0 f i debuggingView.obj
 0001:00011500       ??$_Destroy_range@V?$allocator@I@std@@@std@@YAXPAI0AAV?$allocator@I@0@U_Scalar_ptr_iterator_tag@0@@Z 00412500 f i debuggingView.obj
 0001:00011530       ??$_Val_type@PAI@std@@YAPAIPAI@Z 00412530 f i debuggingView.obj
 0001:00011560       ??$_Uninit_move@III@std@@YAPAIPAI00AAV?$allocator@I@0@0U_Scalar_ptr_iterator_tag@0@@Z 00412560 f i debuggingView.obj
 0001:00011600       ??$_Debug_range@PAI@std@@YAXPAI0PB_WI@Z 00412600 f i debuggingView.obj
 0001:00011670       ??$_Debug_pointer@I@std@@YAXPAIPB_WI@Z 00412670 f i debuggingView.obj
 0001:000116d0       ??$_Iter_cat@PAI@std@@YA?AUrandom_access_iterator_tag@0@ABQAI@Z 004126d0 f i debuggingView.obj
 0001:00011730       ??$_Debug_range2@PAI@std@@YAXPAI0PB_WIUrandom_access_iterator_tag@0@@Z 00412730 f i debuggingView.obj
 0001:000117c0       ?cb_Normal@DebuggingWindow@@CAXPAVFl_Menu_@@PAX@Z 004127c0 f   debuggingWindow.obj
 0001:00011810       ?parent@Fl_Widget@@QBEPAVFl_Group@@XZ 00412810 f i debuggingWindow.obj
 0001:00011840       ?user_data@Fl_Widget@@QBEPAXXZ 00412840 f i debuggingWindow.obj
 0001:00011870       ?cb_Normal_i@DebuggingWindow@@AAEXPAVFl_Menu_@@PAX@Z 00412870 f i debuggingWindow.obj
 0001:000118c0       ?setShadingMode@DebuggingView@@QAEXW4ShadingMode@1@@Z 004128c0 f i debuggingWindow.obj
 0001:00011900       ?cb_Flat@DebuggingWindow@@CAXPAVFl_Menu_@@PAX@Z 00412900 f   debuggingWindow.obj
 0001:00011950       ?cb_Flat_i@DebuggingWindow@@AAEXPAVFl_Menu_@@PAX@Z 00412950 f i debuggingWindow.obj
 0001:000119a0       ?cb_Wireframe@DebuggingWindow@@CAXPAVFl_Menu_@@PAX@Z 004129a0 f   debuggingWindow.obj
 0001:000119f0       ?cb_Wireframe_i@DebuggingWindow@@AAEXPAVFl_Menu_@@PAX@Z 004129f0 f i debuggingWindow.obj
 0001:00011a40       ?cb_High@DebuggingWindow@@CAXPAVFl_Menu_@@PAX@Z 00412a40 f   debuggingWindow.obj
 0001:00011a90       ?cb_High_i@DebuggingWindow@@AAEXPAVFl_Menu_@@PAX@Z 00412a90 f i debuggingWindow.obj
 0001:00011ae0       ?setQuality@DebuggingView@@QAEXW4Quality@1@@Z 00412ae0 f i debuggingWindow.obj
 0001:00011b20       ?cb_Medium@DebuggingWindow@@CAXPAVFl_Menu_@@PAX@Z 00412b20 f   debuggingWindow.obj
 0001:00011b70       ?cb_Medium_i@DebuggingWindow@@AAEXPAVFl_Menu_@@PAX@Z 00412b70 f i debuggingWindow.obj
 0001:00011bc0       ?cb_Low@DebuggingWindow@@CAXPAVFl_Menu_@@PAX@Z 00412bc0 f   debuggingWindow.obj
 0001:00011c10       ?cb_Low_i@DebuggingWindow@@AAEXPAVFl_Menu_@@PAX@Z 00412c10 f i debuggingWindow.obj
 0001:00011c60       ?cb_Poor@DebuggingWindow@@CAXPAVFl_Menu_@@PAX@Z 00412c60 f   debuggingWindow.obj
 0001:00011cb0       ?cb_Poor_i@DebuggingWindow@@AAEXPAVFl_Menu_@@PAX@Z 00412cb0 f i debuggingWindow.obj
 0001:00011d00       ?cb_Default@DebuggingWindow@@CAXPAVFl_Menu_@@PAX@Z 00412d00 f   debuggingWindow.obj
 0001:00011d50       ?cb_Default_i@DebuggingWindow@@AAEXPAVFl_Menu_@@PAX@Z 00412d50 f i debuggingWindow.obj
 0001:00011da0       ?setLighting@DebuggingView@@QAEXW4LightingMode@1@@Z 00412da0 f i debuggingWindow.obj
 0001:00011de0       ?cb_Scene@DebuggingWindow@@CAXPAVFl_Menu_@@PAX@Z 00412de0 f   debuggingWindow.obj
 0001:00011e30       ?cb_Scene_i@DebuggingWindow@@AAEXPAVFl_Menu_@@PAX@Z 00412e30 f i debuggingWindow.obj
 0001:00011e80       ?cb_Use@DebuggingWindow@@CAXPAVFl_Menu_@@PAX@Z 00412e80 f   debuggingWindow.obj
 0001:00011ed0       ?cb_Use_i@DebuggingWindow@@AAEXPAVFl_Menu_@@PAX@Z 00412ed0 f i debuggingWindow.obj
 0001:00011f40       ?value@Fl_Menu_Item@@QBEHXZ 00412f40 f i debuggingWindow.obj
 0001:00011f80       ?menu@Fl_Menu_@@QBEPBUFl_Menu_Item@@XZ 00412f80 f i debuggingWindow.obj
 0001:00011fb0       ?setUseSceneMaterials@DebuggingView@@QAEX_N@Z 00412fb0 f i debuggingWindow.obj
 0001:00011ff0       ?cb_Geometry@DebuggingWindow@@CAXPAVFl_Menu_@@PAX@Z 00412ff0 f   debuggingWindow.obj
 0001:00012040       ?cb_Geometry_i@DebuggingWindow@@AAEXPAVFl_Menu_@@PAX@Z 00413040 f i debuggingWindow.obj
 0001:000120b0       ?setShowGeometry@DebuggingView@@QAEX_N@Z 004130b0 f i debuggingWindow.obj
 0001:000120f0       ?cb_Lights@DebuggingWindow@@CAXPAVFl_Menu_@@PAX@Z 004130f0 f   debuggingWindow.obj
 0001:00012140       ?cb_Lights_i@DebuggingWindow@@AAEXPAVFl_Menu_@@PAX@Z 00413140 f i debuggingWindow.obj
 0001:000121b0       ?setShowLights@DebuggingView@@QAEX_N@Z 004131b0 f i debuggingWindow.obj
 0001:000121f0       ?cb_Camera@DebuggingWindow@@CAXPAVFl_Menu_@@PAX@Z 004131f0 f   debuggingWindow.obj
 0001:00012240       ?cb_Camera_i@DebuggingWindow@@AAEXPAVFl_Menu_@@PAX@Z 00413240 f i debuggingWindow.obj
 0001:000122b0       ?setShowCamera@DebuggingView@@QAEX_N@Z 004132b0 f i debuggingWindow.obj
 0001:000122f0       ?cb_Axes@DebuggingWindow@@CAXPAVFl_Menu_@@PAX@Z 004132f0 f   debuggingWindow.obj
 0001:00012340       ?cb_Axes_i@DebuggingWindow@@AAEXPAVFl_Menu_@@PAX@Z 00413340 f i debuggingWindow.obj
 0001:000123b0       ?setShowAxes@DebuggingView@@QAEX_N@Z 004133b0 f i debuggingWindow.obj
 0001:000123f0       ?cb_Normals@DebuggingWindow@@CAXPAVFl_Menu_@@PAX@Z 004133f0 f   debuggingWindow.obj
 0001:00012440       ?cb_Normals_i@DebuggingWindow@@AAEXPAVFl_Menu_@@PAX@Z 00413440 f i debuggingWindow.obj
 0001:000124b0       ?setShowNormals@DebuggingView@@QAEX_N@Z 004134b0 f i debuggingWindow.obj
 0001:000124f0       ?cb_Visibility@DebuggingWindow@@CAXPAVFl_Menu_@@PAX@Z 004134f0 f   debuggingWindow.obj
 0001:00012540       ?cb_Visibility_i@DebuggingWindow@@AAEXPAVFl_Menu_@@PAX@Z 00413540 f i debuggingWindow.obj
 0001:000125b0       ?setShowVisibilityRays@DebuggingView@@QAEX_N@Z 004135b0 f i debuggingWindow.obj
 0001:000125f0       ?cb_Reflection@DebuggingWindow@@CAXPAVFl_Menu_@@PAX@Z 004135f0 f   debuggingWindow.obj
 0001:00012640       ?cb_Reflection_i@DebuggingWindow@@AAEXPAVFl_Menu_@@PAX@Z 00413640 f i debuggingWindow.obj
 0001:000126b0       ?setShowReflectionRays@DebuggingView@@QAEX_N@Z 004136b0 f i debuggingWindow.obj
 0001:000126f0       ?cb_Refraction@DebuggingWindow@@CAXPAVFl_Menu_@@PAX@Z 004136f0 f   debuggingWindow.obj
 0001:00012740       ?cb_Refraction_i@DebuggingWindow@@AAEXPAVFl_Menu_@@PAX@Z 00413740 f i debuggingWindow.obj
 0001:000127b0       ?setShowRefractionRays@DebuggingView@@QAEX_N@Z 004137b0 f i debuggingWindow.obj
 0001:000127f0       ?cb_Shadow@DebuggingWindow@@CAXPAVFl_Menu_@@PAX@Z 004137f0 f   debuggingWindow.obj
 0001:00012840       ?cb_Shadow_i@DebuggingWindow@@AAEXPAVFl_Menu_@@PAX@Z 00413840 f i debuggingWindow.obj
 0001:000128b0       ?setShowShadowRays@DebuggingView@@QAEX_N@Z 004138b0 f i debuggingWindow.obj
 0001:000128f0       ??0DebuggingWindow@@QAE@XZ 004138f0 f   debuggingWindow.obj
 0001:00012b00       ?box@Fl_Widget@@QAEXW4Fl_Boxtype@@@Z 00413b00 f i debuggingWindow.obj
 0001:00012b40       ?user_data@Fl_Widget@@QAEXPAX@Z 00413b40 f i debuggingWindow.obj
 0001:00012b80       ?resizable@Fl_Group@@QAEXPAVFl_Widget@@@Z 00413b80 f i debuggingWindow.obj
 0001:00012bc0       ??0Fl_Menu_Bar@@QAE@HHHHPBD@Z 00413bc0 f i debuggingWindow.obj
 0001:00012c30       ??_GFl_Menu_Bar@@UAEPAXI@Z 00413c30 f i debuggingWindow.obj
 0001:00012c30       ??_EFl_Menu_Bar@@UAEPAXI@Z 00413c30 f i debuggingWindow.obj
 0001:00012c90       ??1Fl_Menu_Bar@@UAE@XZ     00413c90 f i debuggingWindow.obj
 0001:00012cd0       ?show@DebuggingWindow@@QAEXXZ 00413cd0 f   debuggingWindow.obj
 0001:00012d50       ?hide@DebuggingWindow@@QAEXXZ 00413d50 f   debuggingWindow.obj
 0001:00012dd0       ?redraw@DebuggingWindow@@QAEXXZ 00413dd0 f   debuggingWindow.obj
 0001:00012e20       ?glDraw@Scene@@QBEXH_N0@Z  00413e20 f   glObjects.obj
 0001:00012f80       ??1?$_Vector_const_iterator@V?$_Vector_val@PAVGeometry@@V?$allocator@PAVGeometry@@@std@@@std@@@std@@QAE@XZ 00413f80 f i glObjects.obj
 0001:00012fc0       ??1?$_Iterator012@Urandom_access_iterator_tag@std@@PAVGeometry@@HPBQAV3@ABQAV3@U_Iterator_base12@2@@std@@QAE@XZ 00413fc0 f i glObjects.obj
 0001:00013000       ?glDraw@Geometry@@UBEXH_N0@Z 00414000 f   glObjects.obj
 0001:000130f0       ?transform@TransformNode@@QBEABV?$Mat4@N@@XZ 004140f0 f i glObjects.obj
 0001:00013120       ?setMaterialProperty@@YAXIV?$Vec3@N@@@Z 00414120 f   glObjects.obj
 0001:000131e0       ?setGLMaterial@@YAXABVMaterial@@PBVSceneObject@@@Z 004141e0 f   glObjects.obj
 0001:00013370       ?ke@Material@@QBE?AV?$Vec3@N@@ABVisect@@@Z 00414370 f i glObjects.obj
 0001:000133c0       ?ka@Material@@QBE?AV?$Vec3@N@@ABVisect@@@Z 004143c0 f i glObjects.obj
 0001:00013410       ?ks@Material@@QBE?AV?$Vec3@N@@ABVisect@@@Z 00414410 f i glObjects.obj
 0001:00013460       ?kd@Material@@QBE?AV?$Vec3@N@@ABVisect@@@Z 00414460 f i glObjects.obj
 0001:000134b0       ?shininess@Material@@QBENABVisect@@@Z 004144b0 f i glObjects.obj
 0001:00013540       ?mapped@MaterialParameter@@QBE_NXZ 00414540 f i glObjects.obj
 0001:00013580       ?setObject@isect@@QAEXPBVSceneObject@@@Z 00414580 f i glObjects.obj
 0001:000135c0       ?glDraw@SceneObject@@UBEXH_N0@Z 004145c0 f   glObjects.obj
 0001:000136e0       ?glDrawLocal@Sphere@@MBEXH_N0@Z 004146e0 f   glObjects.obj
 0001:00013940       ??1?$map@HIU?$less@H@std@@V?$allocator@U?$pair@$$CBHI@std@@@2@@std@@QAE@XZ 00414940 f i glObjects.obj
 0001:00013980       ??1?$_Tree_iterator@V?$_Tree_val@V?$_Tmap_traits@HIU?$less@H@std@@V?$allocator@U?$pair@$$CBHI@std@@@2@$0A@@std@@@std@@@std@@QAE@XZ 00414980 f i glObjects.obj
 0001:000139c0       ??1?$pair@V?$_Tree_iterator@V?$_Tree_val@V?$_Tmap_traits@HIU?$less@H@std@@V?$allocator@U?$pair@$$CBHI@std@@@2@$0A@@std@@@std@@@std@@_N@std@@QAE@XZ 004149c0 f i glObjects.obj
 0001:00013a00       ??4?$_Tree_iterator@V?$_Tree_val@V?$_Tmap_traits@HIU?$less@H@std@@V?$allocator@U?$pair@$$CBHI@std@@@2@$0A@@std@@@std@@@std@@QAEAAV01@ABV01@@Z 00414a00 f i glObjects.obj
 0001:00013a50       ??1?$_Tree_const_iterator@V?$_Tree_val@V?$_Tmap_traits@HIU?$less@H@std@@V?$allocator@U?$pair@$$CBHI@std@@@2@$0A@@std@@@std@@@std@@QAE@XZ 00414a50 f i glObjects.obj
 0001:00013a90       ??1?$_Pair_base@V?$_Tree_iterator@V?$_Tree_val@V?$_Tmap_traits@HIU?$less@H@std@@V?$allocator@U?$pair@$$CBHI@std@@@2@$0A@@std@@@std@@@std@@_N@std@@QAE@XZ 00414a90 f i glObjects.obj
 0001:00013ad0       ??4?$_Tree_const_iterator@V?$_Tree_val@V?$_Tmap_traits@HIU?$less@H@std@@V?$allocator@U?$pair@$$CBHI@std@@@2@$0A@@std@@@std@@@std@@QAEAAV01@ABV01@@Z 00414ad0 f i glObjects.obj
 0001:00013b20       ??1?$_Tree_unchecked_const_iterator@V?$_Tree_val@V?$_Tmap_traits@HIU?$less@H@std@@V?$allocator@U?$pair@$$CBHI@std@@@2@$0A@@std@@@std@@U_Iterator_base12@2@@std@@QAE@XZ 00414b20 f i glObjects.obj
 0001:00013b60       ??4?$_Tree_unchecked_const_iterator@V?$_Tree_val@V?$_Tmap_traits@HIU?$less@H@std@@V?$allocator@U?$pair@$$CBHI@std@@@2@$0A@@std@@@std@@U_Iterator_base12@2@@std@@QAEAAV01@ABV01@@Z 00414b60 f i glObjects.obj
 0001:00013bc0       ??1?$_Iterator012@Ubidirectional_iterator_tag@std@@U?$pair@$$CBHI@2@HPBU32@ABU32@U_Iterator_base12@2@@std@@QAE@XZ 00414bc0 f i glObjects.obj
 0001:00013c00       ??4?$_Iterator012@Ubidirectional_iterator_tag@std@@U?$pair@$$CBHI@2@HPBU32@ABU32@U_Iterator_base12@2@@std@@QAEAAU01@ABU01@@Z 00414c00 f i glObjects.obj
 0001:00013c50       ?drawTesselatedSquare@@YAXH@Z 00414c50 f   glObjects.obj
 0001:00013df0       ?glDrawLocal@Box@@MBEXH_N0@Z 00414df0 f   glObjects.obj
 0001:00014300       ?glDrawLocal@Cone@@MBEXH_N0@Z 00415300 f   glObjects.obj
 0001:00014550       ?glDrawLocal@Cylinder@@MBEXH_N0@Z 00415550 f   glObjects.obj
 0001:00014930       ?glDrawLocal@Square@@MBEXH_N0@Z 00415930 f   glObjects.obj
 0001:00014b50       ?glDrawLocal@Trimesh@@MBEXH_N0@Z 00415b50 f   glObjects.obj
 0001:00015010       ??ATrimeshFace@@QBEHH@Z    00416010 f i glObjects.obj
 0001:00015050       ??1?$_Vector_const_iterator@V?$_Vector_val@PAVTrimeshFace@@V?$allocator@PAVTrimeshFace@@@std@@@std@@@std@@QAE@XZ 00416050 f i glObjects.obj
 0001:00015090       ??1?$_Iterator012@Urandom_access_iterator_tag@std@@PAVTrimeshFace@@HPBQAV3@ABQAV3@U_Iterator_base12@2@@std@@QAE@XZ 00416090 f i glObjects.obj
 0001:000150d0       ?glDraw@PointLight@@UBEXI@Z 004160d0 f   glObjects.obj
 0001:00015280       ?glDraw@PointLight@@UBEXXZ 00416280 f   glObjects.obj
 0001:000156d0       ?glDraw@DirectionalLight@@UBEXI@Z 004166d0 f   glObjects.obj
 0001:00015880       ?arrow@@YAXXZ              00416880 f   glObjects.obj
 0001:00015a20       ?glDraw@DirectionalLight@@UBEXXZ 00416a20 f   glObjects.obj
 0001:000161f0       ?iszero@?$Vec3@N@@QAE_NXZ  004171f0 f i glObjects.obj
 0001:00016270       ?transpose@?$Mat4@N@@QBE?AV1@XZ 00417270 f i glObjects.obj
 0001:00016380       ?begin@?$vector@PAVGeometry@@V?$allocator@PAVGeometry@@@std@@@std@@QBE?AV?$_Vector_const_iterator@V?$_Vector_val@PAVGeometry@@V?$allocator@PAVGeometry@@@std@@@std@@@2@XZ 00417380 f i glObjects.obj
 0001:000163f0       ?end@?$vector@PAVGeometry@@V?$allocator@PAVGeometry@@@std@@@std@@QBE?AV?$_Vector_const_iterator@V?$_Vector_val@PAVGeometry@@V?$allocator@PAVGeometry@@@std@@@std@@@2@XZ 004173f0 f i glObjects.obj
 0001:00016460       ?empty@?$vector@V?$Vec3@N@@V?$allocator@V?$Vec3@N@@@std@@@std@@QBE_NXZ 00417460 f i glObjects.obj
 0001:000164a0       ??A?$vector@V?$Vec3@N@@V?$allocator@V?$Vec3@N@@@std@@@std@@QBEABV?$Vec3@N@@I@Z 004174a0 f i glObjects.obj
 0001:00016580       ?begin@?$vector@PAVTrimeshFace@@V?$allocator@PAVTrimeshFace@@@std@@@std@@QBE?AV?$_Vector_const_iterator@V?$_Vector_val@PAVTrimeshFace@@V?$allocator@PAVTrimeshFace@@@std@@@std@@@2@XZ 00417580 f i glObjects.obj
 0001:000165f0       ?end@?$vector@PAVTrimeshFace@@V?$allocator@PAVTrimeshFace@@@std@@@std@@QBE?AV?$_Vector_const_iterator@V?$_Vector_val@PAVTrimeshFace@@V?$allocator@PAVTrimeshFace@@@std@@@std@@@2@XZ 004175f0 f i glObjects.obj
 0001:00016660       ?empty@?$vector@PAVMaterial@@V?$allocator@PAVMaterial@@@std@@@std@@QBE_NXZ 00417660 f i glObjects.obj
 0001:000166a0       ??A?$vector@PAVMaterial@@V?$allocator@PAVMaterial@@@std@@@std@@QBEABQAVMaterial@@I@Z 004176a0 f i glObjects.obj
 0001:00016780       ??D?$_Vector_const_iterator@V?$_Vector_val@PAVGeometry@@V?$allocator@PAVGeometry@@@std@@@std@@@std@@QBEABQAVGeometry@@XZ 00417780 f i glObjects.obj
 0001:00016880       ??E?$_Vector_const_iterator@V?$_Vector_val@PAVGeometry@@V?$allocator@PAVGeometry@@@std@@@std@@@std@@QAEAAV01@XZ 00417880 f i glObjects.obj
 0001:00016970       ??9?$_Vector_const_iterator@V?$_Vector_val@PAVGeometry@@V?$allocator@PAVGeometry@@@std@@@std@@@std@@QBE_NABV01@@Z 00417970 f i glObjects.obj
 0001:000169c0       ??0?$map@HIU?$less@H@std@@V?$allocator@U?$pair@$$CBHI@std@@@2@@std@@QAE@XZ 004179c0 f i glObjects.obj
 0001:00016a20       ??1?$_Tree@V?$_Tmap_traits@HIU?$less@H@std@@V?$allocator@U?$pair@$$CBHI@std@@@2@$0A@@std@@@std@@QAE@XZ 00417a20 f i glObjects.obj
 0001:00016aa0       ?end@?$_Tree@V?$_Tmap_traits@HIU?$less@H@std@@V?$allocator@U?$pair@$$CBHI@std@@@2@$0A@@std@@@std@@QAE?AV?$_Tree_iterator@V?$_Tree_val@V?$_Tmap_traits@HIU?$less@H@std@@V?$allocator@U?$pair@$$CBHI@std@@@2@$0A@@std@@@std@@@2@XZ 00417aa0 f i glObjects.obj
 0001:00016b10       ?find@?$_Tree@V?$_Tmap_traits@HIU?$less@H@std@@V?$allocator@U?$pair@$$CBHI@std@@@2@$0A@@std@@@std@@QAE?AV?$_Tree_iterator@V?$_Tree_val@V?$_Tmap_traits@HIU?$less@H@std@@V?$allocator@U?$pair@$$CBHI@std@@@2@$0A@@std@@@std@@@2@ABH@Z 00417b10 f i glObjects.obj
 0001:00016d70       ??C?$_Tree_iterator@V?$_Tree_val@V?$_Tmap_traits@HIU?$less@H@std@@V?$allocator@U?$pair@$$CBHI@std@@@2@$0A@@std@@@std@@@std@@QBEPAU?$pair@$$CBHI@1@XZ 00417d70 f i glObjects.obj
 0001:00016db0       ??8?$_Tree_const_iterator@V?$_Tree_val@V?$_Tmap_traits@HIU?$less@H@std@@V?$allocator@U?$pair@$$CBHI@std@@@2@$0A@@std@@@std@@@std@@QBE_NABV01@@Z 00417db0 f i glObjects.obj
 0001:00016eb0       ??D?$_Vector_const_iterator@V?$_Vector_val@PAVTrimeshFace@@V?$allocator@PAVTrimeshFace@@@std@@@std@@@std@@QBEABQAVTrimeshFace@@XZ 00417eb0 f i glObjects.obj
 0001:00016fb0       ??E?$_Vector_const_iterator@V?$_Vector_val@PAVTrimeshFace@@V?$allocator@PAVTrimeshFace@@@std@@@std@@@std@@QAEAAV01@XZ 00417fb0 f i glObjects.obj
 0001:000170a0       ??9?$_Vector_const_iterator@V?$_Vector_val@PAVTrimeshFace@@V?$allocator@PAVTrimeshFace@@@std@@@std@@@std@@QBE_NABV01@@Z 004180a0 f i glObjects.obj
 0001:000170f0       ??0?$_Tree_iterator@V?$_Tree_val@V?$_Tmap_traits@HIU?$less@H@std@@V?$allocator@U?$pair@$$CBHI@std@@@2@$0A@@std@@@std@@@std@@QAE@ABV01@@Z 004180f0 f i glObjects.obj
 0001:00017140       ??0?$_Tree_const_iterator@V?$_Tree_val@V?$_Tmap_traits@HIU?$less@H@std@@V?$allocator@U?$pair@$$CBHI@std@@@2@$0A@@std@@@std@@@std@@QAE@ABV01@@Z 00418140 f i glObjects.obj
 0001:00017190       ??0?$_Tree_unchecked_const_iterator@V?$_Tree_val@V?$_Tmap_traits@HIU?$less@H@std@@V?$allocator@U?$pair@$$CBHI@std@@@2@$0A@@std@@@std@@U_Iterator_base12@2@@std@@QAE@ABV01@@Z 00418190 f i glObjects.obj
 0001:000171f0       ??0?$_Iterator012@Ubidirectional_iterator_tag@std@@U?$pair@$$CBHI@2@HPBU32@ABU32@U_Iterator_base12@2@@std@@QAE@ABU01@@Z 004181f0 f i glObjects.obj
 0001:00017240       ??0?$Mat4@N@@QAE@NNNNNNNNNNNNNNNN@Z 00418240 f i glObjects.obj
 0001:00017310       ?size@?$vector@V?$Vec3@N@@V?$allocator@V?$Vec3@N@@@std@@@std@@QBEIXZ 00418310 f i glObjects.obj
 0001:00017350       ?size@?$vector@PAVMaterial@@V?$allocator@PAVMaterial@@@std@@@std@@QBEIXZ 00418350 f i glObjects.obj
 0001:00017390       ??0?$_Vector_const_iterator@V?$_Vector_val@PAVGeometry@@V?$allocator@PAVGeometry@@@std@@@std@@@std@@QAE@PAPAVGeometry@@PBU_Container_base12@1@@Z 00418390 f i glObjects.obj
 0001:00017430       ??8?$_Vector_const_iterator@V?$_Vector_val@PAVGeometry@@V?$allocator@PAVGeometry@@@std@@@std@@@std@@QBE_NABV01@@Z 00418430 f i glObjects.obj
 0001:00017490       ??0?$_Tree@V?$_Tmap_traits@HIU?$less@H@std@@V?$allocator@U?$pair@$$CBHI@std@@@2@$0A@@std@@@std@@QAE@ABU?$less@H@1@ABV?$allocator@U?$pair@$$CBHI@std@@@1@@Z 00418490 f i glObjects.obj
 0001:000174f0       ?lower_bound@?$_Tree@V?$_Tmap_traits@HIU?$less@H@std@@V?$allocator@U?$pair@$$CBHI@std@@@2@$0A@@std@@@std@@QAE?AV?$_Tree_iterator@V?$_Tree_val@V?$_Tmap_traits@HIU?$less@H@std@@V?$allocator@U?$pair@$$CBHI@std@@@2@$0A@@std@@@std@@@2@ABH@Z 004184f0 f i glObjects.obj
 0001:00017560       ?_Tidy@?$_Tree@V?$_Tmap_traits@HIU?$less@H@std@@V?$allocator@U?$pair@$$CBHI@std@@@2@$0A@@std@@@std@@IAEXXZ 00418560 f i glObjects.obj
 0001:000176a0       ??1?$_Tree_val@V?$_Tmap_traits@HIU?$less@H@std@@V?$allocator@U?$pair@$$CBHI@std@@@2@$0A@@std@@@std@@QAE@XZ 004186a0 f i glObjects.obj
 0001:00017730       ?_Key@?$_Tree_val@V?$_Tmap_traits@HIU?$less@H@std@@V?$allocator@U?$pair@$$CBHI@std@@@2@$0A@@std@@@std@@SAAAHPAU_Node@?$_Tree_nod@V?$_Tmap_traits@HIU?$less@H@std@@V?$allocator@U?$pair@$$CBHI@std@@@2@$0A@@std@@@2@@Z 00418730 f i glObjects.obj
 0001:00017780       ??0?$allocator@U?$pair@$$CBHI@std@@@std@@QAE@XZ 00418780 f i glObjects.obj
 0001:000177b0       ??0?$_Tree_iterator@V?$_Tree_val@V?$_Tmap_traits@HIU?$less@H@std@@V?$allocator@U?$pair@$$CBHI@std@@@2@$0A@@std@@@std@@@std@@QAE@PAU_Node@?$_Tree_nod@V?$_Tmap_traits@HIU?$less@H@std@@V?$allocator@U?$pair@$$CBHI@std@@@2@$0A@@std@@@1@PBV?$_Tree_val@V?$_Tmap_traits@HIU?$less@H@std@@V?$allocator@U?$pair@$$CBHI@std@@@2@$0A@@std@@@1@@Z 004187b0 f i glObjects.obj
 0001:00017800       ??D?$_Tree_iterator@V?$_Tree_val@V?$_Tmap_traits@HIU?$less@H@std@@V?$allocator@U?$pair@$$CBHI@std@@@2@$0A@@std@@@std@@@std@@QBEAAU?$pair@$$CBHI@1@XZ 00418800 f i glObjects.obj
 0001:00017840       ?_Mynode@?$_Tree_unchecked_const_iterator@V?$_Tree_val@V?$_Tmap_traits@HIU?$less@H@std@@V?$allocator@U?$pair@$$CBHI@std@@@2@$0A@@std@@@std@@U_Iterator_base12@2@@std@@QBEPAU_Node@?$_Tree_nod@V?$_Tmap_traits@HIU?$less@H@std@@V?$allocator@U?$pair@$$CBHI@std@@@2@$0A@@std@@@2@XZ 00418840 f i glObjects.obj
 0001:00017870       ??0?$_Vector_const_iterator@V?$_Vector_val@PAVTrimeshFace@@V?$allocator@PAVTrimeshFace@@@std@@@std@@@std@@QAE@PAPAVTrimeshFace@@PBU_Container_base12@1@@Z 00418870 f i glObjects.obj
 0001:00017910       ??8?$_Vector_const_iterator@V?$_Vector_val@PAVTrimeshFace@@V?$allocator@PAVTrimeshFace@@@std@@@std@@@std@@QBE_NABV01@@Z 00418910 f i glObjects.obj
 0001:00017970       ??0?$_Iterator012@Urandom_access_iterator_tag@std@@PAVGeometry@@HPBQAV3@ABQAV3@U_Iterator_base12@2@@std@@QAE@XZ 00418970 f i glObjects.obj
 0001:000179c0       ??0?$_Iterator012@Urandom_access_iterator_tag@std@@PAVTrimeshFace@@HPBQAV3@ABQAV3@U_Iterator_base12@2@@std@@QAE@XZ 004189c0 f i glObjects.obj
 0001:00017a10       ?_Compat@?$_Vector_const_iterator@V?$_Vector_val@PAVGeometry@@V?$allocator@PAVGeometry@@@std@@@std@@@std@@QBEXABV12@@Z 00418a10 f i glObjects.obj
 0001:00017af0       ?begin@?$_Tree@V?$_Tmap_traits@HIU?$less@H@std@@V?$allocator@U?$pair@$$CBHI@std@@@2@$0A@@std@@@std@@QAE?AV?$_Tree_iterator@V?$_Tree_val@V?$_Tmap_traits@HIU?$less@H@std@@V?$allocator@U?$pair@$$CBHI@std@@@2@$0A@@std@@@std@@@2@XZ 00418af0 f i glObjects.obj
 0001:00017b60       ?erase@?$_Tree@V?$_Tmap_traits@HIU?$less@H@std@@V?$allocator@U?$pair@$$CBHI@std@@@2@$0A@@std@@@std@@QAE?AV?$_Tree_iterator@V?$_Tree_val@V?$_Tmap_traits@HIU?$less@H@std@@V?$allocator@U?$pair@$$CBHI@std@@@2@$0A@@std@@@std@@@2@V?$_Tree_const_iterator@V?$_Tree_val@V?$_Tmap_traits@HIU?$less@H@std@@V?$allocator@U?$pair@$$CBHI@std@@@2@$0A@@std@@@std@@@2@0@Z 00418b60 f i glObjects.obj
 0001:00017dd0       ?_Lbound@?$_Tree@V?$_Tmap_traits@HIU?$less@H@std@@V?$allocator@U?$pair@$$CBHI@std@@@2@$0A@@std@@@std@@IAEPAU_Node@?$_Tree_nod@V?$_Tmap_traits@HIU?$less@H@std@@V?$allocator@U?$pair@$$CBHI@std@@@2@$0A@@std@@@2@ABH@Z 00418dd0 f i glObjects.obj
 0001:00017ea0       ??0?$_Tree_val@V?$_Tmap_traits@HIU?$less@H@std@@V?$allocator@U?$pair@$$CBHI@std@@@2@$0A@@std@@@std@@QAE@ABU?$less@H@1@V?$allocator@U?$pair@$$CBHI@std@@@1@@Z 00418ea0 f i glObjects.obj
 0001:00017fc0       ?_Myval@?$_Tree_val@V?$_Tmap_traits@HIU?$less@H@std@@V?$allocator@U?$pair@$$CBHI@std@@@2@$0A@@std@@@std@@SAAAU?$pair@$$CBHI@2@PAU_Node@?$_Tree_nod@V?$_Tmap_traits@HIU?$less@H@std@@V?$allocator@U?$pair@$$CBHI@std@@@2@$0A@@std@@@2@@Z 00418fc0 f i glObjects.obj
 0001:00017ff0       ??1?$_Tree_nod@V?$_Tmap_traits@HIU?$less@H@std@@V?$allocator@U?$pair@$$CBHI@std@@@2@$0A@@std@@@std@@QAE@XZ 00418ff0 f i glObjects.obj
 0001:000180f0       ??0?$allocator@U?$pair@$$CBHI@std@@@std@@QAE@ABV01@@Z 004190f0 f i glObjects.obj
 0001:00018120       ?deallocate@?$allocator@U_Node@?$_Tree_nod@V?$_Tmap_traits@HIU?$less@H@std@@V?$allocator@U?$pair@$$CBHI@std@@@2@$0A@@std@@@std@@@std@@QAEXPAU_Node@?$_Tree_nod@V?$_Tmap_traits@HIU?$less@H@std@@V?$allocator@U?$pair@$$CBHI@std@@@2@$0A@@std@@@2@I@Z 00419120 f i glObjects.obj
 0001:00018170       ??0?$_Tree_const_iterator@V?$_Tree_val@V?$_Tmap_traits@HIU?$less@H@std@@V?$allocator@U?$pair@$$CBHI@std@@@2@$0A@@std@@@std@@@std@@QAE@PAU_Node@?$_Tree_nod@V?$_Tmap_traits@HIU?$less@H@std@@V?$allocator@U?$pair@$$CBHI@std@@@2@$0A@@std@@@1@PBV?$_Tree_val@V?$_Tmap_traits@HIU?$less@H@std@@V?$allocator@U?$pair@$$CBHI@std@@@2@$0A@@std@@@1@@Z 00419170 f i glObjects.obj
 0001:000181c0       ??D?$_Tree_const_iterator@V?$_Tree_val@V?$_Tmap_traits@HIU?$less@H@std@@V?$allocator@U?$pair@$$CBHI@std@@@2@$0A@@std@@@std@@@std@@QBEABU?$pair@$$CBHI@1@XZ 004191c0 f i glObjects.obj
 0001:000182c0       ?_Compat@?$_Vector_const_iterator@V?$_Vector_val@PAVTrimeshFace@@V?$allocator@PAVTrimeshFace@@@std@@@std@@@std@@QBEXABV12@@Z 004192c0 f i glObjects.obj
 0001:000183a0       ??1?$_Tmap_traits@HIU?$less@H@std@@V?$allocator@U?$pair@$$CBHI@std@@@2@$0A@@std@@QAE@XZ 004193a0 f i glObjects.obj
 0001:000183f0       ?erase@?$_Tree@V?$_Tmap_traits@HIU?$less@H@std@@V?$allocator@U?$pair@$$CBHI@std@@@2@$0A@@std@@@std@@QAE?AV?$_Tree_iterator@V?$_Tree_val@V?$_Tmap_traits@HIU?$less@H@std@@V?$allocator@U?$pair@$$CBHI@std@@@2@$0A@@std@@@std@@@2@V?$_Tree_const_iterator@V?$_Tree_val@V?$_Tmap_traits@HIU?$less@H@std@@V?$allocator@U?$pair@$$CBHI@std@@@2@$0A@@std@@@std@@@2@@Z 004193f0 f i glObjects.obj
 0001:00018c40       ?clear@?$_Tree@V?$_Tmap_traits@HIU?$less@H@std@@V?$allocator@U?$pair@$$CBHI@std@@@2@$0A@@std@@@std@@QAEXXZ 00419c40 f i glObjects.obj
 0001:00018ce0       ?_Lmost@?$_Tree@V?$_Tmap_traits@HIU?$less@H@std@@V?$allocator@U?$pair@$$CBHI@std@@@2@$0A@@std@@@std@@IBEAAPAU_Node@?$_Tree_nod@V?$_Tmap_traits@HIU?$less@H@std@@V?$allocator@U?$pair@$$CBHI@std@@@2@$0A@@std@@@2@XZ 00419ce0 f i glObjects.obj
 0001:00018d30       ?_Root@?$_Tree@V?$_Tmap_traits@HIU?$less@H@std@@V?$allocator@U?$pair@$$CBHI@std@@@2@$0A@@std@@@std@@IBEAAPAU_Node@?$_Tree_nod@V?$_Tmap_traits@HIU?$less@H@std@@V?$allocator@U?$pair@$$CBHI@std@@@2@$0A@@std@@@2@XZ 00419d30 f i glObjects.obj
 0001:00018d80       ?_Color@?$_Tree_val@V?$_Tmap_traits@HIU?$less@H@std@@V?$allocator@U?$pair@$$CBHI@std@@@2@$0A@@std@@@std@@SAAADPAU_Node@?$_Tree_nod@V?$_Tmap_traits@HIU?$less@H@std@@V?$allocator@U?$pair@$$CBHI@std@@@2@$0A@@std@@@2@@Z 00419d80 f i glObjects.obj
 0001:00018db0       ?_Isnil@?$_Tree_val@V?$_Tmap_traits@HIU?$less@H@std@@V?$allocator@U?$pair@$$CBHI@std@@@2@$0A@@std@@@std@@SAAADPAU_Node@?$_Tree_nod@V?$_Tmap_traits@HIU?$less@H@std@@V?$allocator@U?$pair@$$CBHI@std@@@2@$0A@@std@@@2@@Z 00419db0 f i glObjects.obj
 0001:00018de0       ?_Left@?$_Tree_val@V?$_Tmap_traits@HIU?$less@H@std@@V?$allocator@U?$pair@$$CBHI@std@@@2@$0A@@std@@@std@@SAAAPAU_Node@?$_Tree_nod@V?$_Tmap_traits@HIU?$less@H@std@@V?$allocator@U?$pair@$$CBHI@std@@@2@$0A@@std@@@2@PAU342@@Z 00419de0 f i glObjects.obj
 0001:00018e10       ?_Parent@?$_Tree_val@V?$_Tmap_traits@HIU?$less@H@std@@V?$allocator@U?$pair@$$CBHI@std@@@2@$0A@@std@@@std@@SAAAPAU_Node@?$_Tree_nod@V?$_Tmap_traits@HIU?$less@H@std@@V?$allocator@U?$pair@$$CBHI@std@@@2@$0A@@std@@@2@PAU342@@Z 00419e10 f i glObjects.obj
 0001:00018e40       ?_Right@?$_Tree_val@V?$_Tmap_traits@HIU?$less@H@std@@V?$allocator@U?$pair@$$CBHI@std@@@2@$0A@@std@@@std@@SAAAPAU_Node@?$_Tree_nod@V?$_Tmap_traits@HIU?$less@H@std@@V?$allocator@U?$pair@$$CBHI@std@@@2@$0A@@std@@@2@PAU342@@Z 00419e40 f i glObjects.obj
 0001:00018e70       ??0?$_Tree_nod@V?$_Tmap_traits@HIU?$less@H@std@@V?$allocator@U?$pair@$$CBHI@std@@@2@$0A@@std@@@std@@QAE@ABU?$less@H@1@V?$allocator@U?$pair@$$CBHI@std@@@1@@Z 00419e70 f i glObjects.obj
 0001:00018f90       ?allocate@?$allocator@U_Node@?$_Tree_nod@V?$_Tmap_traits@HIU?$less@H@std@@V?$allocator@U?$pair@$$CBHI@std@@@2@$0A@@std@@@std@@@std@@QAEPAU_Node@?$_Tree_nod@V?$_Tmap_traits@HIU?$less@H@std@@V?$allocator@U?$pair@$$CBHI@std@@@2@$0A@@std@@@2@I@Z 00419f90 f i glObjects.obj
 0001:00018fe0       ??E?$_Tree_const_iterator@V?$_Tree_val@V?$_Tmap_traits@HIU?$less@H@std@@V?$allocator@U?$pair@$$CBHI@std@@@2@$0A@@std@@@std@@@std@@QAE?AV01@H@Z 00419fe0 f i glObjects.obj
 0001:000190c0       ??9?$_Tree_const_iterator@V?$_Tree_val@V?$_Tmap_traits@HIU?$less@H@std@@V?$allocator@U?$pair@$$CBHI@std@@@2@$0A@@std@@@std@@@std@@QBE_NABV01@@Z 0041a0c0 f i glObjects.obj
 0001:00019110       ??0?$_Tree_unchecked_const_iterator@V?$_Tree_val@V?$_Tmap_traits@HIU?$less@H@std@@V?$allocator@U?$pair@$$CBHI@std@@@2@$0A@@std@@@std@@U_Iterator_base12@2@@std@@QAE@PAU_Node@?$_Tree_nod@V?$_Tmap_traits@HIU?$less@H@std@@V?$allocator@U?$pair@$$CBHI@std@@@2@$0A@@std@@@1@PBV?$_Tree_val@V?$_Tmap_traits@HIU?$less@H@std@@V?$allocator@U?$pair@$$CBHI@std@@@2@$0A@@std@@@1@@Z 0041a110 f i glObjects.obj
 0001:000191b0       ??0?$_Iterator012@Ubidirectional_iterator_tag@std@@U?$pair@$$CBHI@2@HPBU32@ABU32@U_Iterator_base12@2@@std@@QAE@XZ 0041a1b0 f i glObjects.obj
 0001:00019200       ?_Erase@?$_Tree@V?$_Tmap_traits@HIU?$less@H@std@@V?$allocator@U?$pair@$$CBHI@std@@@2@$0A@@std@@@std@@IAEXPAU_Node@?$_Tree_nod@V?$_Tmap_traits@HIU?$less@H@std@@V?$allocator@U?$pair@$$CBHI@std@@@2@$0A@@std@@@2@@Z 0041a200 f i glObjects.obj
 0001:000192c0       ?_Lrotate@?$_Tree@V?$_Tmap_traits@HIU?$less@H@std@@V?$allocator@U?$pair@$$CBHI@std@@@2@$0A@@std@@@std@@IAEXPAU_Node@?$_Tree_nod@V?$_Tmap_traits@HIU?$less@H@std@@V?$allocator@U?$pair@$$CBHI@std@@@2@$0A@@std@@@2@@Z 0041a2c0 f i glObjects.obj
 0001:00019420       ?_Rmost@?$_Tree@V?$_Tmap_traits@HIU?$less@H@std@@V?$allocator@U?$pair@$$CBHI@std@@@2@$0A@@std@@@std@@IBEAAPAU_Node@?$_Tree_nod@V?$_Tmap_traits@HIU?$less@H@std@@V?$allocator@U?$pair@$$CBHI@std@@@2@$0A@@std@@@2@XZ 0041a420 f i glObjects.obj
 0001:00019470       ?_Rrotate@?$_Tree@V?$_Tmap_traits@HIU?$less@H@std@@V?$allocator@U?$pair@$$CBHI@std@@@2@$0A@@std@@@std@@IAEXPAU_Node@?$_Tree_nod@V?$_Tmap_traits@HIU?$less@H@std@@V?$allocator@U?$pair@$$CBHI@std@@@2@$0A@@std@@@2@@Z 0041a470 f i glObjects.obj
 0001:000195d0       ?_Orphan_ptr@?$_Tree@V?$_Tmap_traits@HIU?$less@H@std@@V?$allocator@U?$pair@$$CBHI@std@@@2@$0A@@std@@@std@@IBEXAAV12@PAU_Node@?$_Tree_nod@V?$_Tmap_traits@HIU?$less@H@std@@V?$allocator@U?$pair@$$CBHI@std@@@2@$0A@@std@@@2@@Z 0041a5d0 f i glObjects.obj
 0001:00019710       ?_Max@?$_Tree_val@V?$_Tmap_traits@HIU?$less@H@std@@V?$allocator@U?$pair@$$CBHI@std@@@2@$0A@@std@@@std@@SAPAU_Node@?$_Tree_nod@V?$_Tmap_traits@HIU?$less@H@std@@V?$allocator@U?$pair@$$CBHI@std@@@2@$0A@@std@@@2@PAU342@@Z 0041a710 f i glObjects.obj
 0001:00019780       ?_Min@?$_Tree_val@V?$_Tmap_traits@HIU?$less@H@std@@V?$allocator@U?$pair@$$CBHI@std@@@2@$0A@@std@@@std@@SAPAU_Node@?$_Tree_nod@V?$_Tmap_traits@HIU?$less@H@std@@V?$allocator@U?$pair@$$CBHI@std@@@2@$0A@@std@@@2@PAU342@@Z 0041a780 f i glObjects.obj
 0001:000197f0       ??0?$_Tmap_traits@HIU?$less@H@std@@V?$allocator@U?$pair@$$CBHI@std@@@2@$0A@@std@@QAE@U?$less@H@1@@Z 0041a7f0 f i glObjects.obj
 0001:00019840       ??E?$_Tree_const_iterator@V?$_Tree_val@V?$_Tmap_traits@HIU?$less@H@std@@V?$allocator@U?$pair@$$CBHI@std@@@2@$0A@@std@@@std@@@std@@QAEAAV01@XZ 0041a840 f i glObjects.obj
 0001:00019940       ??E?$_Tree_unchecked_const_iterator@V?$_Tree_val@V?$_Tmap_traits@HIU?$less@H@std@@V?$allocator@U?$pair@$$CBHI@std@@@2@$0A@@std@@@std@@U_Iterator_base12@2@@std@@QAEAAV01@XZ 0041a940 f i glObjects.obj
 0001:00019a30       ??$make_pair@AAHI@std@@YA?AU?$pair@HI@0@AAH$$QAI@Z 0041aa30 f i glObjects.obj
 0001:00019aa0       ??$insert@U?$pair@HI@std@@@?$_Tree@V?$_Tmap_traits@HIU?$less@H@std@@V?$allocator@U?$pair@$$CBHI@std@@@2@$0A@@std@@@std@@QAE?AU?$pair@V?$_Tree_iterator@V?$_Tree_val@V?$_Tmap_traits@HIU?$less@H@std@@V?$allocator@U?$pair@$$CBHI@std@@@2@$0A@@std@@@std@@@std@@_N@1@$$QAU?$pair@HI@1@@Z 0041aaa0 f i glObjects.obj
 0001:00019b20       ??$_Debug_lt_pred@U?$less@H@std@@HH@std@@YA_NU?$less@H@0@ABHAAHPB_WI@Z 0041ab20 f i glObjects.obj
 0001:00019bb0       ??$_Kfn@$$CBHI@?$_Tmap_traits@HIU?$less@H@std@@V?$allocator@U?$pair@$$CBHI@std@@@2@$0A@@std@@SAABHABU?$pair@$$CBHI@1@@Z 0041abb0 f i glObjects.obj
 0001:00019be0       ??$_Debug_lt_pred@U?$less@H@std@@HH@std@@YA_NU?$less@H@0@AAHABHPB_WI@Z 0041abe0 f i glObjects.obj
 0001:00019c70       ??$?0U_Node@?$_Tree_nod@V?$_Tmap_traits@HIU?$less@H@std@@V?$allocator@U?$pair@$$CBHI@std@@@2@$0A@@std@@@std@@@?$allocator@U_Container_proxy@std@@@std@@QAE@ABV?$allocator@U_Node@?$_Tree_nod@V?$_Tmap_traits@HIU?$less@H@std@@V?$allocator@U?$pair@$$CBHI@std@@@2@$0A@@std@@@std@@@1@@Z 0041ac70 f i glObjects.obj
 0001:00019ca0       ??$addressof@U?$pair@$$CBHI@std@@@std@@YAPAU?$pair@$$CBHI@0@AAU10@@Z 0041aca0 f i glObjects.obj
 0001:00019cd0       ??$_Dest_val@V?$allocator@U?$pair@$$CBHI@std@@@std@@U?$pair@$$CBHI@2@@std@@YAXAAV?$allocator@U?$pair@$$CBHI@std@@@0@PAU?$pair@$$CBHI@0@@Z 0041acd0 f i glObjects.obj
 0001:00019d10       ??$?0U?$pair@$$CBHI@std@@@?$allocator@U_Node@?$_Tree_nod@V?$_Tmap_traits@HIU?$less@H@std@@V?$allocator@U?$pair@$$CBHI@std@@@2@$0A@@std@@@std@@@std@@QAE@ABV?$allocator@U?$pair@$$CBHI@std@@@1@@Z 0041ad10 f i glObjects.obj
 0001:00019d40       ??$_Allocate@U_Node@?$_Tree_nod@V?$_Tmap_traits@HIU?$less@H@std@@V?$allocator@U?$pair@$$CBHI@std@@@2@$0A@@std@@@std@@@std@@YAPAU_Node@?$_Tree_nod@V?$_Tmap_traits@HIU?$less@H@std@@V?$allocator@U?$pair@$$CBHI@std@@@2@$0A@@std@@@0@IPAU120@@Z 0041ad40 f i glObjects.obj
 0001:00019dd0       ?_Linsert@?$_Tree@V?$_Tmap_traits@HIU?$less@H@std@@V?$allocator@U?$pair@$$CBHI@std@@@2@$0A@@std@@@std@@QAE?AU?$pair@V?$_Tree_iterator@V?$_Tree_val@V?$_Tmap_traits@HIU?$less@H@std@@V?$allocator@U?$pair@$$CBHI@std@@@2@$0A@@std@@@std@@@std@@_N@2@PAU_Node@?$_Tree_nod@V?$_Tmap_traits@HIU?$less@H@std@@V?$allocator@U?$pair@$$CBHI@std@@@2@$0A@@std@@@2@_N@Z 0041add0 f i glObjects.obj
 0001:0001a240       ?destroy@?$allocator@U?$pair@$$CBHI@std@@@std@@QAEXPAU?$pair@$$CBHI@2@@Z 0041b240 f i glObjects.obj
 0001:0001a290       ??R?$less@H@std@@QBE_NABH0@Z 0041b290 f i glObjects.obj
 0001:0001a2d0       ?_Insert@?$_Tree@V?$_Tmap_traits@HIU?$less@H@std@@V?$allocator@U?$pair@$$CBHI@std@@@2@$0A@@std@@@std@@IAE?AV?$_Tree_iterator@V?$_Tree_val@V?$_Tmap_traits@HIU?$less@H@std@@V?$allocator@U?$pair@$$CBHI@std@@@2@$0A@@std@@@std@@@2@_NPAU_Node@?$_Tree_nod@V?$_Tmap_traits@HIU?$less@H@std@@V?$allocator@U?$pair@$$CBHI@std@@@2@$0A@@std@@@2@1@Z 0041b2d0 f i glObjects.obj
 0001:0001a750       ??F?$_Tree_iterator@V?$_Tree_val@V?$_Tmap_traits@HIU?$less@H@std@@V?$allocator@U?$pair@$$CBHI@std@@@2@$0A@@std@@@std@@@std@@QAEAAV01@XZ 0041b750 f i glObjects.obj
 0001:0001a7a0       ??0?$pair@V?$_Tree_iterator@V?$_Tree_val@V?$_Tmap_traits@HIU?$less@H@std@@V?$allocator@U?$pair@$$CBHI@std@@@2@$0A@@std@@@std@@@std@@_N@std@@QAE@$$QAV?$_Tree_iterator@V?$_Tree_val@V?$_Tmap_traits@HIU?$less@H@std@@V?$allocator@U?$pair@$$CBHI@std@@@2@$0A@@std@@@std@@@1@$$QA_N@Z 0041b7a0 f i glObjects.obj
 0001:0001a800       ?max_size@?$_Tree@V?$_Tmap_traits@HIU?$less@H@std@@V?$allocator@U?$pair@$$CBHI@std@@@2@$0A@@std@@@std@@QBEIXZ 0041b800 f i glObjects.obj
 0001:0001a850       ??F?$_Tree_const_iterator@V?$_Tree_val@V?$_Tmap_traits@HIU?$less@H@std@@V?$allocator@U?$pair@$$CBHI@std@@@2@$0A@@std@@@std@@@std@@QAEAAV01@XZ 0041b850 f i glObjects.obj
 0001:0001a9d0       ??0?$_Pair_base@V?$_Tree_iterator@V?$_Tree_val@V?$_Tmap_traits@HIU?$less@H@std@@V?$allocator@U?$pair@$$CBHI@std@@@2@$0A@@std@@@std@@@std@@_N@std@@QAE@$$QAV?$_Tree_iterator@V?$_Tree_val@V?$_Tmap_traits@HIU?$less@H@std@@V?$allocator@U?$pair@$$CBHI@std@@@2@$0A@@std@@@std@@@1@$$QA_N@Z 0041b9d0 f i glObjects.obj
 0001:0001aa70       ?max_size@?$allocator@U?$pair@$$CBHI@std@@@std@@QBEIXZ 0041ba70 f i glObjects.obj
 0001:0001aad0       ??F?$_Tree_unchecked_const_iterator@V?$_Tree_val@V?$_Tmap_traits@HIU?$less@H@std@@V?$allocator@U?$pair@$$CBHI@std@@@2@$0A@@std@@@std@@U_Iterator_base12@2@@std@@QAEAAV01@XZ 0041bad0 f i glObjects.obj
 0001:0001abf0       ??$forward@AAH@std@@YAAAHAAH@Z 0041bbf0 f i glObjects.obj
 0001:0001ac20       ??$?0AAHI@?$pair@HI@std@@QAE@AAH$$QAI@Z 0041bc20 f i glObjects.obj
 0001:0001ac80       ??$forward@U?$pair@HI@std@@@std@@YA$$QAU?$pair@HI@0@AAU10@@Z 0041bc80 f i glObjects.obj
 0001:0001acb0       ??$_Buynode@U?$pair@HI@std@@@?$_Tree_val@V?$_Tmap_traits@HIU?$less@H@std@@V?$allocator@U?$pair@$$CBHI@std@@@2@$0A@@std@@@std@@QAEPAU_Node@?$_Tree_nod@V?$_Tmap_traits@HIU?$less@H@std@@V?$allocator@U?$pair@$$CBHI@std@@@2@$0A@@std@@@1@$$QAU?$pair@HI@1@@Z 0041bcb0 f i glObjects.obj
 0001:0001adc0       ??$?0AAV?$_Tree_iterator@V?$_Tree_val@V?$_Tmap_traits@HIU?$less@H@std@@V?$allocator@U?$pair@$$CBHI@std@@@2@$0A@@std@@@std@@@std@@_N@?$pair@V?$_Tree_iterator@V?$_Tree_val@V?$_Tmap_traits@HIU?$less@H@std@@V?$allocator@U?$pair@$$CBHI@std@@@2@$0A@@std@@@std@@@std@@_N@std@@QAE@AAV?$_Tree_iterator@V?$_Tree_val@V?$_Tmap_traits@HIU?$less@H@std@@V?$allocator@U?$pair@$$CBHI@std@@@2@$0A@@std@@@std@@@1@$$QA_N@Z 0041bdc0 f i glObjects.obj
 0001:0001ae20       ??$_Destroy@U?$pair@$$CBHI@std@@@std@@YAXPAU?$pair@$$CBHI@0@@Z 0041be20 f i glObjects.obj
 0001:0001ae50       ??$move@AAV?$_Tree_iterator@V?$_Tree_val@V?$_Tmap_traits@HIU?$less@H@std@@V?$allocator@U?$pair@$$CBHI@std@@@2@$0A@@std@@@std@@@std@@@std@@YA$$QAV?$_Tree_iterator@V?$_Tree_val@V?$_Tmap_traits@HIU?$less@H@std@@V?$allocator@U?$pair@$$CBHI@std@@@2@$0A@@std@@@std@@@0@AAV10@@Z 0041be50 f i glObjects.obj
 0001:0001ae80       ??$move@AA_N@std@@YA$$QA_NAA_N@Z 0041be80 f i glObjects.obj
 0001:0001aeb0       ?_Buynode@?$_Tree_val@V?$_Tmap_traits@HIU?$less@H@std@@V?$allocator@U?$pair@$$CBHI@std@@@2@$0A@@std@@@std@@QAEPAU_Node@?$_Tree_nod@V?$_Tmap_traits@HIU?$less@H@std@@V?$allocator@U?$pair@$$CBHI@std@@@2@$0A@@std@@@2@XZ 0041beb0 f i glObjects.obj
 0001:0001af60       ??$?0AAHI@?$_Pair_base@HI@std@@QAE@AAH$$QAI@Z 0041bf60 f i glObjects.obj
 0001:0001afd0       ??$_Cons_val@V?$allocator@U?$pair@$$CBHI@std@@@std@@U?$pair@$$CBHI@2@U?$pair@HI@2@@std@@YAXAAV?$allocator@U?$pair@$$CBHI@std@@@0@PAU?$pair@$$CBHI@0@$$QAU?$pair@HI@0@@Z 0041bfd0 f i glObjects.obj
 0001:0001b020       ??$forward@AAV?$_Tree_iterator@V?$_Tree_val@V?$_Tmap_traits@HIU?$less@H@std@@V?$allocator@U?$pair@$$CBHI@std@@@2@$0A@@std@@@std@@@std@@@std@@YAAAV?$_Tree_iterator@V?$_Tree_val@V?$_Tmap_traits@HIU?$less@H@std@@V?$allocator@U?$pair@$$CBHI@std@@@2@$0A@@std@@@std@@@0@AAV10@@Z 0041c020 f i glObjects.obj
 0001:0001b050       ??$forward@_N@std@@YA$$QA_NAA_N@Z 0041c050 f i glObjects.obj
 0001:0001b080       ??$?0AAV?$_Tree_iterator@V?$_Tree_val@V?$_Tmap_traits@HIU?$less@H@std@@V?$allocator@U?$pair@$$CBHI@std@@@2@$0A@@std@@@std@@@std@@_N@?$_Pair_base@V?$_Tree_iterator@V?$_Tree_val@V?$_Tmap_traits@HIU?$less@H@std@@V?$allocator@U?$pair@$$CBHI@std@@@2@$0A@@std@@@std@@@std@@_N@std@@QAE@AAV?$_Tree_iterator@V?$_Tree_val@V?$_Tmap_traits@HIU?$less@H@std@@V?$allocator@U?$pair@$$CBHI@std@@@2@$0A@@std@@@std@@@1@$$QA_N@Z 0041c080 f i glObjects.obj
 0001:0001b120       ??$construct@U?$pair@HI@std@@@?$allocator@U?$pair@$$CBHI@std@@@std@@QAEXPAU?$pair@$$CBHI@1@$$QAU?$pair@HI@1@@Z 0041c120 f i glObjects.obj
 0001:0001b1f0       ??$?0HI@?$pair@$$CBHI@std@@QAE@$$QAU?$pair@HI@1@@Z 0041c1f0 f i glObjects.obj
 0001:0001b260       ??$forward@H@std@@YA$$QAHAAH@Z 0041c260 f i glObjects.obj
 0001:0001b290       ??$?0HI@?$_Pair_base@$$CBHI@std@@QAE@$$QAH$$QAI@Z 0041c290 f i glObjects.obj
 0001:0001b300       ?whoami@GraphicalUI@@CAPAV1@PAVFl_Menu_@@@Z 0041c300 f   GraphicalUI.obj
 0001:0001b350       ?fileDialog@GraphicalUI@@AAEPBDW4Type@Fl_Native_File_Chooser@@PBD1@Z 0041c350 f   GraphicalUI.obj
 0001:0001b480       ?cb_load_scene@GraphicalUI@@CAXPAVFl_Menu_@@PAX@Z 0041c480 f   GraphicalUI.obj
 0001:0001b6d0       ?setDirty@DebuggingView@@QAEXXZ 0041c6d0 f i GraphicalUI.obj
 0001:0001b710       ?cb_save_image@GraphicalUI@@CAXPAVFl_Menu_@@PAX@Z 0041c710 f   GraphicalUI.obj
 0001:0001b860       ??0Dialog2@@QAE@HHHHPBD@Z  0041c860 f i GraphicalUI.obj
 0001:0001b8d0       ?getValue@Dialog2@@QAEHXZ  0041c8d0 f i GraphicalUI.obj
 0001:0001bb10       ?parent@Fl_Widget@@QAEXPAVFl_Group@@@Z 0041cb10 f i GraphicalUI.obj
 0001:0001bb50       ?callback@Fl_Widget@@QAEXP6AXPAV1@PAX@Z1@Z 0041cb50 f i GraphicalUI.obj
 0001:0001bb90       ?value@Fl_Input_@@QBEPBDXZ 0041cb90 f i GraphicalUI.obj
 0001:0001bbc0       ??0Fl_Int_Input@@QAE@HHHHPBD@Z 0041cbc0 f i GraphicalUI.obj
 0001:0001bc70       ?type@Fl_Widget@@QAEXE@Z   0041cc70 f i GraphicalUI.obj
 0001:0001bcb0       ??_EFl_Int_Input@@UAEPAXI@Z 0041ccb0 f i GraphicalUI.obj
 0001:0001bcb0       ??_GFl_Int_Input@@UAEPAXI@Z 0041ccb0 f i GraphicalUI.obj
 0001:0001bd10       ??1Fl_Input@@UAE@XZ        0041cd10 f i GraphicalUI.obj
 0001:0001bd50       ??1Fl_Int_Input@@UAE@XZ    0041cd50 f i GraphicalUI.obj
 0001:0001bd90       ?Button_CB@Dialog2@@CAXPAVFl_Widget@@PAX@Z 0041cd90 f i GraphicalUI.obj
 0001:0001bdd0       ??_GDialog2@@UAEPAXI@Z     0041cdd0 f i GraphicalUI.obj
 0001:0001bdd0       ??_EDialog2@@UAEPAXI@Z     0041cdd0 f i GraphicalUI.obj
 0001:0001be30       ??1Fl_Button@@UAE@XZ       0041ce30 f i GraphicalUI.obj
 0001:0001be70       ??1Dialog2@@UAE@XZ         0041ce70 f i GraphicalUI.obj
 0001:0001beb0       ?cb_exit@GraphicalUI@@CAXPAVFl_Menu_@@PAX@Z 0041ceb0 f   GraphicalUI.obj
 0001:0001bf40       ?cb_exit2@GraphicalUI@@CAXPAVFl_Widget@@PAX@Z 0041cf40 f   GraphicalUI.obj
 0001:0001bfd0       ?cb_about@GraphicalUI@@CAXPAVFl_Menu_@@PAX@Z 0041cfd0 f   GraphicalUI.obj
 0001:0001c010       ?cb_sizeSlides@GraphicalUI@@CAXPAVFl_Widget@@PAX@Z 0041d010 f   GraphicalUI.obj
 0001:0001c0c0       ?value@Fl_Valuator@@QBENXZ 0041d0c0 f i GraphicalUI.obj
 0001:0001c0f0       ?setReady@RayTracer@@QAEX_N@Z 0041d0f0 f i GraphicalUI.obj
 0001:0001c130       ?cb_depthSlides@GraphicalUI@@CAXPAVFl_Widget@@PAX@Z 0041d130 f   GraphicalUI.obj
 0001:0001c180       ?cb_debuggingDisplayCheckButton@GraphicalUI@@CAXPAVFl_Widget@@PAX@Z 0041d180 f   GraphicalUI.obj
 0001:0001c200       ?value@Fl_Button@@QBEDXZ   0041d200 f i GraphicalUI.obj
 0001:0001c230       ?cb_bspEnabledCheckButton@GraphicalUI@@CAXPAVFl_Widget@@PAX@Z 0041d230 f   GraphicalUI.obj
 0001:0001c290       ?cb_render@GraphicalUI@@CAXPAVFl_Widget@@PAX@Z 0041d290 f   GraphicalUI.obj
 0001:0001c610       ?label@Fl_Window@@QBEPBDXZ 0041d610 f i GraphicalUI.obj
 0001:0001c650       ?label@Fl_Widget@@QBEPBDXZ 0041d650 f i GraphicalUI.obj
 0001:0001c680       ?getSize@TraceUI@@QBEHXZ   0041d680 f i GraphicalUI.obj
 0001:0001c6b0       ?cb_stop@GraphicalUI@@CAXPAVFl_Widget@@PAX@Z 0041d6b0 f   GraphicalUI.obj
 0001:0001c6e0       ?run@GraphicalUI@@UAEHXZ   0041d6e0 f   GraphicalUI.obj
 0001:0001c750       ?alert@GraphicalUI@@UAEXABV?$basic_string@DU?$char_traits@D@std@@V?$allocator@D@2@@std@@@Z 0041d750 f   GraphicalUI.obj
 0001:0001c7a0       ?setRayTracer@GraphicalUI@@UAEXPAVRayTracer@@@Z 0041d7a0 f   GraphicalUI.obj
 0001:0001c810       ?stopTracing@GraphicalUI@@SAXXZ 0041d810 f   GraphicalUI.obj
 0001:0001c870       ??0GraphicalUI@@QAE@XZ     0041d870 f   GraphicalUI.obj
 0001:0001cf80       ?align@Fl_Widget@@QAEXE@Z  0041df80 f i GraphicalUI.obj
 0001:0001cfc0       ?labelfont@Fl_Widget@@QAEXE@Z 0041dfc0 f i GraphicalUI.obj
 0001:0001d000       ?labelsize@Fl_Widget@@QAEXE@Z 0041e000 f i GraphicalUI.obj
 0001:0001d040       ?callback@Fl_Widget@@QAEXP6AXPAV1@PAX@Z@Z 0041e040 f i GraphicalUI.obj
 0001:0001d080       ?when@Fl_Widget@@QAEXE@Z   0041e080 f i GraphicalUI.obj
 0001:0001d0c0       ?minimum@Fl_Valuator@@QAEXN@Z 0041e0c0 f i GraphicalUI.obj
 0001:0001d100       ?maximum@Fl_Valuator@@QAEXN@Z 0041e100 f i GraphicalUI.obj
 0001:0001d140       ?step@Fl_Valuator@@QAEXH@Z 0041e140 f i GraphicalUI.obj
 0001:0001d180       ?updateRender@GraphicalUI@@AAEXXZ 0041e180 f   GraphicalUI.obj
 0001:0001d1e0       ?damage@Fl@@SAHXZ          0041e1e0 f i GraphicalUI.obj
 0001:0001d210       ?threadStart@GraphicalUI@@CAXPAVThreadPool@@PAX@Z 0041e210 f   GraphicalUI.obj
 0001:0001d360       ?calculateViewingTransformParameters@ModelerCamera@@IAEXXZ 0041e360 f   ModelerCamera.obj
 0001:0001d660       ?fmod@@YAMMM@Z             0041e660 f i ModelerCamera.obj
 0001:0001d6b0       _fmodf                     0041e6b0 f i ModelerCamera.obj
 0001:0001d710       ??0ModelerCamera@@QAE@XZ   0041e710 f   ModelerCamera.obj
 0001:0001d780       ?reset@ModelerCamera@@QAEXXZ 0041e780 f   ModelerCamera.obj
 0001:0001d840       ?clickMouse@ModelerCamera@@QAEXW4MouseAction_t@@HH@Z 0041e840 f   ModelerCamera.obj
 0001:0001d8c0       ?dragMouse@ModelerCamera@@QAEXHH@Z 0041e8c0 f   ModelerCamera.obj
 0001:0001dc00       ?sqrt@@YAMM@Z              0041ec00 f i ModelerCamera.obj
 0001:0001dc50       _sqrtf                     0041ec50 f i ModelerCamera.obj
 0001:0001dca0       ?setElevation@ModelerCamera@@QAEXM@Z 0041eca0 f i ModelerCamera.obj
 0001:0001dd00       ?getElevation@ModelerCamera@@QBEMXZ 0041ed00 f i ModelerCamera.obj
 0001:0001dd30       ?setAzimuth@ModelerCamera@@QAEXM@Z 0041ed30 f i ModelerCamera.obj
 0001:0001dd70       ?getAzimuth@ModelerCamera@@QBEMXZ 0041ed70 f i ModelerCamera.obj
 0001:0001dda0       ?getDolly@ModelerCamera@@QBEMXZ 0041eda0 f i ModelerCamera.obj
 0001:0001ddd0       ?setLookAt@ModelerCamera@@QAEXABV?$Vec3@M@@@Z 0041edd0 f i ModelerCamera.obj
 0001:0001de20       ?getLookAt@ModelerCamera@@QBE?AV?$Vec3@M@@XZ 0041ee20 f i ModelerCamera.obj
 0001:0001de70       ?releaseMouse@ModelerCamera@@QAEXHH@Z 0041ee70 f   ModelerCamera.obj
 0001:0001deb0       ?applyViewingTransform@ModelerCamera@@QAEXXZ 0041eeb0 f   ModelerCamera.obj
 0001:0001dfc0       ??0?$Vec3@M@@QAE@XZ        0041efc0 f i ModelerCamera.obj
 0001:0001e010       ??0?$Vec3@M@@QAE@MMM@Z     0041f010 f i ModelerCamera.obj
 0001:0001e060       ??0?$Vec3@M@@QAE@ABV0@@Z   0041f060 f i ModelerCamera.obj
 0001:0001e0c0       ??4?$Vec3@M@@QAEAAV0@ABV0@@Z 0041f0c0 f i ModelerCamera.obj
 0001:0001e120       ??_0?$Vec3@M@@QAEAAV0@M@Z  0041f120 f i ModelerCamera.obj
 0001:0001e180       ??A?$Vec3@M@@QAEAAMH@Z     0041f180 f i ModelerCamera.obj
 0001:0001e1c0       ??G?$Vec3@M@@QBE?AV0@ABV0@@Z 0041f1c0 f i ModelerCamera.obj
 0001:0001e260       ??H?$Vec3@M@@QBE?AV0@ABV0@@Z 0041f260 f i ModelerCamera.obj
 0001:0001e300       ??0?$Mat4@M@@QAE@XZ        0041f300 f i ModelerCamera.obj
 0001:0001e370       ??$makeHTrans@M@@YAXAAV?$Mat4@M@@ABV?$Vec3@M@@@Z 0041f370 f i ModelerCamera.obj
 0001:0001e3e0       ??$makeHRotY@M@@YAXAAV?$Mat4@M@@M@Z 0041f3e0 f i ModelerCamera.obj
 0001:0001e540       ?cos@@YAMM@Z               0041f540 f i ModelerCamera.obj
 0001:0001e590       _cosf                      0041f590 f i ModelerCamera.obj
 0001:0001e5e0       ?sin@@YAMM@Z               0041f5e0 f i ModelerCamera.obj
 0001:0001e630       _sinf                      0041f630 f i ModelerCamera.obj
 0001:0001e680       ??$makeHRotX@M@@YAXAAV?$Mat4@M@@M@Z 0041f680 f i ModelerCamera.obj
 0001:0001e7e0       ??$makeDiagonal@M@@YAXAAV?$Mat4@M@@M@Z 0041f7e0 f i ModelerCamera.obj
 0001:0001e910       ??$?DM@@YA?AV?$Vec3@M@@ABV?$Mat4@M@@ABV0@@Z 0041f910 f i ModelerCamera.obj
 0001:0001ea10       ??$?TM@@YA?AV?$Vec3@M@@ABV0@0@Z 0041fa10 f i ModelerCamera.obj
 0001:0001ead0       ??$?DM@@YAMABV?$Vec3@M@@0@Z 0041fad0 f i ModelerCamera.obj
 0001:0001eb30       ??$?DM@@YA?AV?$Vec3@M@@ABV0@N@Z 0041fb30 f i ModelerCamera.obj
 0001:0001ebc0       ??A?$Vec3@M@@QBEMH@Z       0041fbc0 f i ModelerCamera.obj
 0001:0001ec00       ??A?$Mat4@M@@QAEPAMH@Z     0041fc00 f i ModelerCamera.obj
 0001:0001ec40       ??$makeHTrans@M@@YAXAAV?$Mat4@M@@MMM@Z 0041fc40 f i ModelerCamera.obj
 0001:0001ed70       ??0Buffer@@QAE@AAV?$basic_istream@DU?$char_traits@D@std@@@std@@_N1@Z 0041fd70 f   buffer.obj
 0001:0001ee90       ??4?$_String_const_iterator@DU?$char_traits@D@std@@V?$allocator@D@2@@std@@QAEAAV01@ABV01@@Z 0041fe90 f i buffer.obj
 0001:0001eef0       ??4?$_Iterator012@Urandom_access_iterator_tag@std@@DHPBDABDU_Iterator_base12@2@@std@@QAEAAU01@ABU01@@Z 0041fef0 f i buffer.obj
 0001:0001ef40       ?GetCh@Buffer@@QAEDXZ      0041ff40 f   buffer.obj
 0001:0001f180       ?GetLine@Buffer@@IAEXXZ    00420180 f   buffer.obj
 0001:0001f340       ?PrintLine@Buffer@@QBEXAAV?$basic_ostream@DU?$char_traits@D@std@@@std@@@Z 00420340 f   buffer.obj
 0001:0001f3d0       ?end@?$basic_string@DU?$char_traits@D@std@@V?$allocator@D@2@@std@@QAE?AV?$_String_iterator@DU?$char_traits@D@std@@V?$allocator@D@2@@2@XZ 004203d0 f i buffer.obj
 0001:0001f440       ?empty@?$basic_string@DU?$char_traits@D@std@@V?$allocator@D@2@@std@@QBE_NXZ 00420440 f i buffer.obj
 0001:0001f480       ??0?$_String_const_iterator@DU?$char_traits@D@std@@V?$allocator@D@2@@std@@QAE@XZ 00420480 f i buffer.obj
 0001:0001f4d0       ??E?$_String_const_iterator@DU?$char_traits@D@std@@V?$allocator@D@2@@std@@QAE?AV01@H@Z 004204d0 f i buffer.obj
 0001:0001f5b0       ??8?$_String_const_iterator@DU?$char_traits@D@std@@V?$allocator@D@2@@std@@QBE_NABV01@@Z 004205b0 f i buffer.obj
 0001:0001f610       ??9?$_String_const_iterator@DU?$char_traits@D@std@@V?$allocator@D@2@@std@@QBE_NABV01@@Z 00420610 f i buffer.obj
 0001:0001f660       ??0?$_String_const_iterator@DU?$char_traits@D@std@@V?$allocator@D@2@@std@@QAE@ABV01@@Z 00420660 f i buffer.obj
 0001:0001f6c0       ??0?$_Iterator012@Urandom_access_iterator_tag@std@@DHPBDABDU_Iterator_base12@2@@std@@QAE@ABU01@@Z 004206c0 f i buffer.obj
 0001:0001f710       ??E?$_String_const_iterator@DU?$char_traits@D@std@@V?$allocator@D@2@@std@@QAEAAV01@XZ 00420710 f i buffer.obj
 0001:0001f810       ?_Compat@?$_String_const_iterator@DU?$char_traits@D@std@@V?$allocator@D@2@@std@@QBEXABV12@@Z 00420810 f i buffer.obj
 0001:0001f8f0       ??$?6U?$char_traits@D@std@@@std@@YAAAV?$basic_ostream@DU?$char_traits@D@std@@@0@AAV10@D@Z 004208f0 f i buffer.obj
 0001:0001fd90       ??$getline@DU?$char_traits@D@std@@V?$allocator@D@2@@std@@YAAAV?$basic_istream@DU?$char_traits@D@std@@@0@AAV10@AAV?$basic_string@DU?$char_traits@D@std@@V?$allocator@D@2@@0@@Z 00420d90 f i buffer.obj
 0001:0001fe00       ??$move@AAV?$basic_istream@DU?$char_traits@D@std@@@std@@@std@@YA$$QAV?$basic_istream@DU?$char_traits@D@std@@@0@AAV10@@Z 00420e00 f i buffer.obj
 0001:0001fe30       ??$getline@DU?$char_traits@D@std@@V?$allocator@D@2@@std@@YAAAV?$basic_istream@DU?$char_traits@D@std@@@0@$$QAV10@AAV?$basic_string@DU?$char_traits@D@std@@V?$allocator@D@2@@0@D@Z 00420e30 f i buffer.obj
 0001:00020170       ??1sentry@?$basic_istream@DU?$char_traits@D@std@@@std@@QAE@XZ 00421170 f i buffer.obj
 0001:000201b0       ??0sentry@?$basic_istream@DU?$char_traits@D@std@@@std@@QAE@AAV12@_N@Z 004211b0 f i buffer.obj
 0001:00020250       ??Bsentry@?$basic_istream@DU?$char_traits@D@std@@@std@@QBEPQ_Bool_struct@2@HXZ 00421250 f i buffer.obj
 0001:00020290       ??1_Sentry_base@?$basic_istream@DU?$char_traits@D@std@@@std@@QAE@XZ 00421290 f i buffer.obj
 0001:00020330       ??Y?$basic_string@DU?$char_traits@D@std@@V?$allocator@D@2@@std@@QAEAAV01@D@Z 00421330 f i buffer.obj
 0001:00020380       ??0_Sentry_base@?$basic_istream@DU?$char_traits@D@std@@@std@@QAE@AAV12@@Z 00421380 f i buffer.obj
 0001:00020430       ??0Fl_Native_File_Chooser@@QAE@H@Z 00421430 f   Fl_Native_File_Chooser.obj
 0001:00020530       ??1Fl_Native_File_Chooser@@QAE@XZ 00421530 f   Fl_Native_File_Chooser.obj
 0001:00020670       ?type@Fl_Native_File_Chooser@@QAEXH@Z 00421670 f   Fl_Native_File_Chooser.obj
 0001:000206b0       ?type@Fl_Native_File_Chooser@@QBEHXZ 004216b0 f   Fl_Native_File_Chooser.obj
 0001:000206e0       ?options@Fl_Native_File_Chooser@@QAEXH@Z 004216e0 f   Fl_Native_File_Chooser.obj
 0001:00020720       ?options@Fl_Native_File_Chooser@@QBEHXZ 00421720 f   Fl_Native_File_Chooser.obj
 0001:00020750       ?errmsg@Fl_Native_File_Chooser@@AAEXPBD@Z 00421750 f   Fl_Native_File_Chooser.obj
 0001:00020840       ?clear_pathnames@Fl_Native_File_Chooser@@AAEXXZ 00421840 f   Fl_Native_File_Chooser.obj
 0001:00020920       ?set_single_pathname@Fl_Native_File_Chooser@@AAEXPBD@Z 00421920 f   Fl_Native_File_Chooser.obj
 0001:000209b0       ?add_pathname@Fl_Native_File_Chooser@@AAEXPBD@Z 004219b0 f   Fl_Native_File_Chooser.obj
 0001:00020b00       ?FreePIDL@Fl_Native_File_Chooser@@AAEXPAU_ITEMIDLIST@@@Z 00421b00 f   Fl_Native_File_Chooser.obj
 0001:00020bc0       ?ClearOFN@Fl_Native_File_Chooser@@AAEXXZ 00421bc0 f   Fl_Native_File_Chooser.obj
 0001:00020c70       ?ClearBINF@Fl_Native_File_Chooser@@AAEXXZ 00421c70 f   Fl_Native_File_Chooser.obj
 0001:00020ce0       ?Win2Unix@Fl_Native_File_Chooser@@AAEXPAD@Z 00421ce0 f   Fl_Native_File_Chooser.obj
 0001:00020d40       ?Unix2Win@Fl_Native_File_Chooser@@AAEXPAD@Z 00421d40 f   Fl_Native_File_Chooser.obj
 0001:00020da0       ?showfile@Fl_Native_File_Chooser@@AAEHXZ 00421da0 f   Fl_Native_File_Chooser.obj
 0001:000213a0       ?Dir_CB@Fl_Native_File_Chooser@@CGHPAUHWND__@@IJJ@Z 004223a0 f   Fl_Native_File_Chooser.obj
 0001:000214c0       ?showdir@Fl_Native_File_Chooser@@AAEHXZ 004224c0 f   Fl_Native_File_Chooser.obj
 0001:00021700       ?show@Fl_Native_File_Chooser@@QAEHXZ 00422700 f   Fl_Native_File_Chooser.obj
 0001:00021770       ?errmsg@Fl_Native_File_Chooser@@QBEPBDXZ 00422770 f   Fl_Native_File_Chooser.obj
 0001:000217d0       ?filename@Fl_Native_File_Chooser@@QBEPBDXZ 004227d0 f   Fl_Native_File_Chooser.obj
 0001:00021830       ?filename@Fl_Native_File_Chooser@@QBEPBDH@Z 00422830 f   Fl_Native_File_Chooser.obj
 0001:00021890       ?count@Fl_Native_File_Chooser@@QBEHXZ 00422890 f   Fl_Native_File_Chooser.obj
 0001:000218d0       ?directory@Fl_Native_File_Chooser@@QAEXPBD@Z 004228d0 f   Fl_Native_File_Chooser.obj
 0001:00021940       ?directory@Fl_Native_File_Chooser@@QBEPBDXZ 00422940 f   Fl_Native_File_Chooser.obj
 0001:00021980       ?title@Fl_Native_File_Chooser@@QAEXPBD@Z 00422980 f   Fl_Native_File_Chooser.obj
 0001:000219f0       ?title@Fl_Native_File_Chooser@@QBEPBDXZ 004229f0 f   Fl_Native_File_Chooser.obj
 0001:00021a30       ?filter@Fl_Native_File_Chooser@@QAEXPBD@Z 00422a30 f   Fl_Native_File_Chooser.obj
 0001:00021ad0       ?filter@Fl_Native_File_Chooser@@QBEPBDXZ 00422ad0 f   Fl_Native_File_Chooser.obj
 0001:00021b10       ?clear_filters@Fl_Native_File_Chooser@@AAEXXZ 00422b10 f   Fl_Native_File_Chooser.obj
 0001:00021b70       ?add_filter@Fl_Native_File_Chooser@@AAEXPBD0@Z 00422b70 f   Fl_Native_File_Chooser.obj
 0001:00021ea0       ?parse_filter@Fl_Native_File_Chooser@@AAEXPBD@Z 00422ea0 f   Fl_Native_File_Chooser.obj
 0001:00022530       ?filter_value@Fl_Native_File_Chooser@@QAEXH@Z 00423530 f   Fl_Native_File_Chooser.obj
 0001:00022570       ?filter_value@Fl_Native_File_Chooser@@QBEHXZ 00423570 f   Fl_Native_File_Chooser.obj
 0001:000225d0       ?preset_file@Fl_Native_File_Chooser@@QAEXPBD@Z 004235d0 f   Fl_Native_File_Chooser.obj
 0001:00022640       ?preset_file@Fl_Native_File_Chooser@@QBEPBDXZ 00423640 f   Fl_Native_File_Chooser.obj
 0001:00022680       ?load@@YAPAEPBDAAH1@Z      00423680 f   imageio.obj
 0001:00022820       ?save@@YAXPBDPBEHH0H@Z     00423820 f   imageio.obj
 0001:000229f0       ??1?$CImg@E@cimg_library@@QAE@XZ 004239f0 f i imageio.obj
 0001:00022a60       ??0?$CImg@E@cimg_library@@QAE@QBD@Z 00423a60 f i imageio.obj
 0001:00022ae0       ??0?$CImg@E@cimg_library@@QAE@QBEIIII_N@Z 00423ae0 f i imageio.obj
 0001:00022bf0       ?save_png@?$CImg@E@cimg_library@@QBEABU12@PBD@Z 00423bf0 f i imageio.obj
 0001:00023ae0       ??0CImgInstanceException@cimg_library@@QAA@PBDZZ 00424ae0 f i imageio.obj
 0001:00023c40       ??0CImgException@cimg_library@@QAE@XZ 00424c40 f i imageio.obj
 0001:00023c80       ??0CImgArgumentException@cimg_library@@QAA@PBDZZ 00424c80 f i imageio.obj
 0001:00023de0       ??0CImgIOException@cimg_library@@QAA@PBDZZ 00424de0 f i imageio.obj
 0001:00023f40       ?fopen@cimg@cimg_library@@YAPAU_iobuf@@QBD0@Z 00424f40 f i imageio.obj
 0001:000240e0       ?fclose@cimg@cimg_library@@YAHPAU_iobuf@@@Z 004250e0 f i imageio.obj
 0001:000241a0       ?warn@cimg@cimg_library@@YAX_NPBDZZ 004251a0 f i imageio.obj
 0001:00024270       ?dialog@cimg@cimg_library@@YAHPBD0000000_N@Z 00425270 f i imageio.obj
 0001:00024350       ?save_jpeg@?$CImg@E@cimg_library@@QBEABU12@PBDI@Z 00425350 f i imageio.obj
 0001:00024a00       ?get_logo40x38@?$CImg@E@cimg_library@@SA?AU12@XZ 00425a00 f i imageio.obj
 0001:00024bf0       ??0?$CImg@E@cimg_library@@QAE@ABU01@@Z 00425bf0 f i imageio.obj
 0001:00024d20       ??0?$CImg@E@cimg_library@@QAE@IIII@Z 00425d20 f i imageio.obj
 0001:00024df0       ?assign@?$CImg@E@cimg_library@@QAEAAU12@QBD@Z 00425df0 f i imageio.obj
 0001:00024e40       ?pixel_type@?$CImg@E@cimg_library@@SAPBDXZ 00425e40 f i imageio.obj
 0001:00024e80       ?get_type@cimg@cimg_library@@YAPBDABE@Z 00425e80 f i imageio.obj
 0001:00024eb0       ?dimx@?$CImg@E@cimg_library@@QBEHXZ 00425eb0 f i imageio.obj
 0001:00024ee0       ?dimy@?$CImg@E@cimg_library@@QBEHXZ 00425ee0 f i imageio.obj
 0001:00024f10       ?dimv@?$CImg@E@cimg_library@@QBEHXZ 00425f10 f i imageio.obj
 0001:00024f40       ?is_empty@?$CImg@E@cimg_library@@QBE_NXZ 00425f40 f i imageio.obj
 0001:00024fc0       ?ptr@?$CImg@E@cimg_library@@QAEPAEIIII@Z 00425fc0 f i imageio.obj
 0001:00025020       ?ptr@?$CImg@E@cimg_library@@QBEPBEIIII@Z 00426020 f i imageio.obj
 0001:00025080       ?size@?$CImg@E@cimg_library@@QBEKXZ 00426080 f i imageio.obj
 0001:000250d0       ?offset@?$CImg@E@cimg_library@@QBEJHHHH@Z 004260d0 f i imageio.obj
 0001:00025140       ?load@?$CImg@E@cimg_library@@QAEAAU12@PBD@Z 00426140 f i imageio.obj
 0001:00025200       ?swap@?$CImg@E@cimg_library@@QAEAAU12@AAU12@@Z 00426200 f i imageio.obj
 0001:000252f0       ?get_load@?$CImg@E@cimg_library@@SA?AU12@PBD@Z 004262f0 f i imageio.obj
 0001:00025700       ?strcasecmp@cimg@cimg_library@@YAHPBD0@Z 00426700 f i imageio.obj
 0001:00025790       ?strlen@cimg@cimg_library@@YAHPBD@Z 00426790 f i imageio.obj
 0001:000257f0       ?strncasecmp@cimg@cimg_library@@YAHPBD0H@Z 004267f0 f i imageio.obj
 0001:000258a0       ?uncase@cimg@cimg_library@@YADD@Z 004268a0 f i imageio.obj
 0001:00025900       ?filename_split@cimg@cimg_library@@YAPBDQBDQAD@Z 00426900 f i imageio.obj
 0001:000259c0       ?strfind@cimg@cimg_library@@YAHPBDD@Z 004269c0 f i imageio.obj
 0001:00025a40       ?get_load_ascii@?$CImg@E@cimg_library@@SA?AU12@PBD@Z 00426a40 f i imageio.obj
 0001:00025df0       ?get_load_dlm@?$CImg@E@cimg_library@@SA?AU12@PBD@Z 00426df0 f i imageio.obj
 0001:00026170       ?get_load_pnm@?$CImg@E@cimg_library@@SA?AU12@PBD@Z 00427170 f i imageio.obj
 0001:00026cf0       ?endian@cimg@cimg_library@@YA_NXZ 00427cf0 f i imageio.obj
 0001:00026d30       ?get_load_bmp@?$CImg@E@cimg_library@@SA?AU12@PBD@Z 00427d30 f i imageio.obj
 0001:00027b40       ?abs@cimg@cimg_library@@YAHH@Z 00428b40 f i imageio.obj
 0001:00027b80       ?get_load_png@?$CImg@E@cimg_library@@SA?AU12@PBD@Z 00428b80 f i imageio.obj
 0001:000285f0       ?get_load_tiff@?$CImg@E@cimg_library@@SA?AU12@PBD@Z 004295f0 f i imageio.obj
 0001:00028650       ?get_load_jpeg@?$CImg@E@cimg_library@@SA?AU12@PBD@Z 00429650 f i imageio.obj
 0001:00028cd0       ?get_load_inr@?$CImg@E@cimg_library@@SA?AU12@PBDPAM@Z 00429cd0 f i imageio.obj
 0001:0002a010       ?get_load_pandore@?$CImg@E@cimg_library@@SA?AU12@PBD@Z 0042b010 f i imageio.obj
 0001:0002d5e0       ?get_load_analyze@?$CImg@E@cimg_library@@SA?AU12@PBDPAM@Z 0042e5e0 f i imageio.obj
 0001:0002e2a0       ?get_load_parrec@?$CImg@E@cimg_library@@SA?AU12@PBDDD@Z 0042f2a0 f i imageio.obj
 0001:0002e370       ?get_load_cimg@?$CImg@E@cimg_library@@SA?AU12@PBDDD@Z 0042f370 f i imageio.obj
 0001:0002e440       ?get_load_convert@?$CImg@E@cimg_library@@SA?AU12@PBD@Z 0042f440 f i imageio.obj
 0001:0002e770       ?system@cimg@cimg_library@@YAXPBD@Z 0042f770 f i imageio.obj
 0001:0002e890       ?convert_path@cimg@cimg_library@@YAPBDXZ 0042f890 f i imageio.obj
 0001:0002f1e0       ?temporary_path@cimg@cimg_library@@YAPBDXZ 004301e0 f i imageio.obj
 0001:0002f410       ?get_load_dicom@?$CImg@E@cimg_library@@SA?AU12@PBD@Z 00430410 f i imageio.obj
 0001:0002f790       ?medcon_path@cimg@cimg_library@@YAPBDXZ 00430790 f i imageio.obj
 0001:0002f8f0       ??0?$CImg@E@cimg_library@@QAE@XZ 004308f0 f i imageio.obj
 0001:0002f960       ??4?$CImg@E@cimg_library@@QAEAAU01@ABU01@@Z 00430960 f i imageio.obj
 0001:0002f9b0       ?assign@?$CImg@E@cimg_library@@QAEAAU12@IIII@Z 004309b0 f i imageio.obj
 0001:0002fb70       ??R?$CImg@E@cimg_library@@QAEAAEIIII@Z 00430b70 f i imageio.obj
 0001:0002fbd0       ??A?$CImg@E@cimg_library@@QAEAAEK@Z 00430bd0 f i imageio.obj
 0001:0002fc20       ?resize@?$CImg@E@cimg_library@@QAEAAU12@HHHHI@Z 00430c20 f i imageio.obj
 0001:0002fe20       ?mirror@?$CImg@E@cimg_library@@QAEAAU12@D@Z 00430e20 f i imageio.obj
 0001:000303f0       ?_load_inr@?$CImg@E@cimg_library@@SAXPAU_iobuf@@QAHPAM@Z 004313f0 f i imageio.obj
 0001:000309d0       ?strncmp@cimg@cimg_library@@YAHPBD0H@Z 004319d0 f i imageio.obj
 0001:00030a60       ??1?$CImg@G@cimg_library@@QAE@XZ 00431a60 f i imageio.obj
 0001:00030ad0       ??0?$CImg@G@cimg_library@@QAE@IIII@Z 00431ad0 f i imageio.obj
 0001:00030bb0       ?ptr@?$CImg@G@cimg_library@@QAEPAGIIII@Z 00431bb0 f i imageio.obj
 0001:00030c10       ??1?$CImgl@E@cimg_library@@QAE@XZ 00431c10 f i imageio.obj
 0001:00030c90       ??0?$CImgl@E@cimg_library@@QAE@PBD@Z 00431c90 f i imageio.obj
 0001:00030d00       ?get_load_parrec@?$CImgl@E@cimg_library@@SA?AU12@PBD@Z 00431d00 f i imageio.obj
 0001:00031cb0       ?get_append@?$CImgl@E@cimg_library@@QBE?AU?$CImg@E@2@DD@Z 00432cb0 f i imageio.obj
 0001:000329e0       ??_E?$CImg@E@cimg_library@@QAEPAXI@Z 004339e0 f i imageio.obj
 0001:00032a80       ?assign@?$CImg@E@cimg_library@@QAEAAU12@XZ 00433a80 f i imageio.obj
 0001:00032b30       ?assign@?$CImg@E@cimg_library@@QAEAAU12@IIIIABE@Z 00433b30 f i imageio.obj
 0001:00032b90       ?get_resize@?$CImg@E@cimg_library@@QBE?AU12@HHHHI@Z 00433b90 f i imageio.obj
 0001:00034660       ?draw_image@?$CImg@E@cimg_library@@QAEAAU12@ABU12@HHHHM@Z 00435660 f i imageio.obj
 0001:00034db0       ?abs@cimg@cimg_library@@YAMM@Z 00435db0 f i imageio.obj
 0001:00034e00       ?offset@?$CImg@G@cimg_library@@QBEJHHHH@Z 00435e00 f i imageio.obj
 0001:00034e70       ??R?$CImg@G@cimg_library@@QAEAAGIIII@Z 00435e70 f i imageio.obj
 0001:00034ed0       ??0?$CImgl@E@cimg_library@@QAE@XZ 00435ed0 f i imageio.obj
 0001:00034f20       ??0?$CImgl@E@cimg_library@@QAE@ABU01@@Z 00435f20 f i imageio.obj
 0001:00034f90       ?assign@?$CImgl@E@cimg_library@@QAEAAU12@PBD@Z 00435f90 f i imageio.obj
 0001:00034fe0       ?pixel_type@?$CImgl@E@cimg_library@@SAPBDXZ 00435fe0 f i imageio.obj
 0001:00035050       ?is_empty@?$CImgl@E@cimg_library@@QBE_NXZ 00436050 f i imageio.obj
 0001:000350b0       ??A?$CImgl@E@cimg_library@@QAEAAU?$CImg@E@1@I@Z 004360b0 f i imageio.obj
 0001:000350f0       ??A?$CImgl@E@cimg_library@@QBEABU?$CImg@E@1@I@Z 004360f0 f i imageio.obj
 0001:00035130       ?insert@?$CImgl@E@cimg_library@@QAEAAU12@ABU?$CImg@E@2@@Z 00436130 f i imageio.obj
 0001:00035180       ??0?$CImgl@M@cimg_library@@QAE@XZ 00436180 f i imageio.obj
 0001:000351d0       ??1?$CImgl@M@cimg_library@@QAE@XZ 004361d0 f i imageio.obj
 0001:00035250       ??A?$CImgl@M@cimg_library@@QAEAAU?$CImg@M@1@I@Z 00436250 f i imageio.obj
 0001:00035290       ?insert@?$CImgl@M@cimg_library@@QAEAAU12@ABU?$CImg@M@2@@Z 00436290 f i imageio.obj
 0001:000352e0       ??0?$CImgl@I@cimg_library@@QAE@XZ 004362e0 f i imageio.obj
 0001:00035330       ??1?$CImgl@I@cimg_library@@QAE@XZ 00436330 f i imageio.obj
 0001:000353b0       ??A?$CImgl@I@cimg_library@@QAEAAU?$CImg@I@1@I@Z 004363b0 f i imageio.obj
 0001:000353f0       ?insert@?$CImgl@I@cimg_library@@QAEAAU12@ABU?$CImg@I@2@@Z 004363f0 f i imageio.obj
 0001:00035440       ??1?$CImg@M@cimg_library@@QAE@XZ 00436440 f i imageio.obj
 0001:000354b0       ??A?$CImg@M@cimg_library@@QAEAAMK@Z 004364b0 f i imageio.obj
 0001:00035500       ??A?$CImg@M@cimg_library@@QBEABMK@Z 00436500 f i imageio.obj
 0001:00035550       ?vector@?$CImg@M@cimg_library@@SA?AU12@ABM0000000@Z 00436550 f i imageio.obj
 0001:00035640       ??1?$CImg@I@cimg_library@@QAE@XZ 00436640 f i imageio.obj
 0001:000356b0       ??0?$CImg@I@cimg_library@@QAE@IIII@Z 004366b0 f i imageio.obj
 0001:00035790       ??R?$CImg@I@cimg_library@@QAEAAIIIII@Z 00436790 f i imageio.obj
 0001:000357f0       ??A?$CImg@I@cimg_library@@QAEAAIK@Z 004367f0 f i imageio.obj
 0001:00035840       ??A?$CImg@I@cimg_library@@QBEABIK@Z 00436840 f i imageio.obj
 0001:00035890       ?vector@?$CImg@I@cimg_library@@SA?AU12@ABI00@Z 00436890 f i imageio.obj
 0001:00035970       ??_E?$CImg@M@cimg_library@@QAEPAXI@Z 00436970 f i imageio.obj
 0001:00035a10       ??_E?$CImg@I@cimg_library@@QAEPAXI@Z 00436a10 f i imageio.obj
 0001:00035ab0       ?dimz@?$CImg@E@cimg_library@@QBEHXZ 00436ab0 f i imageio.obj
 0001:00035ae0       ??R?$CImg@E@cimg_library@@QBEABEIIII@Z 00436ae0 f i imageio.obj
 0001:00035b40       ?linear_pix4d@?$CImg@E@cimg_library@@QBEMMMMM@Z 00436b40 f i imageio.obj
 0001:000366b0       ?cubic_pix2d@?$CImg@E@cimg_library@@QBEMMMHH@Z 004376b0 f i imageio.obj
 0001:00036f10       ?fill@?$CImg@E@cimg_library@@QAEAAU12@ABE@Z 00437f10 f i imageio.obj
 0001:00036fe0       ?insert@?$CImgl@E@cimg_library@@QAEAAU12@ABU?$CImg@E@2@I_N@Z 00437fe0 f i imageio.obj
 0001:00037430       ?load@?$CImgl@E@cimg_library@@QAEAAU12@PBD@Z 00438430 f i imageio.obj
 0001:000374f0       ?insert@?$CImgl@M@cimg_library@@QAEAAU12@ABU?$CImg@M@2@I_N@Z 004384f0 f i imageio.obj
 0001:00037940       ?insert@?$CImgl@I@cimg_library@@QAEAAU12@ABU?$CImg@I@2@I_N@Z 00438940 f i imageio.obj
 0001:00037d90       ??0?$CImg@M@cimg_library@@QAE@ABU01@@Z 00438d90 f i imageio.obj
 0001:00037ed0       ??0?$CImg@M@cimg_library@@QAE@IIII@Z 00438ed0 f i imageio.obj
 0001:00037fb0       ??R?$CImg@M@cimg_library@@QAEAAMIIII@Z 00438fb0 f i imageio.obj
 0001:00038010       ??R?$CImg@M@cimg_library@@QBEABMIIII@Z 00439010 f i imageio.obj
 0001:00038070       ?fill@?$CImg@M@cimg_library@@QAEAAU12@ABM0000000@Z 00439070 f i imageio.obj
 0001:00038270       ??0?$CImg@I@cimg_library@@QAE@ABU01@@Z 00439270 f i imageio.obj
 0001:000383b0       ?offset@?$CImg@I@cimg_library@@QBEJHHHH@Z 004393b0 f i imageio.obj
 0001:00038420       ??R?$CImg@I@cimg_library@@QBEABIIIII@Z 00439420 f i imageio.obj
 0001:00038480       ?fill@?$CImg@I@cimg_library@@QAEAAU12@ABI00@Z 00439480 f i imageio.obj
 0001:00038580       ?_cubic_R@?$CImg@E@cimg_library@@SAMM@Z 00439580 f i imageio.obj
 0001:000386d0       ?get_load@?$CImgl@E@cimg_library@@SA?AU12@PBD@Z 004396d0 f i imageio.obj
 0001:00038890       ?swap@?$CImgl@E@cimg_library@@QAEAAU12@AAU12@@Z 00439890 f i imageio.obj
 0001:00038910       ?pixel_type@?$CImgl@M@cimg_library@@SAPBDXZ 00439910 f i imageio.obj
 0001:00038980       ?get_type@cimg@cimg_library@@YAPBDABM@Z 00439980 f i imageio.obj
 0001:000389b0       ?pixel_type@?$CImgl@I@cimg_library@@SAPBDXZ 004399b0 f i imageio.obj
 0001:00038a20       ?get_type@cimg@cimg_library@@YAPBDABI@Z 00439a20 f i imageio.obj
 0001:00038a50       ??0?$CImg@M@cimg_library@@QAE@XZ 00439a50 f i imageio.obj
 0001:00038ac0       ??4?$CImg@M@cimg_library@@QAEAAU01@ABU01@@Z 00439ac0 f i imageio.obj
 0001:00038b10       ?size@?$CImg@M@cimg_library@@QBEKXZ 00439b10 f i imageio.obj
 0001:00038b60       ?is_empty@?$CImg@M@cimg_library@@QBE_NXZ 00439b60 f i imageio.obj
 0001:00038be0       ?offset@?$CImg@M@cimg_library@@QBEJHHHH@Z 00439be0 f i imageio.obj
 0001:00038c50       ?end@?$CImg@M@cimg_library@@QAEPAMXZ 00439c50 f i imageio.obj
 0001:00038ca0       ??0?$CImg@I@cimg_library@@QAE@XZ 00439ca0 f i imageio.obj
 0001:00038d10       ??4?$CImg@I@cimg_library@@QAEAAU01@ABU01@@Z 00439d10 f i imageio.obj
 0001:00038d60       ?size@?$CImg@I@cimg_library@@QBEKXZ 00439d60 f i imageio.obj
 0001:00038db0       ?is_empty@?$CImg@I@cimg_library@@QBE_NXZ 00439db0 f i imageio.obj
 0001:00038e30       ?end@?$CImg@I@cimg_library@@QAEPAIXZ 00439e30 f i imageio.obj
 0001:00038e80       ??0?$CImgl@E@cimg_library@@QAE@ABU?$CImg@E@1@_N@Z 00439e80 f i imageio.obj
 0001:00038ef0       ?get_load_cimg@?$CImgl@E@cimg_library@@SA?AU12@PBD@Z 00439ef0 f i imageio.obj
 0001:0003b780       ??0?$CImgl@E@cimg_library@@QAE@I@Z 0043c780 f i imageio.obj
 0001:0003b8d0       ?assign@?$CImgl@E@cimg_library@@QAEAAU12@ABU?$CImg@E@2@_N@Z 0043c8d0 f i imageio.obj
 0001:0003b920       ??$dialog@E@cimg@cimg_library@@YAHPBD0000000ABU?$CImg@E@1@_N@Z 0043c920 f i imageio.obj
 0001:0003d100       ??1CImgDisplay@cimg_library@@QAE@XZ 0043e100 f i imageio.obj
 0001:0003d140       ?dimx@CImgDisplay@cimg_library@@QBEHXZ 0043e140 f i imageio.obj
 0001:0003d170       ?dimy@CImgDisplay@cimg_library@@QBEHXZ 0043e170 f i imageio.obj
 0001:0003d1a0       ?wait@CImgDisplay@cimg_library@@QAEAAU12@I@Z 0043e1a0 f i imageio.obj
 0001:0003d1f0       ?wait@cimg@cimg_library@@YAIIAAK@Z 0043e1f0 f i imageio.obj
 0001:0003d280       ?time@cimg@cimg_library@@YAKXZ 0043e280 f i imageio.obj
 0001:0003d300       ?sleep@cimg@cimg_library@@YAXI@Z 0043e300 f i imageio.obj
 0001:0003d350       ?resize@CImgDisplay@cimg_library@@QAEAAU12@ABU12@_N@Z 0043e350 f i imageio.obj
 0001:0003d3b0       ?screen_dimx@CImgDisplay@cimg_library@@SAHXZ 0043e3b0 f i imageio.obj
 0001:0003d450       ?screen_dimy@CImgDisplay@cimg_library@@SAHXZ 0043e450 f i imageio.obj
 0001:0003d4f0       ?assign@CImgDisplay@cimg_library@@QAEAAU12@XZ 0043e4f0 f i imageio.obj
 0001:0003d690       ?resize@CImgDisplay@cimg_library@@QAEAAU12@HH_N@Z 0043e690 f i imageio.obj
 0001:0003da40       ?move@CImgDisplay@cimg_library@@QAEAAU12@HH@Z 0043ea40 f i imageio.obj
 0001:0003dbb0       ?show@CImgDisplay@cimg_library@@QAEAAU12@XZ 0043ebb0 f i imageio.obj
 0001:0003dd10       ?paint@CImgDisplay@cimg_library@@QAEAAU12@XZ 0043ed10 f i imageio.obj
 0001:0003dde0       ?_init_fullscreen@CImgDisplay@cimg_library@@QAEXXZ 0043ede0 f i imageio.obj
 0001:0003e0d0       ?_desinit_fullscreen@CImgDisplay@cimg_library@@QAEXXZ 0043f0d0 f i imageio.obj
 0001:0003e180       ??$_render_resize@II@CImgDisplay@cimg_library@@SAXPBIIIPAIII@Z 0043f180 f i imageio.obj
 0001:0003e530       ??$?0E@CImgStats@cimg_library@@QAE@ABU?$CImg@E@1@_N@Z 0043f530 f i imageio.obj
 0001:0003e580       ??$swap@I@cimg@cimg_library@@YAXAAI0@Z 0043f580 f i imageio.obj
 0001:0003e5c0       ??$swap@PAE@cimg@cimg_library@@YAXAAPAE0@Z 0043f5c0 f i imageio.obj
 0001:0003e600       ??$assign@E@?$CImg@E@cimg_library@@QAEAAU01@ABU01@@Z 0043f600 f i imageio.obj
 0001:0003e670       ??$max@I@cimg@cimg_library@@YAABIABI0@Z 0043f670 f i imageio.obj
 0001:0003e6d0       ??$fread@E@cimg@cimg_library@@YAHPAEIPAU_iobuf@@@Z 0043f6d0 f i imageio.obj
 0001:0003e7c0       ??$fread@G@cimg@cimg_library@@YAHPAGIPAU_iobuf@@@Z 0043f7c0 f i imageio.obj
 0001:0003e8b0       ??$endian_swap@G@cimg@cimg_library@@YAXQAGI@Z 0043f8b0 f i imageio.obj
 0001:0003ea40       ??$?4G@?$CImg@E@cimg_library@@QAEAAU01@ABU?$CImg@G@1@@Z 0043fa40 f i imageio.obj
 0001:0003ea90       ??$min@H@cimg@cimg_library@@YAABHABH0@Z 0043fa90 f i imageio.obj
 0001:0003eaf0       ??$fread@H@cimg@cimg_library@@YAHPAHIPAU_iobuf@@@Z 0043faf0 f i imageio.obj
 0001:0003ebe0       ??$ror@E@cimg@cimg_library@@YA?BEABEI@Z 0043fbe0 f i imageio.obj
 0001:0003ec30       ??$endian_swap@E@cimg@cimg_library@@YAXQAEI@Z 0043fc30 f i imageio.obj
 0001:0003edb0       ??$fread@D@cimg@cimg_library@@YAHPADIPAU_iobuf@@@Z 0043fdb0 f i imageio.obj
 0001:0003eea0       ??$endian_swap@D@cimg@cimg_library@@YAXQADI@Z 0043fea0 f i imageio.obj
 0001:0003f020       ??$fread@F@cimg@cimg_library@@YAHPAFIPAU_iobuf@@@Z 00440020 f i imageio.obj
 0001:0003f110       ??$endian_swap@F@cimg@cimg_library@@YAXQAFI@Z 00440110 f i imageio.obj
 0001:0003f2a0       ??$fread@I@cimg@cimg_library@@YAHPAIIPAU_iobuf@@@Z 004402a0 f i imageio.obj
 0001:0003f390       ??$endian_swap@I@cimg@cimg_library@@YAXQAII@Z 00440390 f i imageio.obj
 0001:0003f520       ??$endian_swap@H@cimg@cimg_library@@YAXQAHI@Z 00440520 f i imageio.obj
 0001:0003f6b0       ??$fread@M@cimg@cimg_library@@YAHPAMIPAU_iobuf@@@Z 004406b0 f i imageio.obj
 0001:0003f7a0       ??$endian_swap@M@cimg@cimg_library@@YAXQAMI@Z 004407a0 f i imageio.obj
 0001:0003f930       ??$fread@N@cimg@cimg_library@@YAHPANIPAU_iobuf@@@Z 00440930 f i imageio.obj
 0001:0003fa20       ??$endian_swap@N@cimg@cimg_library@@YAXQANI@Z 00440a20 f i imageio.obj
 0001:0003fbb0       ??$endian_swap@I@cimg@cimg_library@@YAAAIAAI@Z 00440bb0 f i imageio.obj
 0001:0003fc00       ??$fread@J@cimg@cimg_library@@YAHPAJIPAU_iobuf@@@Z 00440c00 f i imageio.obj
 0001:0003fcf0       ??$endian_swap@J@cimg@cimg_library@@YAXQAJI@Z 00440cf0 f i imageio.obj
 0001:0003fe80       ??$fread@K@cimg@cimg_library@@YAHPAKIPAU_iobuf@@@Z 00440e80 f i imageio.obj
 0001:0003ff70       ??$endian_swap@K@cimg@cimg_library@@YAXQAKI@Z 00440f70 f i imageio.obj
 0001:00040100       ??$max@M@cimg@cimg_library@@YAABMABM0@Z 00441100 f i imageio.obj
 0001:00040160       ??$assign@E@?$CImgl@E@cimg_library@@QAEAAU01@ABU01@_N@Z 00441160 f i imageio.obj
 0001:000401f0       ??$swap@PAU?$CImg@E@cimg_library@@@cimg@cimg_library@@YAXAAPAU?$CImg@E@1@0@Z 004411f0 f i imageio.obj
 0001:00040230       ??$assign@M@?$CImg@M@cimg_library@@QAEAAU01@ABU01@@Z 00441230 f i imageio.obj
 0001:000402a0       ??$assign@I@?$CImg@I@cimg_library@@QAEAAU01@ABU01@@Z 004412a0 f i imageio.obj
 0001:00040310       ??$nearest_pow2@I@cimg@cimg_library@@YAKABI@Z 00441310 f i imageio.obj
 0001:00040360       ??$assign@E@?$CImgl@E@cimg_library@@QAEAAU01@IABU?$CImg@E@1@_N@Z 00441360 f i imageio.obj
 0001:000403e0       ?assign@?$CImg@E@cimg_library@@QAEAAU12@QBEIIII@Z 004413e0 f i imageio.obj
 0001:000404b0       ?draw_line@?$CImg@E@cimg_library@@QAEAAU12@HHHHQBEIM@Z 004414b0 f i imageio.obj
 0001:00040ba0       ?draw_rectangle@?$CImg@E@cimg_library@@QAEAAU12@HHHHQBEM@Z 00441ba0 f i imageio.obj
 0001:00040c10       ?draw_text@?$CImg@E@cimg_library@@QAEAAU12@QBDHHQBE1IM@Z 00441c10 f i imageio.obj
 0001:00040cf0       ?display@?$CImg@E@cimg_library@@QBEABU12@AAUCImgDisplay@2@@Z 00441cf0 f i imageio.obj
 0001:00040d40       ?assign@?$CImgl@E@cimg_library@@QAEAAU12@I@Z 00441d40 f i imageio.obj
 0001:00040f00       ?assign@?$CImg@M@cimg_library@@QAEAAU12@QBMIIII@Z 00441f00 f i imageio.obj
 0001:00040fd0       ?assign@?$CImg@I@cimg_library@@QAEAAU12@QBIIIII@Z 00441fd0 f i imageio.obj
 0001:000410a0       ?draw_rectangle@?$CImg@E@cimg_library@@QAEAAU12@HHHHHHQBEM@Z 004420a0 f i imageio.obj
 0001:00041190       ?assign@?$CImgl@E@cimg_library@@QAEAAU12@XZ 00442190 f i imageio.obj
 0001:00041230       ?get_font@?$CImgl@E@cimg_library@@SA?AU12@I_N@Z 00442230 f i imageio.obj
 0001:00042070       ?assign@?$CImg@M@cimg_library@@QAEAAU12@IIII@Z 00443070 f i imageio.obj
 0001:00042240       ?assign@?$CImg@I@cimg_library@@QAEAAU12@IIII@Z 00443240 f i imageio.obj
 0001:00042410       ?draw_rectangle@?$CImg@E@cimg_library@@QAEAAU12@HHHHHHHHABEM@Z 00443410 f i imageio.obj
 0001:00042ae0       ??4?$CImgl@E@cimg_library@@QAEAAU01@ABU01@@Z 00443ae0 f i imageio.obj
 0001:00042b30       ?get_font@?$CImgl@E@cimg_library@@SA?AU12@QBIIIII_N@Z 00443b30 f i imageio.obj
 0001:00042e60       ?pixel_type@?$CImg@M@cimg_library@@SAPBDXZ 00443e60 f i imageio.obj
 0001:00042ea0       ?pixel_type@?$CImg@I@cimg_library@@SAPBDXZ 00443ea0 f i imageio.obj
 0001:00042ee0       ??0?$CImgl@E@cimg_library@@QAE@IIIII@Z 00443ee0 f i imageio.obj
 0001:00042f60       ?insert@?$CImgl@E@cimg_library@@QAEAAU12@ABU12@@Z 00443f60 f i imageio.obj
 0001:00042fb0       ?crop_font@?$CImgl@E@cimg_library@@QAEAAU12@XZ 00443fb0 f i imageio.obj
 0001:00043070       ?assign@?$CImgl@E@cimg_library@@QAEAAU12@IIIII@Z 00444070 f i imageio.obj
 0001:00043130       ?insert@?$CImgl@E@cimg_library@@QAEAAU12@ABU12@I@Z 00444130 f i imageio.obj
 0001:00043230       ?get_crop_font@?$CImgl@E@cimg_library@@QBE?AU12@XZ 00444230 f i imageio.obj
 0001:000434d0       ??0?$CImg@E@cimg_library@@QAE@IIIIABE@Z 004444d0 f i imageio.obj
 0001:000435b0       ?get_crop@?$CImg@E@cimg_library@@QBE?AU12@IIII_N@Z 004445b0 f i imageio.obj
 0001:00043640       ?get_crop@?$CImg@E@cimg_library@@QBE?AU12@IIIIIIII_N@Z 00444640 f i imageio.obj
 0001:00043d40       ?pix4d@?$CImg@E@cimg_library@@QBEEHHHHABE@Z 00444d40 f i imageio.obj
 0001:00043e00       ?pix4d@?$CImg@E@cimg_library@@QBEEHHHH@Z 00444e00 f i imageio.obj
 0001:00043f80       ??$max@I@cimg@cimg_library@@YAABIABI00@Z 00444f80 f i imageio.obj
 0001:00043fd0       ??$?0E@CImgDisplay@cimg_library@@QAE@ABU?$CImg@E@1@PBDII_N2@Z 00444fd0 f i imageio.obj
 0001:000440f0       ??$assign@E@CImgStats@cimg_library@@QAEAAU01@ABU?$CImg@E@1@_N@Z 004450f0 f i imageio.obj
 0001:000444c0       ??$swap@E@cimg@cimg_library@@YAXAAE0@Z 004454c0 f i imageio.obj
 0001:00044500       ??$assign@G@?$CImg@E@cimg_library@@QAEAAU01@ABU?$CImg@G@1@@Z 00445500 f i imageio.obj
 0001:00044570       ??$assign@E@?$CImg@E@cimg_library@@QAEAAU01@ABU01@_N@Z 00445570 f i imageio.obj
 0001:000445e0       ??$swap@HH@cimg@cimg_library@@YAXAAH000@Z 004455e0 f i imageio.obj
 0001:00044640       ??$max@H@cimg@cimg_library@@YAABHABH0@Z 00445640 f i imageio.obj
 0001:000446a0       ??$draw_text@E@?$CImg@E@cimg_library@@QAEAAU01@QBDHHQBE1ABU?$CImgl@E@1@M@Z 004456a0 f i imageio.obj
 0001:00044cf0       ??$display@E@CImgDisplay@cimg_library@@QAEAAU01@ABU?$CImg@E@1@@Z 00445cf0 f i imageio.obj
 0001:00044d40       ?assign@?$CImg@E@cimg_library@@QAEAAU12@QBEIIII_N@Z 00445d40 f i imageio.obj
 0001:00044e80       ??A?$CImg@E@cimg_library@@QBEABEK@Z 00445e80 f i imageio.obj
 0001:00044ed0       ?get_shared_channel@?$CImg@E@cimg_library@@QAE?AU12@I@Z 00445ed0 f i imageio.obj
 0001:00044f40       ?get_shared_channels@?$CImg@E@cimg_library@@QAE?AU12@II@Z 00445f40 f i imageio.obj
 0001:000450b0       ??$assign@E@CImgDisplay@cimg_library@@QAEAAU01@ABU?$CImg@E@1@PBDII_N2@Z 004460b0 f i imageio.obj
 0001:00045310       ?assign_lowlevel@CImgDisplay@cimg_library@@QAEAAU12@IIPBDII_N1@Z 00446310 f i imageio.obj
 0001:000455a0       ?_events_thread@CImgDisplay@cimg_library@@SGKPAX@Z 004465a0 f i imageio.obj
 0001:00045a60       ?_handle_events@CImgDisplay@cimg_library@@SGJPAUHWND__@@IIJ@Z 00446a60 f i imageio.obj
 0001:00046100       ?Win32attr@cimg@cimg_library@@YAAAUWin32info@12@XZ 00447100 f i imageio.obj
 0001:00046190       ??0Win32info@cimg@cimg_library@@QAE@XZ 00447190 f i imageio.obj
 0001:000461f0       ??$assign@G@?$CImg@E@cimg_library@@QAEAAU01@QBGIIII@Z 004471f0 f i imageio.obj
 0001:00046310       ??$swap@H@cimg@cimg_library@@YAXAAH0@Z 00447310 f i imageio.obj
 0001:00046350       ??$draw_image@EE@?$CImg@E@cimg_library@@QAEAAU01@ABU01@0HHHHEM@Z 00447350 f i imageio.obj
 0001:00046c60       ??$render@E@CImgDisplay@cimg_library@@QAEAAU01@ABU?$CImg@E@1@@Z 00447c60 f i imageio.obj
 0001:000471b0       ?get_projections2d@?$CImg@E@cimg_library@@QBE?AU12@III@Z 004481b0 f i imageio.obj
 0001:000475b0       ??0Camera@@QAE@XZ          004485b0 f   camera.obj
 0001:00047710       ?rayThrough@Camera@@QAEXNNAAVray@@@Z 00448710 f   camera.obj
 0001:00047880       ?setEye@Camera@@QAEXABV?$Vec3@N@@@Z 00448880 f   camera.obj
 0001:000478d0       ?setLook@Camera@@QAEXNNNN@Z 004488d0 f   camera.obj
 0001:00047ab0       ?setLook@Camera@@QAEXABV?$Vec3@N@@0@Z 00448ab0 f   camera.obj
 0001:00047c30       ?setFOV@Camera@@QAEXN@Z    00448c30 f   camera.obj
 0001:00047ca0       ?setAspectRatio@Camera@@QAEXN@Z 00448ca0 f   camera.obj
 0001:00047cf0       ?update@Camera@@AAEXXZ     00448cf0 f   camera.obj
 0001:00047e70       ?setLookSimple@Camera@@QAE_NABV?$Vec3@N@@0@Z 00448e70 f   camera.obj
 0001:00048070       ??0?$Mat3@N@@QAE@XZ        00449070 f i camera.obj
 0001:000480e0       ??0?$Mat3@N@@QAE@NNNNNNNNN@Z 004490e0 f i camera.obj
 0001:00048160       ??4?$Mat3@N@@QAEAAV0@ABV0@@Z 00449160 f i camera.obj
 0001:000481b0       ??A?$Mat3@N@@QAEPANH@Z     004491b0 f i camera.obj
 0001:000481f0       ?transpose@?$Mat3@N@@QBE?AV1@XZ 004491f0 f i camera.obj
 0001:000482a0       ??$?GN@@YA?AV?$Vec3@N@@ABV0@@Z 004492a0 f i camera.obj
 0001:00048310       ??$?DN@@YA?AV?$Vec3@N@@ABV?$Mat3@N@@ABV0@@Z 00449310 f i camera.obj
 0001:000483e0       ?distanceAttenuation@DirectionalLight@@UBENABV?$Vec3@N@@@Z 004493e0 f   light.obj
 0001:00048410       ?shadowAttenuation@DirectionalLight@@UBE?AV?$Vec3@N@@ABV2@@Z 00449410 f   light.obj
 0001:00048470       ?getColor@DirectionalLight@@UBE?AV?$Vec3@N@@ABV2@@Z 00449470 f   light.obj
 0001:000484c0       ?getDirection@DirectionalLight@@UBE?AV?$Vec3@N@@ABV2@@Z 004494c0 f   light.obj
 0001:00048510       ?distanceAttenuation@PointLight@@UBENABV?$Vec3@N@@@Z 00449510 f   light.obj
 0001:00048540       ?getColor@PointLight@@UBE?AV?$Vec3@N@@ABV2@@Z 00449540 f   light.obj
 0001:00048590       ?getDirection@PointLight@@UBE?AV?$Vec3@N@@ABV2@@Z 00449590 f   light.obj
 0001:00048630       ?shadowAttenuation@PointLight@@UBE?AV?$Vec3@N@@ABV2@@Z 00449630 f   light.obj
 0001:00048690       ?shade@Material@@UBE?AV?$Vec3@N@@PAVScene@@ABVray@@ABVisect@@@Z 00449690 f   material.obj
 0001:00048720       ??0TextureMap@@QAE@V?$basic_string@DU?$char_traits@D@std@@V?$allocator@D@2@@std@@@Z 00449720 f   material.obj
 0001:000488d0       ??0TextureMapException@@QAE@V?$basic_string@DU?$char_traits@D@std@@V?$allocator@D@2@@std@@@Z 004498d0 f i material.obj
 0001:00048990       ??0TextureMapException@@QAE@ABV0@@Z 00449990 f i material.obj
 0001:000489e0       ?getMappedValue@TextureMap@@QBE?AV?$Vec3@N@@ABV?$Vec2@N@@@Z 004499e0 f   material.obj
 0001:00048a40       ?getPixelAt@TextureMap@@ABE?AV?$Vec3@N@@HH@Z 00449a40 f   material.obj
 0001:00048b70       ?value@MaterialParameter@@QBE?AV?$Vec3@N@@ABVisect@@@Z 00449b70 f   material.obj
 0001:00048be0       ?intensityValue@MaterialParameter@@QBENABVisect@@@Z 00449be0 f   material.obj
 0001:00048d20       ?getMaterial@isect@@QBEABVMaterial@@XZ 00449d20 f   ray.obj
 0001:00048db0       ??4BoundingBox@@QAEXABV0@@Z 00449db0 f   scene.obj
 0001:00048e10       ?intersects@BoundingBox@@QBE_NABV1@@Z 00449e10 f   scene.obj
 0001:00048fa0       ?intersects@BoundingBox@@QBE_NABV?$Vec3@N@@@Z 00449fa0 f   scene.obj
 0001:00049120       ?intersect@BoundingBox@@QBE_NABVray@@AAN1@Z 0044a120 f   scene.obj
 0001:00049380       ?intersect@Geometry@@QBE_NABVray@@AAVisect@@@Z 0044a380 f   scene.obj
 0001:000495a0       ?globalToLocalCoords@TransformNode@@QAE?AV?$Vec3@N@@ABV2@@Z 0044a5a0 f i scene.obj
 0001:00049600       ?localToGlobalCoordsNormal@TransformNode@@QAE?AV?$Vec3@N@@ABV2@@Z 0044a600 f i scene.obj
 0001:000496b0       ?hasBoundingBoxCapability@Geometry@@UBE_NXZ 0044a6b0 f   scene.obj
 0001:000496e0       ??1Scene@@UAE@XZ           0044a6e0 f   scene.obj
 0001:00049bd0       ??_GScene@@UAEPAXI@Z       0044abd0 f i scene.obj
 0001:00049bd0       ??_EScene@@UAEPAXI@Z       0044abd0 f i scene.obj
 0001:00049c30       ??1TransformRoot@@QAE@XZ   0044ac30 f i scene.obj
 0001:00049c70       ??1TransformNode@@QAE@XZ   0044ac70 f i scene.obj
 0001:00049df0       ??1?$_Vector_iterator@V?$_Vector_val@PAVTransformNode@@V?$allocator@PAVTransformNode@@@std@@@std@@@std@@QAE@XZ 0044adf0 f i scene.obj
 0001:00049e30       ??_GTransformNode@@QAEPAXI@Z 0044ae30 f i scene.obj
 0001:00049e90       ??1?$_Vector_const_iterator@V?$_Vector_val@PAVTransformNode@@V?$allocator@PAVTransformNode@@@std@@@std@@@std@@QAE@XZ 0044ae90 f i scene.obj
 0001:00049ed0       ??1?$_Iterator012@Urandom_access_iterator_tag@std@@PAVTransformNode@@HPBQAV3@ABQAV3@U_Iterator_base12@2@@std@@QAE@XZ 0044aed0 f i scene.obj
 0001:00049f10       ??1?$map@V?$basic_string@DU?$char_traits@D@std@@V?$allocator@D@2@@std@@PAVTextureMap@@U?$less@V?$basic_string@DU?$char_traits@D@std@@V?$allocator@D@2@@std@@@2@V?$allocator@U?$pair@$$CBV?$basic_string@DU?$char_traits@D@std@@V?$allocator@D@2@@std@@PAVTextureMap@@@std@@@2@@std@@QAE@XZ 0044af10 f i scene.obj
 0001:00049f50       ??1?$_Vector_iterator@V?$_Vector_val@PAVGeometry@@V?$allocator@PAVGeometry@@@std@@@std@@@std@@QAE@XZ 0044af50 f i scene.obj
 0001:00049f90       ??1?$_Vector_iterator@V?$_Vector_val@PAVLight@@V?$allocator@PAVLight@@@std@@@std@@@std@@QAE@XZ 0044af90 f i scene.obj
 0001:00049fd0       ??1?$_Tree_iterator@V?$_Tree_val@V?$_Tmap_traits@V?$basic_string@DU?$char_traits@D@std@@V?$allocator@D@2@@std@@PAVTextureMap@@U?$less@V?$basic_string@DU?$char_traits@D@std@@V?$allocator@D@2@@std@@@2@V?$allocator@U?$pair@$$CBV?$basic_string@DU?$char_traits@D@std@@V?$allocator@D@2@@std@@PAVTextureMap@@@std@@@2@$0A@@std@@@std@@@std@@QAE@XZ 0044afd0 f i scene.obj
 0001:0004a010       ??4?$_Vector_iterator@V?$_Vector_val@PAVGeometry@@V?$allocator@PAVGeometry@@@std@@@std@@@std@@QAEAAV01@ABV01@@Z 0044b010 f i scene.obj
 0001:0004a060       ??4?$_Vector_const_iterator@V?$_Vector_val@PAVGeometry@@V?$allocator@PAVGeometry@@@std@@@std@@@std@@QAEAAV01@ABV01@@Z 0044b060 f i scene.obj
 0001:0004a0c0       ??4?$_Iterator012@Urandom_access_iterator_tag@std@@PAVGeometry@@HPBQAV3@ABQAV3@U_Iterator_base12@2@@std@@QAEAAU01@ABU01@@Z 0044b0c0 f i scene.obj
 0001:0004a110       ??4?$_Vector_iterator@V?$_Vector_val@PAVLight@@V?$allocator@PAVLight@@@std@@@std@@@std@@QAEAAV01@ABV01@@Z 0044b110 f i scene.obj
 0001:0004a160       ??4?$_Tree_iterator@V?$_Tree_val@V?$_Tmap_traits@V?$basic_string@DU?$char_traits@D@std@@V?$allocator@D@2@@std@@PAVTextureMap@@U?$less@V?$basic_string@DU?$char_traits@D@std@@V?$allocator@D@2@@std@@@2@V?$allocator@U?$pair@$$CBV?$basic_string@DU?$char_traits@D@std@@V?$allocator@D@2@@std@@PAVTextureMap@@@std@@@2@$0A@@std@@@std@@@std@@QAEAAV01@ABV01@@Z 0044b160 f i scene.obj
 0001:0004a1b0       ??_GTextureMap@@QAEPAXI@Z  0044b1b0 f i scene.obj
 0001:0004a210       ??1TextureMap@@QAE@XZ      0044b210 f i scene.obj
 0001:0004a270       ??_GBSPTree@@QAEPAXI@Z     0044b270 f i scene.obj
 0001:0004a2d0       ??1BSPTree@@QAE@XZ         0044b2d0 f i scene.obj
 0001:0004a350       ??_GBSPNode@@QAEPAXI@Z     0044b350 f i scene.obj
 0001:0004a3b0       ??1BSPNode@@QAE@XZ         0044b3b0 f i scene.obj
 0001:0004a4d0       ??1?$_Tree_const_iterator@V?$_Tree_val@V?$_Tmap_traits@V?$basic_string@DU?$char_traits@D@std@@V?$allocator@D@2@@std@@PAVTextureMap@@U?$less@V?$basic_string@DU?$char_traits@D@std@@V?$allocator@D@2@@std@@@2@V?$allocator@U?$pair@$$CBV?$basic_string@DU?$char_traits@D@std@@V?$allocator@D@2@@std@@PAVTextureMap@@@std@@@2@$0A@@std@@@std@@@std@@QAE@XZ 0044b4d0 f i scene.obj
 0001:0004a510       ??4?$_Vector_const_iterator@V?$_Vector_val@PAVLight@@V?$allocator@PAVLight@@@std@@@std@@@std@@QAEAAV01@ABV01@@Z 0044b510 f i scene.obj
 0001:0004a570       ??4?$_Tree_const_iterator@V?$_Tree_val@V?$_Tmap_traits@V?$basic_string@DU?$char_traits@D@std@@V?$allocator@D@2@@std@@PAVTextureMap@@U?$less@V?$basic_string@DU?$char_traits@D@std@@V?$allocator@D@2@@std@@@2@V?$allocator@U?$pair@$$CBV?$basic_string@DU?$char_traits@D@std@@V?$allocator@D@2@@std@@PAVTextureMap@@@std@@@2@$0A@@std@@@std@@@std@@QAEAAV01@ABV01@@Z 0044b570 f i scene.obj
 0001:0004a5c0       ??1?$_Tree_unchecked_const_iterator@V?$_Tree_val@V?$_Tmap_traits@V?$basic_string@DU?$char_traits@D@std@@V?$allocator@D@2@@std@@PAVTextureMap@@U?$less@V?$basic_string@DU?$char_traits@D@std@@V?$allocator@D@2@@std@@@2@V?$allocator@U?$pair@$$CBV?$basic_string@DU?$char_traits@D@std@@V?$allocator@D@2@@std@@PAVTextureMap@@@std@@@2@$0A@@std@@@std@@U_Iterator_base12@2@@std@@QAE@XZ 0044b5c0 f i scene.obj
 0001:0004a600       ??4?$_Iterator012@Urandom_access_iterator_tag@std@@PAVLight@@HPBQAV3@ABQAV3@U_Iterator_base12@2@@std@@QAEAAU01@ABU01@@Z 0044b600 f i scene.obj
 0001:0004a650       ??4?$_Tree_unchecked_const_iterator@V?$_Tree_val@V?$_Tmap_traits@V?$basic_string@DU?$char_traits@D@std@@V?$allocator@D@2@@std@@PAVTextureMap@@U?$less@V?$basic_string@DU?$char_traits@D@std@@V?$allocator@D@2@@std@@@2@V?$allocator@U?$pair@$$CBV?$basic_string@DU?$char_traits@D@std@@V?$allocator@D@2@@std@@PAVTextureMap@@@std@@@2@$0A@@std@@@std@@U_Iterator_base12@2@@std@@QAEAAV01@ABV01@@Z 0044b650 f i scene.obj
 0001:0004a6b0       ??1?$_Iterator012@Ubidirectional_iterator_tag@std@@U?$pair@$$CBV?$basic_string@DU?$char_traits@D@std@@V?$allocator@D@2@@std@@PAVTextureMap@@@2@HPBU32@ABU32@U_Iterator_base12@2@@std@@QAE@XZ 0044b6b0 f i scene.obj
 0001:0004a6f0       ??4?$_Iterator012@Ubidirectional_iterator_tag@std@@U?$pair@$$CBV?$basic_string@DU?$char_traits@D@std@@V?$allocator@D@2@@std@@PAVTextureMap@@@2@HPBU32@ABU32@U_Iterator_base12@2@@std@@QAEAAU01@ABU01@@Z 0044b6f0 f i scene.obj
 0001:0004a740       ?intersect@Scene@@QBE_NABVray@@AAVisect@@@Z 0044b740 f   scene.obj
 0001:0004ab30       ?setT@isect@@QAEXN@Z       0044bb30 f i scene.obj
 0001:0004ab70       ?intersect@BSPTree@@QBE_NABVray@@AAVisect@@@Z 0044bb70 f i scene.obj
 0001:0004ac30       ?intersect@BSPNode@@QBE_NABVray@@AAVisect@@NN@Z 0044bc30 f i scene.obj
 0001:0004b070       ?tValueToSubdivisionPlane@BSPNode@@ABENABV?$Vec3@N@@ABVray@@@Z 0044c070 f i scene.obj
 0001:0004b170       ?getBSPEnabled@TraceUI@@QBE_NXZ 0044c170 f i scene.obj
 0001:0004b1a0       ?initBSPTree@Scene@@QAEXXZ 0044c1a0 f   scene.obj
 0001:0004b4d0       ?getBoundingBox@Geometry@@QBEABVBoundingBox@@XZ 0044c4d0 f i scene.obj
 0001:0004b500       ??0BoundingBox@@QAE@XZ     0044c500 f i scene.obj
 0001:0004b550       ??0BSPTree@@QAE@XZ         0044c550 f i scene.obj
 0001:0004b5a0       ?initialize@BSPTree@@QAEXPAV?$vector@PAVGeometry@@V?$allocator@PAVGeometry@@@std@@@std@@GKABVBoundingBox@@@Z 0044c5a0 f i scene.obj
 0001:0004b710       ??0BSPNode@@QAE@ABVBoundingBox@@ABV?$vector@PAVGeometry@@V?$allocator@PAVGeometry@@@std@@@std@@F@Z 0044c710 f i scene.obj
 0001:0004b920       ?Subdivide@BSPNode@@QAEXGGK@Z 0044c920 f i scene.obj
 0001:0004bc00       ??0?$_Vector_const_iterator@V?$_Vector_val@PAVGeometry@@V?$allocator@PAVGeometry@@@std@@@std@@@std@@QAE@ABV01@@Z 0044cc00 f i scene.obj
 0001:0004bc60       ??0?$_Iterator012@Urandom_access_iterator_tag@std@@PAVGeometry@@HPBQAV3@ABQAV3@U_Iterator_base12@2@@std@@QAE@ABU01@@Z 0044cc60 f i scene.obj
 0001:0004bcb0       ?getTexture@Scene@@QAEPAVTextureMap@@V?$basic_string@DU?$char_traits@D@std@@V?$allocator@D@2@@std@@@Z 0044ccb0 f   scene.obj
 0001:0004bf20       ??0?$_Tree_const_iterator@V?$_Tree_val@V?$_Tmap_traits@V?$basic_string@DU?$char_traits@D@std@@V?$allocator@D@2@@std@@PAVTextureMap@@U?$less@V?$basic_string@DU?$char_traits@D@std@@V?$allocator@D@2@@std@@@2@V?$allocator@U?$pair@$$CBV?$basic_string@DU?$char_traits@D@std@@V?$allocator@D@2@@std@@PAVTextureMap@@@std@@@2@$0A@@std@@@std@@@std@@QAE@ABV01@@Z 0044cf20 f i scene.obj
 0001:0004bf70       ??0?$_Tree_unchecked_const_iterator@V?$_Tree_val@V?$_Tmap_traits@V?$basic_string@DU?$char_traits@D@std@@V?$allocator@D@2@@std@@PAVTextureMap@@U?$less@V?$basic_string@DU?$char_traits@D@std@@V?$allocator@D@2@@std@@@2@V?$allocator@U?$pair@$$CBV?$basic_string@DU?$char_traits@D@std@@V?$allocator@D@2@@std@@PAVTextureMap@@@std@@@2@$0A@@std@@@std@@U_Iterator_base12@2@@std@@QAE@ABV01@@Z 0044cf70 f i scene.obj
 0001:0004bfd0       ??0?$_Iterator012@Ubidirectional_iterator_tag@std@@U?$pair@$$CBV?$basic_string@DU?$char_traits@D@std@@V?$allocator@D@2@@std@@PAVTextureMap@@@2@HPBU32@ABU32@U_Iterator_base12@2@@std@@QAE@ABU01@@Z 0044cfd0 f i scene.obj
 0001:0004c020       ??_0?$Vec3@N@@QAEAAV0@N@Z  0044d020 f i scene.obj
 0001:0004c080       ??1?$vector@PAVTransformNode@@V?$allocator@PAVTransformNode@@@std@@@std@@QAE@XZ 0044d080 f i scene.obj
 0001:0004c100       ?begin@?$vector@PAVTransformNode@@V?$allocator@PAVTransformNode@@@std@@@std@@QAE?AV?$_Vector_iterator@V?$_Vector_val@PAVTransformNode@@V?$allocator@PAVTransformNode@@@std@@@std@@@2@XZ 0044d100 f i scene.obj
 0001:0004c170       ?end@?$vector@PAVTransformNode@@V?$allocator@PAVTransformNode@@@std@@@std@@QAE?AV?$_Vector_iterator@V?$_Vector_val@PAVTransformNode@@V?$allocator@PAVTransformNode@@@std@@@std@@@2@XZ 0044d170 f i scene.obj
 0001:0004c1e0       ??D?$_Vector_iterator@V?$_Vector_val@PAVTransformNode@@V?$allocator@PAVTransformNode@@@std@@@std@@@std@@QBEAAPAVTransformNode@@XZ 0044d1e0 f i scene.obj
 0001:0004c220       ??E?$_Vector_iterator@V?$_Vector_val@PAVTransformNode@@V?$allocator@PAVTransformNode@@@std@@@std@@@std@@QAEAAV01@XZ 0044d220 f i scene.obj
 0001:0004c270       ??9?$_Vector_const_iterator@V?$_Vector_val@PAVTransformNode@@V?$allocator@PAVTransformNode@@@std@@@std@@@std@@QBE_NABV01@@Z 0044d270 f i scene.obj
 0001:0004c2c0       ??1?$vector@PAVLight@@V?$allocator@PAVLight@@@std@@@std@@QAE@XZ 0044d2c0 f i scene.obj
 0001:0004c340       ?begin@?$vector@PAVLight@@V?$allocator@PAVLight@@@std@@@std@@QAE?AV?$_Vector_iterator@V?$_Vector_val@PAVLight@@V?$allocator@PAVLight@@@std@@@std@@@2@XZ 0044d340 f i scene.obj
 0001:0004c3b0       ?end@?$vector@PAVLight@@V?$allocator@PAVLight@@@std@@@std@@QAE?AV?$_Vector_iterator@V?$_Vector_val@PAVLight@@V?$allocator@PAVLight@@@std@@@std@@@2@XZ 0044d3b0 f i scene.obj
 0001:0004c420       ??0?$vector@PAVGeometry@@V?$allocator@PAVGeometry@@@std@@@std@@QAE@XZ 0044d420 f i scene.obj
 0001:0004c470       ??1?$vector@PAVGeometry@@V?$allocator@PAVGeometry@@@std@@@std@@QAE@XZ 0044d470 f i scene.obj
 0001:0004c4f0       ?begin@?$vector@PAVGeometry@@V?$allocator@PAVGeometry@@@std@@@std@@QAE?AV?$_Vector_iterator@V?$_Vector_val@PAVGeometry@@V?$allocator@PAVGeometry@@@std@@@std@@@2@XZ 0044d4f0 f i scene.obj
 0001:0004c560       ?end@?$vector@PAVGeometry@@V?$allocator@PAVGeometry@@@std@@@std@@QAE?AV?$_Vector_iterator@V?$_Vector_val@PAVGeometry@@V?$allocator@PAVGeometry@@@std@@@std@@@2@XZ 0044d560 f i scene.obj
 0001:0004c5d0       ?size@?$vector@PAVGeometry@@V?$allocator@PAVGeometry@@@std@@@std@@QBEIXZ 0044d5d0 f i scene.obj
 0001:0004c610       ?push_back@?$vector@PAVGeometry@@V?$allocator@PAVGeometry@@@std@@@std@@QAEXABQAVGeometry@@@Z 0044d610 f i scene.obj
 0001:0004c740       ?clear@?$vector@PAVGeometry@@V?$allocator@PAVGeometry@@@std@@@std@@QAEXXZ 0044d740 f i scene.obj
 0001:0004c880       ??A?$map@V?$basic_string@DU?$char_traits@D@std@@V?$allocator@D@2@@std@@PAVTextureMap@@U?$less@V?$basic_string@DU?$char_traits@D@std@@V?$allocator@D@2@@std@@@2@V?$allocator@U?$pair@$$CBV?$basic_string@DU?$char_traits@D@std@@V?$allocator@D@2@@std@@PAVTextureMap@@@std@@@2@@std@@QAEAAPAVTextureMap@@ABV?$basic_string@DU?$char_traits@D@std@@V?$allocator@D@2@@1@@Z 0044d880 f i scene.obj
 0001:0004cae0       ??1?$_Tree@V?$_Tmap_traits@V?$basic_string@DU?$char_traits@D@std@@V?$allocator@D@2@@std@@PAVTextureMap@@U?$less@V?$basic_string@DU?$char_traits@D@std@@V?$allocator@D@2@@std@@@2@V?$allocator@U?$pair@$$CBV?$basic_string@DU?$char_traits@D@std@@V?$allocator@D@2@@std@@PAVTextureMap@@@std@@@2@$0A@@std@@@std@@QAE@XZ 0044dae0 f i scene.obj
 0001:0004cb60       ?begin@?$_Tree@V?$_Tmap_traits@V?$basic_string@DU?$char_traits@D@std@@V?$allocator@D@2@@std@@PAVTextureMap@@U?$less@V?$basic_string@DU?$char_traits@D@std@@V?$allocator@D@2@@std@@@2@V?$allocator@U?$pair@$$CBV?$basic_string@DU?$char_traits@D@std@@V?$allocator@D@2@@std@@PAVTextureMap@@@std@@@2@$0A@@std@@@std@@QAE?AV?$_Tree_iterator@V?$_Tree_val@V?$_Tmap_traits@V?$basic_string@DU?$char_traits@D@std@@V?$allocator@D@2@@std@@PAVTextureMap@@U?$less@V?$basic_string@DU?$char_traits@D@std@@V?$allocator@D@2@@std@@@2@V?$allocator@U?$pair@$$CBV?$basic_string@DU?$char_traits@D@std@@V?$allocator@D@2@@std@@PAVTextureMap@@@std@@@2@$0A@@std@@@std@@@2@XZ 0044db60 f i scene.obj
 0001:0004cbd0       ?end@?$_Tree@V?$_Tmap_traits@V?$basic_string@DU?$char_traits@D@std@@V?$allocator@D@2@@std@@PAVTextureMap@@U?$less@V?$basic_string@DU?$char_traits@D@std@@V?$allocator@D@2@@std@@@2@V?$allocator@U?$pair@$$CBV?$basic_string@DU?$char_traits@D@std@@V?$allocator@D@2@@std@@PAVTextureMap@@@std@@@2@$0A@@std@@@std@@QAE?AV?$_Tree_iterator@V?$_Tree_val@V?$_Tmap_traits@V?$basic_string@DU?$char_traits@D@std@@V?$allocator@D@2@@std@@PAVTextureMap@@U?$less@V?$basic_string@DU?$char_traits@D@std@@V?$allocator@D@2@@std@@@2@V?$allocator@U?$pair@$$CBV?$basic_string@DU?$char_traits@D@std@@V?$allocator@D@2@@std@@PAVTextureMap@@@std@@@2@$0A@@std@@@std@@@2@XZ 0044dbd0 f i scene.obj
 0001:0004cc40       ?find@?$_Tree@V?$_Tmap_traits@V?$basic_string@DU?$char_traits@D@std@@V?$allocator@D@2@@std@@PAVTextureMap@@U?$less@V?$basic_string@DU?$char_traits@D@std@@V?$allocator@D@2@@std@@@2@V?$allocator@U?$pair@$$CBV?$basic_string@DU?$char_traits@D@std@@V?$allocator@D@2@@std@@PAVTextureMap@@@std@@@2@$0A@@std@@@std@@QAE?AV?$_Tree_iterator@V?$_Tree_val@V?$_Tmap_traits@V?$basic_string@DU?$char_traits@D@std@@V?$allocator@D@2@@std@@PAVTextureMap@@U?$less@V?$basic_string@DU?$char_traits@D@std@@V?$allocator@D@2@@std@@@2@V?$allocator@U?$pair@$$CBV?$basic_string@DU?$char_traits@D@std@@V?$allocator@D@2@@std@@PAVTextureMap@@@std@@@2@$0A@@std@@@std@@@2@ABV?$basic_string@DU?$char_traits@D@std@@V?$allocator@D@2@@2@@Z 0044dc40 f i scene.obj
 0001:0004cea0       ?push_back@?$vector@U?$pair@Vray@@Visect@@@std@@V?$allocator@U?$pair@Vray@@Visect@@@std@@@2@@std@@QAEX$$QAU?$pair@Vray@@Visect@@@2@@Z 0044dea0 f i scene.obj
 0001:0004cff0       ??1?$vector@U?$pair@Vray@@Visect@@@std@@V?$allocator@U?$pair@Vray@@Visect@@@std@@@2@@std@@QAE@XZ 0044dff0 f i scene.obj
 0001:0004d070       ??0?$_Vector_const_iterator@V?$_Vector_val@PAVGeometry@@V?$allocator@PAVGeometry@@@std@@@std@@@std@@QAE@XZ 0044e070 f i scene.obj
 0001:0004d0c0       ??0?$_Vector_iterator@V?$_Vector_val@PAVGeometry@@V?$allocator@PAVGeometry@@@std@@@std@@@std@@QAE@XZ 0044e0c0 f i scene.obj
 0001:0004d110       ??D?$_Vector_iterator@V?$_Vector_val@PAVGeometry@@V?$allocator@PAVGeometry@@@std@@@std@@@std@@QBEAAPAVGeometry@@XZ 0044e110 f i scene.obj
 0001:0004d150       ??E?$_Vector_iterator@V?$_Vector_val@PAVGeometry@@V?$allocator@PAVGeometry@@@std@@@std@@@std@@QAEAAV01@XZ 0044e150 f i scene.obj
 0001:0004d1a0       ??0?$_Vector_iterator@V?$_Vector_val@PAVLight@@V?$allocator@PAVLight@@@std@@@std@@@std@@QAE@XZ 0044e1a0 f i scene.obj
 0001:0004d1f0       ??D?$_Vector_iterator@V?$_Vector_val@PAVLight@@V?$allocator@PAVLight@@@std@@@std@@@std@@QBEAAPAVLight@@XZ 0044e1f0 f i scene.obj
 0001:0004d230       ??E?$_Vector_iterator@V?$_Vector_val@PAVLight@@V?$allocator@PAVLight@@@std@@@std@@@std@@QAEAAV01@XZ 0044e230 f i scene.obj
 0001:0004d280       ??0?$_Tree_iterator@V?$_Tree_val@V?$_Tmap_traits@V?$basic_string@DU?$char_traits@D@std@@V?$allocator@D@2@@std@@PAVTextureMap@@U?$less@V?$basic_string@DU?$char_traits@D@std@@V?$allocator@D@2@@std@@@2@V?$allocator@U?$pair@$$CBV?$basic_string@DU?$char_traits@D@std@@V?$allocator@D@2@@std@@PAVTextureMap@@@std@@@2@$0A@@std@@@std@@@std@@QAE@XZ 0044e280 f i scene.obj
 0001:0004d2d0       ??D?$_Tree_iterator@V?$_Tree_val@V?$_Tmap_traits@V?$basic_string@DU?$char_traits@D@std@@V?$allocator@D@2@@std@@PAVTextureMap@@U?$less@V?$basic_string@DU?$char_traits@D@std@@V?$allocator@D@2@@std@@@2@V?$allocator@U?$pair@$$CBV?$basic_string@DU?$char_traits@D@std@@V?$allocator@D@2@@std@@PAVTextureMap@@@std@@@2@$0A@@std@@@std@@@std@@QBEAAU?$pair@$$CBV?$basic_string@DU?$char_traits@D@std@@V?$allocator@D@2@@std@@PAVTextureMap@@@1@XZ 0044e2d0 f i scene.obj
 0001:0004d310       ??E?$_Tree_iterator@V?$_Tree_val@V?$_Tmap_traits@V?$basic_string@DU?$char_traits@D@std@@V?$allocator@D@2@@std@@PAVTextureMap@@U?$less@V?$basic_string@DU?$char_traits@D@std@@V?$allocator@D@2@@std@@@2@V?$allocator@U?$pair@$$CBV?$basic_string@DU?$char_traits@D@std@@V?$allocator@D@2@@std@@PAVTextureMap@@@std@@@2@$0A@@std@@@std@@@std@@QAE?AV01@H@Z 0044e310 f i scene.obj
 0001:0004d3f0       ??D?$_Tree_const_iterator@V?$_Tree_val@V?$_Tmap_traits@V?$basic_string@DU?$char_traits@D@std@@V?$allocator@D@2@@std@@PAVTextureMap@@U?$less@V?$basic_string@DU?$char_traits@D@std@@V?$allocator@D@2@@std@@@2@V?$allocator@U?$pair@$$CBV?$basic_string@DU?$char_traits@D@std@@V?$allocator@D@2@@std@@PAVTextureMap@@@std@@@2@$0A@@std@@@std@@@std@@QBEABU?$pair@$$CBV?$basic_string@DU?$char_traits@D@std@@V?$allocator@D@2@@std@@PAVTextureMap@@@1@XZ 0044e3f0 f i scene.obj
 0001:0004d4f0       ??8?$_Tree_const_iterator@V?$_Tree_val@V?$_Tmap_traits@V?$basic_string@DU?$char_traits@D@std@@V?$allocator@D@2@@std@@PAVTextureMap@@U?$less@V?$basic_string@DU?$char_traits@D@std@@V?$allocator@D@2@@std@@@2@V?$allocator@U?$pair@$$CBV?$basic_string@DU?$char_traits@D@std@@V?$allocator@D@2@@std@@PAVTextureMap@@@std@@@2@$0A@@std@@@std@@@std@@QBE_NABV01@@Z 0044e4f0 f i scene.obj
 0001:0004d5f0       ??9?$_Tree_const_iterator@V?$_Tree_val@V?$_Tmap_traits@V?$basic_string@DU?$char_traits@D@std@@V?$allocator@D@2@@std@@PAVTextureMap@@U?$less@V?$basic_string@DU?$char_traits@D@std@@V?$allocator@D@2@@std@@@2@V?$allocator@U?$pair@$$CBV?$basic_string@DU?$char_traits@D@std@@V?$allocator@D@2@@std@@PAVTextureMap@@@std@@@2@$0A@@std@@@std@@@std@@QBE_NABV01@@Z 0044e5f0 f i scene.obj
 0001:0004d640       ??1?$pair@$$CBV?$basic_string@DU?$char_traits@D@std@@V?$allocator@D@2@@std@@PAVTextureMap@@@std@@QAE@XZ 0044e640 f i scene.obj
 0001:0004d680       ??0?$_Tree_iterator@V?$_Tree_val@V?$_Tmap_traits@V?$basic_string@DU?$char_traits@D@std@@V?$allocator@D@2@@std@@PAVTextureMap@@U?$less@V?$basic_string@DU?$char_traits@D@std@@V?$allocator@D@2@@std@@@2@V?$allocator@U?$pair@$$CBV?$basic_string@DU?$char_traits@D@std@@V?$allocator@D@2@@std@@PAVTextureMap@@@std@@@2@$0A@@std@@@std@@@std@@QAE@ABV01@@Z 0044e680 f i scene.obj
 0001:0004d6d0       ??1?$_Pair_base@$$CBV?$basic_string@DU?$char_traits@D@std@@V?$allocator@D@2@@std@@PAVTextureMap@@@std@@QAE@XZ 0044e6d0 f i scene.obj
 0001:0004d710       ?_Tidy@?$vector@PAVTransformNode@@V?$allocator@PAVTransformNode@@@std@@@std@@IAEXXZ 0044e710 f i scene.obj
 0001:0004d7c0       ??1?$_Vector_val@PAVTransformNode@@V?$allocator@PAVTransformNode@@@std@@@std@@QAE@XZ 0044e7c0 f i scene.obj
 0001:0004d8c0       ??0?$_Vector_iterator@V?$_Vector_val@PAVTransformNode@@V?$allocator@PAVTransformNode@@@std@@@std@@@std@@QAE@PAPAVTransformNode@@PBU_Container_base12@1@@Z 0044e8c0 f i scene.obj
 0001:0004d910       ??D?$_Vector_const_iterator@V?$_Vector_val@PAVTransformNode@@V?$allocator@PAVTransformNode@@@std@@@std@@@std@@QBEABQAVTransformNode@@XZ 0044e910 f i scene.obj
 0001:0004da10       ??E?$_Vector_const_iterator@V?$_Vector_val@PAVTransformNode@@V?$allocator@PAVTransformNode@@@std@@@std@@@std@@QAEAAV01@XZ 0044ea10 f i scene.obj
 0001:0004db00       ??8?$_Vector_const_iterator@V?$_Vector_val@PAVTransformNode@@V?$allocator@PAVTransformNode@@@std@@@std@@@std@@QBE_NABV01@@Z 0044eb00 f i scene.obj
 0001:0004db60       ?_Tidy@?$vector@PAVLight@@V?$allocator@PAVLight@@@std@@@std@@IAEXXZ 0044eb60 f i scene.obj
 0001:0004dc10       ??1?$_Vector_val@PAVLight@@V?$allocator@PAVLight@@@std@@@std@@QAE@XZ 0044ec10 f i scene.obj
 0001:0004dd10       ?erase@?$vector@PAVGeometry@@V?$allocator@PAVGeometry@@@std@@@std@@QAE?AV?$_Vector_iterator@V?$_Vector_val@PAVGeometry@@V?$allocator@PAVGeometry@@@std@@@std@@@2@V?$_Vector_const_iterator@V?$_Vector_val@PAVGeometry@@V?$allocator@PAVGeometry@@@std@@@std@@@2@0@Z 0044ed10 f i scene.obj
 0001:0004df30       ?_Inside@?$vector@PAVGeometry@@V?$allocator@PAVGeometry@@@std@@@std@@IBE_NPBQAVGeometry@@@Z 0044ef30 f i scene.obj
 0001:0004df90       ?_Reserve@?$vector@PAVGeometry@@V?$allocator@PAVGeometry@@@std@@@std@@IAEXI@Z 0044ef90 f i scene.obj
 0001:0004e020       ?_Tidy@?$vector@PAVGeometry@@V?$allocator@PAVGeometry@@@std@@@std@@IAEXXZ 0044f020 f i scene.obj
 0001:0004e0d0       ?_Orphan_range@?$vector@PAVGeometry@@V?$allocator@PAVGeometry@@@std@@@std@@IBEXPAPAVGeometry@@0@Z 0044f0d0 f i scene.obj
 0001:0004e200       ??0?$_Vector_val@PAVGeometry@@V?$allocator@PAVGeometry@@@std@@@std@@QAE@V?$allocator@PAVGeometry@@@1@@Z 0044f200 f i scene.obj
 0001:0004e330       ??1?$_Vector_val@PAVGeometry@@V?$allocator@PAVGeometry@@@std@@@std@@QAE@XZ 0044f330 f i scene.obj
 0001:0004e430       ??0?$allocator@PAVGeometry@@@std@@QAE@XZ 0044f430 f i scene.obj
 0001:0004e460       ?lower_bound@?$_Tree@V?$_Tmap_traits@V?$basic_string@DU?$char_traits@D@std@@V?$allocator@D@2@@std@@PAVTextureMap@@U?$less@V?$basic_string@DU?$char_traits@D@std@@V?$allocator@D@2@@std@@@2@V?$allocator@U?$pair@$$CBV?$basic_string@DU?$char_traits@D@std@@V?$allocator@D@2@@std@@PAVTextureMap@@@std@@@2@$0A@@std@@@std@@QAE?AV?$_Tree_iterator@V?$_Tree_val@V?$_Tmap_traits@V?$basic_string@DU?$char_traits@D@std@@V?$allocator@D@2@@std@@PAVTextureMap@@U?$less@V?$basic_string@DU?$char_traits@D@std@@V?$allocator@D@2@@std@@@2@V?$allocator@U?$pair@$$CBV?$basic_string@DU?$char_traits@D@std@@V?$allocator@D@2@@std@@PAVTextureMap@@@std@@@2@$0A@@std@@@std@@@2@ABV?$basic_string@DU?$char_traits@D@std@@V?$allocator@D@2@@2@@Z 0044f460 f i scene.obj
 0001:0004e4d0       ?_Lmost@?$_Tree@V?$_Tmap_traits@V?$basic_string@DU?$char_traits@D@std@@V?$allocator@D@2@@std@@PAVTextureMap@@U?$less@V?$basic_string@DU?$char_traits@D@std@@V?$allocator@D@2@@std@@@2@V?$allocator@U?$pair@$$CBV?$basic_string@DU?$char_traits@D@std@@V?$allocator@D@2@@std@@PAVTextureMap@@@std@@@2@$0A@@std@@@std@@IBEAAPAU_Node@?$_Tree_nod@V?$_Tmap_traits@V?$basic_string@DU?$char_traits@D@std@@V?$allocator@D@2@@std@@PAVTextureMap@@U?$less@V?$basic_string@DU?$char_traits@D@std@@V?$allocator@D@2@@std@@@2@V?$allocator@U?$pair@$$CBV?$basic_string@DU?$char_traits@D@std@@V?$allocator@D@2@@std@@PAVTextureMap@@@std@@@2@$0A@@std@@@2@XZ 0044f4d0 f i scene.obj
 0001:0004e520       ?_Tidy@?$_Tree@V?$_Tmap_traits@V?$basic_string@DU?$char_traits@D@std@@V?$allocator@D@2@@std@@PAVTextureMap@@U?$less@V?$basic_string@DU?$char_traits@D@std@@V?$allocator@D@2@@std@@@2@V?$allocator@U?$pair@$$CBV?$basic_string@DU?$char_traits@D@std@@V?$allocator@D@2@@std@@PAVTextureMap@@@std@@@2@$0A@@std@@@std@@IAEXXZ 0044f520 f i scene.obj
 0001:0004e660       ??1?$_Tree_val@V?$_Tmap_traits@V?$basic_string@DU?$char_traits@D@std@@V?$allocator@D@2@@std@@PAVTextureMap@@U?$less@V?$basic_string@DU?$char_traits@D@std@@V?$allocator@D@2@@std@@@2@V?$allocator@U?$pair@$$CBV?$basic_string@DU?$char_traits@D@std@@V?$allocator@D@2@@std@@PAVTextureMap@@@std@@@2@$0A@@std@@@std@@QAE@XZ 0044f660 f i scene.obj
 0001:0004e6f0       ?_Key@?$_Tree_val@V?$_Tmap_traits@V?$basic_string@DU?$char_traits@D@std@@V?$allocator@D@2@@std@@PAVTextureMap@@U?$less@V?$basic_string@DU?$char_traits@D@std@@V?$allocator@D@2@@std@@@2@V?$allocator@U?$pair@$$CBV?$basic_string@DU?$char_traits@D@std@@V?$allocator@D@2@@std@@PAVTextureMap@@@std@@@2@$0A@@std@@@std@@SAAAV?$basic_string@DU?$char_traits@D@std@@V?$allocator@D@2@@2@PAU_Node@?$_Tree_nod@V?$_Tmap_traits@V?$basic_string@DU?$char_traits@D@std@@V?$allocator@D@2@@std@@PAVTextureMap@@U?$less@V?$basic_string@DU?$char_traits@D@std@@V?$allocator@D@2@@std@@@2@V?$allocator@U?$pair@$$CBV?$basic_string@DU?$char_traits@D@std@@V?$allocator@D@2@@std@@PAVTextureMap@@@std@@@2@$0A@@std@@@2@@Z 0044f6f0 f i scene.obj
 0001:0004e740       ?_Myval@?$_Tree_val@V?$_Tmap_traits@V?$basic_string@DU?$char_traits@D@std@@V?$allocator@D@2@@std@@PAVTextureMap@@U?$less@V?$basic_string@DU?$char_traits@D@std@@V?$allocator@D@2@@std@@@2@V?$allocator@U?$pair@$$CBV?$basic_string@DU?$char_traits@D@std@@V?$allocator@D@2@@std@@PAVTextureMap@@@std@@@2@$0A@@std@@@std@@SAAAU?$pair@$$CBV?$basic_string@DU?$char_traits@D@std@@V?$allocator@D@2@@std@@PAVTextureMap@@@2@PAU_Node@?$_Tree_nod@V?$_Tmap_traits@V?$basic_string@DU?$char_traits@D@std@@V?$allocator@D@2@@std@@PAVTextureMap@@U?$less@V?$basic_string@DU?$char_traits@D@std@@V?$allocator@D@2@@std@@@2@V?$allocator@U?$pair@$$CBV?$basic_string@DU?$char_traits@D@std@@V?$allocator@D@2@@std@@PAVTextureMap@@@std@@@2@$0A@@std@@@2@@Z 0044f740 f i scene.obj
 0001:0004e770       ??R?$less@V?$basic_string@DU?$char_traits@D@std@@V?$allocator@D@2@@std@@@std@@QBE_NABV?$basic_string@DU?$char_traits@D@std@@V?$allocator@D@2@@1@0@Z 0044f770 f i scene.obj
 0001:0004e7c0       ?_Inside@?$vector@U?$pair@Vray@@Visect@@@std@@V?$allocator@U?$pair@Vray@@Visect@@@std@@@2@@std@@IBE_NPBU?$pair@Vray@@Visect@@@2@@Z 0044f7c0 f i scene.obj
 0001:0004e820       ?_Reserve@?$vector@U?$pair@Vray@@Visect@@@std@@V?$allocator@U?$pair@Vray@@Visect@@@std@@@2@@std@@IAEXI@Z 0044f820 f i scene.obj
 0001:0004e8b0       ?_Tidy@?$vector@U?$pair@Vray@@Visect@@@std@@V?$allocator@U?$pair@Vray@@Visect@@@std@@@2@@std@@IAEXXZ 0044f8b0 f i scene.obj
 0001:0004e960       ??1?$_Vector_val@U?$pair@Vray@@Visect@@@std@@V?$allocator@U?$pair@Vray@@Visect@@@std@@@2@@std@@QAE@XZ 0044f960 f i scene.obj
 0001:0004ea60       ??0?$_Vector_const_iterator@V?$_Vector_val@PAVLight@@V?$allocator@PAVLight@@@std@@@std@@@std@@QAE@XZ 0044fa60 f i scene.obj
 0001:0004eab0       ??0?$_Vector_iterator@V?$_Vector_val@PAVGeometry@@V?$allocator@PAVGeometry@@@std@@@std@@@std@@QAE@PAPAVGeometry@@PBU_Container_base12@1@@Z 0044fab0 f i scene.obj
 0001:0004eb00       ??0?$_Vector_iterator@V?$_Vector_val@PAVLight@@V?$allocator@PAVLight@@@std@@@std@@@std@@QAE@PAPAVLight@@PBU_Container_base12@1@@Z 0044fb00 f i scene.obj
 0001:0004eb50       ??0?$_Tree_iterator@V?$_Tree_val@V?$_Tmap_traits@V?$basic_string@DU?$char_traits@D@std@@V?$allocator@D@2@@std@@PAVTextureMap@@U?$less@V?$basic_string@DU?$char_traits@D@std@@V?$allocator@D@2@@std@@@2@V?$allocator@U?$pair@$$CBV?$basic_string@DU?$char_traits@D@std@@V?$allocator@D@2@@std@@PAVTextureMap@@@std@@@2@$0A@@std@@@std@@@std@@QAE@PAU_Node@?$_Tree_nod@V?$_Tmap_traits@V?$basic_string@DU?$char_traits@D@std@@V?$allocator@D@2@@std@@PAVTextureMap@@U?$less@V?$basic_string@DU?$char_traits@D@std@@V?$allocator@D@2@@std@@@2@V?$allocator@U?$pair@$$CBV?$basic_string@DU?$char_traits@D@std@@V?$allocator@D@2@@std@@PAVTextureMap@@@std@@@2@$0A@@std@@@1@PBV?$_Tree_val@V?$_Tmap_traits@V?$basic_string@DU?$char_traits@D@std@@V?$allocator@D@2@@std@@PAVTextureMap@@U?$less@V?$basic_string@DU?$char_traits@D@std@@V?$allocator@D@2@@std@@@2@V?$allocator@U?$pair@$$CBV?$basic_string@DU?$char_traits@D@std@@V?$allocator@D@2@@std@@PAVTextureMap@@@std@@@2@$0A@@std@@@1@@Z 0044fb50 f i scene.obj
 0001:0004eba0       ??E?$_Tree_iterator@V?$_Tree_val@V?$_Tmap_traits@V?$basic_string@DU?$char_traits@D@std@@V?$allocator@D@2@@std@@PAVTextureMap@@U?$less@V?$basic_string@DU?$char_traits@D@std@@V?$allocator@D@2@@std@@@2@V?$allocator@U?$pair@$$CBV?$basic_string@DU?$char_traits@D@std@@V?$allocator@D@2@@std@@PAVTextureMap@@@std@@@2@$0A@@std@@@std@@@std@@QAEAAV01@XZ 0044fba0 f i scene.obj
 0001:0004ebf0       ??0?$_Tree_const_iterator@V?$_Tree_val@V?$_Tmap_traits@V?$basic_string@DU?$char_traits@D@std@@V?$allocator@D@2@@std@@PAVTextureMap@@U?$less@V?$basic_string@DU?$char_traits@D@std@@V?$allocator@D@2@@std@@@2@V?$allocator@U?$pair@$$CBV?$basic_string@DU?$char_traits@D@std@@V?$allocator@D@2@@std@@PAVTextureMap@@@std@@@2@$0A@@std@@@std@@@std@@QAE@XZ 0044fbf0 f i scene.obj
 0001:0004ec40       ?_Mynode@?$_Tree_unchecked_const_iterator@V?$_Tree_val@V?$_Tmap_traits@V?$basic_string@DU?$char_traits@D@std@@V?$allocator@D@2@@std@@PAVTextureMap@@U?$less@V?$basic_string@DU?$char_traits@D@std@@V?$allocator@D@2@@std@@@2@V?$allocator@U?$pair@$$CBV?$basic_string@DU?$char_traits@D@std@@V?$allocator@D@2@@std@@PAVTextureMap@@@std@@@2@$0A@@std@@@std@@U_Iterator_base12@2@@std@@QBEPAU_Node@?$_Tree_nod@V?$_Tmap_traits@V?$basic_string@DU?$char_traits@D@std@@V?$allocator@D@2@@std@@PAVTextureMap@@U?$less@V?$basic_string@DU?$char_traits@D@std@@V?$allocator@D@2@@std@@@2@V?$allocator@U?$pair@$$CBV?$basic_string@DU?$char_traits@D@std@@V?$allocator@D@2@@std@@PAVTextureMap@@@std@@@2@$0A@@std@@@2@XZ 0044fc40 f i scene.obj
 0001:0004ec70       ??0?$pair@$$CBV?$basic_string@DU?$char_traits@D@std@@V?$allocator@D@2@@std@@PAVTextureMap@@@std@@QAE@ABV?$basic_string@DU?$char_traits@D@std@@V?$allocator@D@2@@1@$$QAPAVTextureMap@@@Z 0044fc70 f i scene.obj
 0001:0004ecd0       ??0?$_Vector_iterator@V?$_Vector_val@PAVGeometry@@V?$allocator@PAVGeometry@@@std@@@std@@@std@@QAE@ABV01@@Z 0044fcd0 f i scene.obj
 0001:0004ed20       ?_Destroy@?$vector@PAVTransformNode@@V?$allocator@PAVTransformNode@@@std@@@std@@IAEXPAPAVTransformNode@@0@Z 0044fd20 f i scene.obj
 0001:0004ed70       ?deallocate@?$allocator@PAVTransformNode@@@std@@QAEXPAPAVTransformNode@@I@Z 0044fd70 f i scene.obj
 0001:0004edc0       ??0?$_Vector_const_iterator@V?$_Vector_val@PAVTransformNode@@V?$allocator@PAVTransformNode@@@std@@@std@@@std@@QAE@PAPAVTransformNode@@PBU_Container_base12@1@@Z 0044fdc0 f i scene.obj
 0001:0004ee60       ?_Compat@?$_Vector_const_iterator@V?$_Vector_val@PAVTransformNode@@V?$allocator@PAVTransformNode@@@std@@@std@@@std@@QBEXABV12@@Z 0044fe60 f i scene.obj
 0001:0004ef40       ?_Destroy@?$vector@PAVLight@@V?$allocator@PAVLight@@@std@@@std@@IAEXPAPAVLight@@0@Z 0044ff40 f i scene.obj
 0001:0004ef90       ?deallocate@?$allocator@PAVLight@@@std@@QAEXPAPAVLight@@I@Z 0044ff90 f i scene.obj
 0001:0004efe0       ?reserve@?$vector@PAVGeometry@@V?$allocator@PAVGeometry@@@std@@@std@@QAEXI@Z 0044ffe0 f i scene.obj
 0001:0004f160       ?capacity@?$vector@PAVGeometry@@V?$allocator@PAVGeometry@@@std@@@std@@QBEIXZ 00450160 f i scene.obj
 0001:0004f1a0       ?_Make_iter@?$vector@PAVGeometry@@V?$allocator@PAVGeometry@@@std@@@std@@QBE?AV?$_Vector_iterator@V?$_Vector_val@PAVGeometry@@V?$allocator@PAVGeometry@@@std@@@std@@@2@V?$_Vector_const_iterator@V?$_Vector_val@PAVGeometry@@V?$allocator@PAVGeometry@@@std@@@std@@@2@@Z 004501a0 f i scene.obj
 0001:0004f250       ?max_size@?$vector@PAVGeometry@@V?$allocator@PAVGeometry@@@std@@@std@@QBEIXZ 00450250 f i scene.obj
 0001:0004f2a0       ?_Destroy@?$vector@PAVGeometry@@V?$allocator@PAVGeometry@@@std@@@std@@IAEXPAPAVGeometry@@0@Z 004502a0 f i scene.obj
 0001:0004f2f0       ?_Grow_to@?$vector@PAVGeometry@@V?$allocator@PAVGeometry@@@std@@@std@@IBEII@Z 004502f0 f i scene.obj
 0001:0004f380       ?_Xlen@?$vector@PAVGeometry@@V?$allocator@PAVGeometry@@@std@@@std@@IBEXXZ 00450380 f i scene.obj
 0001:0004f3d0       ??0?$allocator@PAVGeometry@@@std@@QAE@ABV01@@Z 004503d0 f i scene.obj
 0001:0004f400       ?deallocate@?$allocator@PAVGeometry@@@std@@QAEXPAPAVGeometry@@I@Z 00450400 f i scene.obj
 0001:0004f450       ?erase@?$_Tree@V?$_Tmap_traits@V?$basic_string@DU?$char_traits@D@std@@V?$allocator@D@2@@std@@PAVTextureMap@@U?$less@V?$basic_string@DU?$char_traits@D@std@@V?$allocator@D@2@@std@@@2@V?$allocator@U?$pair@$$CBV?$basic_string@DU?$char_traits@D@std@@V?$allocator@D@2@@std@@PAVTextureMap@@@std@@@2@$0A@@std@@@std@@QAE?AV?$_Tree_iterator@V?$_Tree_val@V?$_Tmap_traits@V?$basic_string@DU?$char_traits@D@std@@V?$allocator@D@2@@std@@PAVTextureMap@@U?$less@V?$basic_string@DU?$char_traits@D@std@@V?$allocator@D@2@@std@@@2@V?$allocator@U?$pair@$$CBV?$basic_string@DU?$char_traits@D@std@@V?$allocator@D@2@@std@@PAVTextureMap@@@std@@@2@$0A@@std@@@std@@@2@V?$_Tree_const_iterator@V?$_Tree_val@V?$_Tmap_traits@V?$basic_string@DU?$char_traits@D@std@@V?$allocator@D@2@@std@@PAVTextureMap@@U?$less@V?$basic_string@DU?$char_traits@D@std@@V?$allocator@D@2@@std@@@2@V?$allocator@U?$pair@$$CBV?$basic_string@DU?$char_traits@D@std@@V?$allocator@D@2@@std@@PAVTextureMap@@@std@@@2@$0A@@std@@@std@@@2@0@Z 00450450 f i scene.obj
 0001:0004f6c0       ?_Lbound@?$_Tree@V?$_Tmap_traits@V?$basic_string@DU?$char_traits@D@std@@V?$allocator@D@2@@std@@PAVTextureMap@@U?$less@V?$basic_string@DU?$char_traits@D@std@@V?$allocator@D@2@@std@@@2@V?$allocator@U?$pair@$$CBV?$basic_string@DU?$char_traits@D@std@@V?$allocator@D@2@@std@@PAVTextureMap@@@std@@@2@$0A@@std@@@std@@IAEPAU_Node@?$_Tree_nod@V?$_Tmap_traits@V?$basic_string@DU?$char_traits@D@std@@V?$allocator@D@2@@std@@PAVTextureMap@@U?$less@V?$basic_string@DU?$char_traits@D@std@@V?$allocator@D@2@@std@@@2@V?$allocator@U?$pair@$$CBV?$basic_string@DU?$char_traits@D@std@@V?$allocator@D@2@@std@@PAVTextureMap@@@std@@@2@$0A@@std@@@2@ABV?$basic_string@DU?$char_traits@D@std@@V?$allocator@D@2@@2@@Z 004506c0 f i scene.obj
 0001:0004f790       ?_Left@?$_Tree_val@V?$_Tmap_traits@V?$basic_string@DU?$char_traits@D@std@@V?$allocator@D@2@@std@@PAVTextureMap@@U?$less@V?$basic_string@DU?$char_traits@D@std@@V?$allocator@D@2@@std@@@2@V?$allocator@U?$pair@$$CBV?$basic_string@DU?$char_traits@D@std@@V?$allocator@D@2@@std@@PAVTextureMap@@@std@@@2@$0A@@std@@@std@@SAAAPAU_Node@?$_Tree_nod@V?$_Tmap_traits@V?$basic_string@DU?$char_traits@D@std@@V?$allocator@D@2@@std@@PAVTextureMap@@U?$less@V?$basic_string@DU?$char_traits@D@std@@V?$allocator@D@2@@std@@@2@V?$allocator@U?$pair@$$CBV?$basic_string@DU?$char_traits@D@std@@V?$allocator@D@2@@std@@PAVTextureMap@@@std@@@2@$0A@@std@@@2@PAU342@@Z 00450790 f i scene.obj
 0001:0004f7c0       ??1?$_Tree_nod@V?$_Tmap_traits@V?$basic_string@DU?$char_traits@D@std@@V?$allocator@D@2@@std@@PAVTextureMap@@U?$less@V?$basic_string@DU?$char_traits@D@std@@V?$allocator@D@2@@std@@@2@V?$allocator@U?$pair@$$CBV?$basic_string@DU?$char_traits@D@std@@V?$allocator@D@2@@std@@PAVTextureMap@@@std@@@2@$0A@@std@@@std@@QAE@XZ 004507c0 f i scene.obj
 0001:0004f8c0       ?deallocate@?$allocator@U_Node@?$_Tree_nod@V?$_Tmap_traits@V?$basic_string@DU?$char_traits@D@std@@V?$allocator@D@2@@std@@PAVTextureMap@@U?$less@V?$basic_string@DU?$char_traits@D@std@@V?$allocator@D@2@@std@@@2@V?$allocator@U?$pair@$$CBV?$basic_string@DU?$char_traits@D@std@@V?$allocator@D@2@@std@@PAVTextureMap@@@std@@@2@$0A@@std@@@std@@@std@@QAEXPAU_Node@?$_Tree_nod@V?$_Tmap_traits@V?$basic_string@DU?$char_traits@D@std@@V?$allocator@D@2@@std@@PAVTextureMap@@U?$less@V?$basic_string@DU?$char_traits@D@std@@V?$allocator@D@2@@std@@@2@V?$allocator@U?$pair@$$CBV?$basic_string@DU?$char_traits@D@std@@V?$allocator@D@2@@std@@PAVTextureMap@@@std@@@2@$0A@@std@@@2@I@Z 004508c0 f i scene.obj
 0001:0004f910       ?reserve@?$vector@U?$pair@Vray@@Visect@@@std@@V?$allocator@U?$pair@Vray@@Visect@@@std@@@2@@std@@QAEXI@Z 00450910 f i scene.obj
 0001:0004faa0       ?capacity@?$vector@U?$pair@Vray@@Visect@@@std@@V?$allocator@U?$pair@Vray@@Visect@@@std@@@2@@std@@QBEIXZ 00450aa0 f i scene.obj
 0001:0004fae0       ?size@?$vector@U?$pair@Vray@@Visect@@@std@@V?$allocator@U?$pair@Vray@@Visect@@@std@@@2@@std@@QBEIXZ 00450ae0 f i scene.obj
 0001:0004fb20       ?max_size@?$vector@U?$pair@Vray@@Visect@@@std@@V?$allocator@U?$pair@Vray@@Visect@@@std@@@2@@std@@QBEIXZ 00450b20 f i scene.obj
 0001:0004fb70       ?_Grow_to@?$vector@U?$pair@Vray@@Visect@@@std@@V?$allocator@U?$pair@Vray@@Visect@@@std@@@2@@std@@IBEII@Z 00450b70 f i scene.obj
 0001:0004fc00       ?_Xlen@?$vector@U?$pair@Vray@@Visect@@@std@@V?$allocator@U?$pair@Vray@@Visect@@@std@@@2@@std@@IBEXXZ 00450c00 f i scene.obj
 0001:0004fc50       ?deallocate@?$allocator@U?$pair@Vray@@Visect@@@std@@@std@@QAEXPAU?$pair@Vray@@Visect@@@2@I@Z 00450c50 f i scene.obj
 0001:0004fca0       ??M?$_Vector_const_iterator@V?$_Vector_val@PAVGeometry@@V?$allocator@PAVGeometry@@@std@@@std@@@std@@QBE_NABV01@@Z 00450ca0 f i scene.obj
 0001:0004fd00       ??0?$_Tree_const_iterator@V?$_Tree_val@V?$_Tmap_traits@V?$basic_string@DU?$char_traits@D@std@@V?$allocator@D@2@@std@@PAVTextureMap@@U?$less@V?$basic_string@DU?$char_traits@D@std@@V?$allocator@D@2@@std@@@2@V?$allocator@U?$pair@$$CBV?$basic_string@DU?$char_traits@D@std@@V?$allocator@D@2@@std@@PAVTextureMap@@@std@@@2@$0A@@std@@@std@@@std@@QAE@PAU_Node@?$_Tree_nod@V?$_Tmap_traits@V?$basic_string@DU?$char_traits@D@std@@V?$allocator@D@2@@std@@PAVTextureMap@@U?$less@V?$basic_string@DU?$char_traits@D@std@@V?$allocator@D@2@@std@@@2@V?$allocator@U?$pair@$$CBV?$basic_string@DU?$char_traits@D@std@@V?$allocator@D@2@@std@@PAVTextureMap@@@std@@@2@$0A@@std@@@1@PBV?$_Tree_val@V?$_Tmap_traits@V?$basic_string@DU?$char_traits@D@std@@V?$allocator@D@2@@std@@PAVTextureMap@@U?$less@V?$basic_string@DU?$char_traits@D@std@@V?$allocator@D@2@@std@@@2@V?$allocator@U?$pair@$$CBV?$basic_string@DU?$char_traits@D@std@@V?$allocator@D@2@@std@@PAVTextureMap@@@std@@@2@$0A@@std@@@1@@Z 00450d00 f i scene.obj
 0001:0004fd50       ??E?$_Tree_const_iterator@V?$_Tree_val@V?$_Tmap_traits@V?$basic_string@DU?$char_traits@D@std@@V?$allocator@D@2@@std@@PAVTextureMap@@U?$less@V?$basic_string@DU?$char_traits@D@std@@V?$allocator@D@2@@std@@@2@V?$allocator@U?$pair@$$CBV?$basic_string@DU?$char_traits@D@std@@V?$allocator@D@2@@std@@PAVTextureMap@@@std@@@2@$0A@@std@@@std@@@std@@QAEAAV01@XZ 00450d50 f i scene.obj
 0001:0004fe50       ??0?$_Tree_unchecked_const_iterator@V?$_Tree_val@V?$_Tmap_traits@V?$basic_string@DU?$char_traits@D@std@@V?$allocator@D@2@@std@@PAVTextureMap@@U?$less@V?$basic_string@DU?$char_traits@D@std@@V?$allocator@D@2@@std@@@2@V?$allocator@U?$pair@$$CBV?$basic_string@DU?$char_traits@D@std@@V?$allocator@D@2@@std@@PAVTextureMap@@@std@@@2@$0A@@std@@@std@@U_Iterator_base12@2@@std@@QAE@XZ 00450e50 f i scene.obj
 0001:0004fea0       ??0?$_Pair_base@$$CBV?$basic_string@DU?$char_traits@D@std@@V?$allocator@D@2@@std@@PAVTextureMap@@@std@@QAE@ABV?$basic_string@DU?$char_traits@D@std@@V?$allocator@D@2@@1@$$QAPAVTextureMap@@@Z 00450ea0 f i scene.obj
 0001:0004ff40       ??0?$_Iterator012@Urandom_access_iterator_tag@std@@PAVTransformNode@@HPBQAV3@ABQAV3@U_Iterator_base12@2@@std@@QAE@XZ 00450f40 f i scene.obj
 0001:0004ff90       ??1?$_Tmap_traits@V?$basic_string@DU?$char_traits@D@std@@V?$allocator@D@2@@std@@PAVTextureMap@@U?$less@V?$basic_string@DU?$char_traits@D@std@@V?$allocator@D@2@@std@@@2@V?$allocator@U?$pair@$$CBV?$basic_string@DU?$char_traits@D@std@@V?$allocator@D@2@@std@@PAVTextureMap@@@std@@@2@$0A@@std@@QAE@XZ 00450f90 f i scene.obj
 0001:0004ffe0       ??0?$_Iterator012@Ubidirectional_iterator_tag@std@@U?$pair@$$CBV?$basic_string@DU?$char_traits@D@std@@V?$allocator@D@2@@std@@PAVTextureMap@@@2@HPBU32@ABU32@U_Iterator_base12@2@@std@@QAE@XZ 00450fe0 f i scene.obj
 0001:00050030       ?allocate@?$allocator@PAVGeometry@@@std@@QAEPAPAVGeometry@@I@Z 00451030 f i scene.obj
 0001:00050080       ?max_size@?$allocator@PAVGeometry@@@std@@QBEIXZ 00451080 f i scene.obj
 0001:000500e0       ?erase@?$_Tree@V?$_Tmap_traits@V?$basic_string@DU?$char_traits@D@std@@V?$allocator@D@2@@std@@PAVTextureMap@@U?$less@V?$basic_string@DU?$char_traits@D@std@@V?$allocator@D@2@@std@@@2@V?$allocator@U?$pair@$$CBV?$basic_string@DU?$char_traits@D@std@@V?$allocator@D@2@@std@@PAVTextureMap@@@std@@@2@$0A@@std@@@std@@QAE?AV?$_Tree_iterator@V?$_Tree_val@V?$_Tmap_traits@V?$basic_string@DU?$char_traits@D@std@@V?$allocator@D@2@@std@@PAVTextureMap@@U?$less@V?$basic_string@DU?$char_traits@D@std@@V?$allocator@D@2@@std@@@2@V?$allocator@U?$pair@$$CBV?$basic_string@DU?$char_traits@D@std@@V?$allocator@D@2@@std@@PAVTextureMap@@@std@@@2@$0A@@std@@@std@@@2@V?$_Tree_const_iterator@V?$_Tree_val@V?$_Tmap_traits@V?$basic_string@DU?$char_traits@D@std@@V?$allocator@D@2@@std@@PAVTextureMap@@U?$less@V?$basic_string@DU?$char_traits@D@std@@V?$allocator@D@2@@std@@@2@V?$allocator@U?$pair@$$CBV?$basic_string@DU?$char_traits@D@std@@V?$allocator@D@2@@std@@PAVTextureMap@@@std@@@2@$0A@@std@@@std@@@2@@Z 004510e0 f i scene.obj
 0001:00050930       ?clear@?$_Tree@V?$_Tmap_traits@V?$basic_string@DU?$char_traits@D@std@@V?$allocator@D@2@@std@@PAVTextureMap@@U?$less@V?$basic_string@DU?$char_traits@D@std@@V?$allocator@D@2@@std@@@2@V?$allocator@U?$pair@$$CBV?$basic_string@DU?$char_traits@D@std@@V?$allocator@D@2@@std@@PAVTextureMap@@@std@@@2@$0A@@std@@@std@@QAEXXZ 00451930 f i scene.obj
 0001:000509d0       ?_Root@?$_Tree@V?$_Tmap_traits@V?$basic_string@DU?$char_traits@D@std@@V?$allocator@D@2@@std@@PAVTextureMap@@U?$less@V?$basic_string@DU?$char_traits@D@std@@V?$allocator@D@2@@std@@@2@V?$allocator@U?$pair@$$CBV?$basic_string@DU?$char_traits@D@std@@V?$allocator@D@2@@std@@PAVTextureMap@@@std@@@2@$0A@@std@@@std@@IBEAAPAU_Node@?$_Tree_nod@V?$_Tmap_traits@V?$basic_string@DU?$char_traits@D@std@@V?$allocator@D@2@@std@@PAVTextureMap@@U?$less@V?$basic_string@DU?$char_traits@D@std@@V?$allocator@D@2@@std@@@2@V?$allocator@U?$pair@$$CBV?$basic_string@DU?$char_traits@D@std@@V?$allocator@D@2@@std@@PAVTextureMap@@@std@@@2@$0A@@std@@@2@XZ 004519d0 f i scene.obj
 0001:00050a20       ?_Color@?$_Tree_val@V?$_Tmap_traits@V?$basic_string@DU?$char_traits@D@std@@V?$allocator@D@2@@std@@PAVTextureMap@@U?$less@V?$basic_string@DU?$char_traits@D@std@@V?$allocator@D@2@@std@@@2@V?$allocator@U?$pair@$$CBV?$basic_string@DU?$char_traits@D@std@@V?$allocator@D@2@@std@@PAVTextureMap@@@std@@@2@$0A@@std@@@std@@SAAADPAU_Node@?$_Tree_nod@V?$_Tmap_traits@V?$basic_string@DU?$char_traits@D@std@@V?$allocator@D@2@@std@@PAVTextureMap@@U?$less@V?$basic_string@DU?$char_traits@D@std@@V?$allocator@D@2@@std@@@2@V?$allocator@U?$pair@$$CBV?$basic_string@DU?$char_traits@D@std@@V?$allocator@D@2@@std@@PAVTextureMap@@@std@@@2@$0A@@std@@@2@@Z 00451a20 f i scene.obj
 0001:00050a50       ?_Isnil@?$_Tree_val@V?$_Tmap_traits@V?$basic_string@DU?$char_traits@D@std@@V?$allocator@D@2@@std@@PAVTextureMap@@U?$less@V?$basic_string@DU?$char_traits@D@std@@V?$allocator@D@2@@std@@@2@V?$allocator@U?$pair@$$CBV?$basic_string@DU?$char_traits@D@std@@V?$allocator@D@2@@std@@PAVTextureMap@@@std@@@2@$0A@@std@@@std@@SAAADPAU_Node@?$_Tree_nod@V?$_Tmap_traits@V?$basic_string@DU?$char_traits@D@std@@V?$allocator@D@2@@std@@PAVTextureMap@@U?$less@V?$basic_string@DU?$char_traits@D@std@@V?$allocator@D@2@@std@@@2@V?$allocator@U?$pair@$$CBV?$basic_string@DU?$char_traits@D@std@@V?$allocator@D@2@@std@@PAVTextureMap@@@std@@@2@$0A@@std@@@2@@Z 00451a50 f i scene.obj
 0001:00050a80       ?_Parent@?$_Tree_val@V?$_Tmap_traits@V?$basic_string@DU?$char_traits@D@std@@V?$allocator@D@2@@std@@PAVTextureMap@@U?$less@V?$basic_string@DU?$char_traits@D@std@@V?$allocator@D@2@@std@@@2@V?$allocator@U?$pair@$$CBV?$basic_string@DU?$char_traits@D@std@@V?$allocator@D@2@@std@@PAVTextureMap@@@std@@@2@$0A@@std@@@std@@SAAAPAU_Node@?$_Tree_nod@V?$_Tmap_traits@V?$basic_string@DU?$char_traits@D@std@@V?$allocator@D@2@@std@@PAVTextureMap@@U?$less@V?$basic_string@DU?$char_traits@D@std@@V?$allocator@D@2@@std@@@2@V?$allocator@U?$pair@$$CBV?$basic_string@DU?$char_traits@D@std@@V?$allocator@D@2@@std@@PAVTextureMap@@@std@@@2@$0A@@std@@@2@PAU342@@Z 00451a80 f i scene.obj
 0001:00050ab0       ?_Right@?$_Tree_val@V?$_Tmap_traits@V?$basic_string@DU?$char_traits@D@std@@V?$allocator@D@2@@std@@PAVTextureMap@@U?$less@V?$basic_string@DU?$char_traits@D@std@@V?$allocator@D@2@@std@@@2@V?$allocator@U?$pair@$$CBV?$basic_string@DU?$char_traits@D@std@@V?$allocator@D@2@@std@@PAVTextureMap@@@std@@@2@$0A@@std@@@std@@SAAAPAU_Node@?$_Tree_nod@V?$_Tmap_traits@V?$basic_string@DU?$char_traits@D@std@@V?$allocator@D@2@@std@@PAVTextureMap@@U?$less@V?$basic_string@DU?$char_traits@D@std@@V?$allocator@D@2@@std@@@2@V?$allocator@U?$pair@$$CBV?$basic_string@DU?$char_traits@D@std@@V?$allocator@D@2@@std@@PAVTextureMap@@@std@@@2@$0A@@std@@@2@PAU342@@Z 00451ab0 f i scene.obj
 0001:00050ae0       ?allocate@?$allocator@U?$pair@Vray@@Visect@@@std@@@std@@QAEPAU?$pair@Vray@@Visect@@@2@I@Z 00451ae0 f i scene.obj
 0001:00050b30       ?max_size@?$allocator@U?$pair@Vray@@Visect@@@std@@@std@@QBEIXZ 00451b30 f i scene.obj
 0001:00050b90       ??E?$_Tree_const_iterator@V?$_Tree_val@V?$_Tmap_traits@V?$basic_string@DU?$char_traits@D@std@@V?$allocator@D@2@@std@@PAVTextureMap@@U?$less@V?$basic_string@DU?$char_traits@D@std@@V?$allocator@D@2@@std@@@2@V?$allocator@U?$pair@$$CBV?$basic_string@DU?$char_traits@D@std@@V?$allocator@D@2@@std@@PAVTextureMap@@@std@@@2@$0A@@std@@@std@@@std@@QAE?AV01@H@Z 00451b90 f i scene.obj
 0001:00050c70       ??0?$_Tree_unchecked_const_iterator@V?$_Tree_val@V?$_Tmap_traits@V?$basic_string@DU?$char_traits@D@std@@V?$allocator@D@2@@std@@PAVTextureMap@@U?$less@V?$basic_string@DU?$char_traits@D@std@@V?$allocator@D@2@@std@@@2@V?$allocator@U?$pair@$$CBV?$basic_string@DU?$char_traits@D@std@@V?$allocator@D@2@@std@@PAVTextureMap@@@std@@@2@$0A@@std@@@std@@U_Iterator_base12@2@@std@@QAE@PAU_Node@?$_Tree_nod@V?$_Tmap_traits@V?$basic_string@DU?$char_traits@D@std@@V?$allocator@D@2@@std@@PAVTextureMap@@U?$less@V?$basic_string@DU?$char_traits@D@std@@V?$allocator@D@2@@std@@@2@V?$allocator@U?$pair@$$CBV?$basic_string@DU?$char_traits@D@std@@V?$allocator@D@2@@std@@PAVTextureMap@@@std@@@2@$0A@@std@@@1@PBV?$_Tree_val@V?$_Tmap_traits@V?$basic_string@DU?$char_traits@D@std@@V?$allocator@D@2@@std@@PAVTextureMap@@U?$less@V?$basic_string@DU?$char_traits@D@std@@V?$allocator@D@2@@std@@@2@V?$allocator@U?$pair@$$CBV?$basic_string@DU?$char_traits@D@std@@V?$allocator@D@2@@std@@PAVTextureMap@@@std@@@2@$0A@@std@@@1@@Z 00451c70 f i scene.obj
 0001:00050d10       ??E?$_Tree_unchecked_const_iterator@V?$_Tree_val@V?$_Tmap_traits@V?$basic_string@DU?$char_traits@D@std@@V?$allocator@D@2@@std@@PAVTextureMap@@U?$less@V?$basic_string@DU?$char_traits@D@std@@V?$allocator@D@2@@std@@@2@V?$allocator@U?$pair@$$CBV?$basic_string@DU?$char_traits@D@std@@V?$allocator@D@2@@std@@PAVTextureMap@@@std@@@2@$0A@@std@@@std@@U_Iterator_base12@2@@std@@QAEAAV01@XZ 00451d10 f i scene.obj
 0001:00050e00       ?_Erase@?$_Tree@V?$_Tmap_traits@V?$basic_string@DU?$char_traits@D@std@@V?$allocator@D@2@@std@@PAVTextureMap@@U?$less@V?$basic_string@DU?$char_traits@D@std@@V?$allocator@D@2@@std@@@2@V?$allocator@U?$pair@$$CBV?$basic_string@DU?$char_traits@D@std@@V?$allocator@D@2@@std@@PAVTextureMap@@@std@@@2@$0A@@std@@@std@@IAEXPAU_Node@?$_Tree_nod@V?$_Tmap_traits@V?$basic_string@DU?$char_traits@D@std@@V?$allocator@D@2@@std@@PAVTextureMap@@U?$less@V?$basic_string@DU?$char_traits@D@std@@V?$allocator@D@2@@std@@@2@V?$allocator@U?$pair@$$CBV?$basic_string@DU?$char_traits@D@std@@V?$allocator@D@2@@std@@PAVTextureMap@@@std@@@2@$0A@@std@@@2@@Z 00451e00 f i scene.obj
 0001:00050ec0       ?_Lrotate@?$_Tree@V?$_Tmap_traits@V?$basic_string@DU?$char_traits@D@std@@V?$allocator@D@2@@std@@PAVTextureMap@@U?$less@V?$basic_string@DU?$char_traits@D@std@@V?$allocator@D@2@@std@@@2@V?$allocator@U?$pair@$$CBV?$basic_string@DU?$char_traits@D@std@@V?$allocator@D@2@@std@@PAVTextureMap@@@std@@@2@$0A@@std@@@std@@IAEXPAU_Node@?$_Tree_nod@V?$_Tmap_traits@V?$basic_string@DU?$char_traits@D@std@@V?$allocator@D@2@@std@@PAVTextureMap@@U?$less@V?$basic_string@DU?$char_traits@D@std@@V?$allocator@D@2@@std@@@2@V?$allocator@U?$pair@$$CBV?$basic_string@DU?$char_traits@D@std@@V?$allocator@D@2@@std@@PAVTextureMap@@@std@@@2@$0A@@std@@@2@@Z 00451ec0 f i scene.obj
 0001:00051020       ?_Rmost@?$_Tree@V?$_Tmap_traits@V?$basic_string@DU?$char_traits@D@std@@V?$allocator@D@2@@std@@PAVTextureMap@@U?$less@V?$basic_string@DU?$char_traits@D@std@@V?$allocator@D@2@@std@@@2@V?$allocator@U?$pair@$$CBV?$basic_string@DU?$char_traits@D@std@@V?$allocator@D@2@@std@@PAVTextureMap@@@std@@@2@$0A@@std@@@std@@IBEAAPAU_Node@?$_Tree_nod@V?$_Tmap_traits@V?$basic_string@DU?$char_traits@D@std@@V?$allocator@D@2@@std@@PAVTextureMap@@U?$less@V?$basic_string@DU?$char_traits@D@std@@V?$allocator@D@2@@std@@@2@V?$allocator@U?$pair@$$CBV?$basic_string@DU?$char_traits@D@std@@V?$allocator@D@2@@std@@PAVTextureMap@@@std@@@2@$0A@@std@@@2@XZ 00452020 f i scene.obj
 0001:00051070       ?_Rrotate@?$_Tree@V?$_Tmap_traits@V?$basic_string@DU?$char_traits@D@std@@V?$allocator@D@2@@std@@PAVTextureMap@@U?$less@V?$basic_string@DU?$char_traits@D@std@@V?$allocator@D@2@@std@@@2@V?$allocator@U?$pair@$$CBV?$basic_string@DU?$char_traits@D@std@@V?$allocator@D@2@@std@@PAVTextureMap@@@std@@@2@$0A@@std@@@std@@IAEXPAU_Node@?$_Tree_nod@V?$_Tmap_traits@V?$basic_string@DU?$char_traits@D@std@@V?$allocator@D@2@@std@@PAVTextureMap@@U?$less@V?$basic_string@DU?$char_traits@D@std@@V?$allocator@D@2@@std@@@2@V?$allocator@U?$pair@$$CBV?$basic_string@DU?$char_traits@D@std@@V?$allocator@D@2@@std@@PAVTextureMap@@@std@@@2@$0A@@std@@@2@@Z 00452070 f i scene.obj
 0001:000511d0       ?_Orphan_ptr@?$_Tree@V?$_Tmap_traits@V?$basic_string@DU?$char_traits@D@std@@V?$allocator@D@2@@std@@PAVTextureMap@@U?$less@V?$basic_string@DU?$char_traits@D@std@@V?$allocator@D@2@@std@@@2@V?$allocator@U?$pair@$$CBV?$basic_string@DU?$char_traits@D@std@@V?$allocator@D@2@@std@@PAVTextureMap@@@std@@@2@$0A@@std@@@std@@IBEXAAV12@PAU_Node@?$_Tree_nod@V?$_Tmap_traits@V?$basic_string@DU?$char_traits@D@std@@V?$allocator@D@2@@std@@PAVTextureMap@@U?$less@V?$basic_string@DU?$char_traits@D@std@@V?$allocator@D@2@@std@@@2@V?$allocator@U?$pair@$$CBV?$basic_string@DU?$char_traits@D@std@@V?$allocator@D@2@@std@@PAVTextureMap@@@std@@@2@$0A@@std@@@2@@Z 004521d0 f i scene.obj
 0001:00051310       ?_Max@?$_Tree_val@V?$_Tmap_traits@V?$basic_string@DU?$char_traits@D@std@@V?$allocator@D@2@@std@@PAVTextureMap@@U?$less@V?$basic_string@DU?$char_traits@D@std@@V?$allocator@D@2@@std@@@2@V?$allocator@U?$pair@$$CBV?$basic_string@DU?$char_traits@D@std@@V?$allocator@D@2@@std@@PAVTextureMap@@@std@@@2@$0A@@std@@@std@@SAPAU_Node@?$_Tree_nod@V?$_Tmap_traits@V?$basic_string@DU?$char_traits@D@std@@V?$allocator@D@2@@std@@PAVTextureMap@@U?$less@V?$basic_string@DU?$char_traits@D@std@@V?$allocator@D@2@@std@@@2@V?$allocator@U?$pair@$$CBV?$basic_string@DU?$char_traits@D@std@@V?$allocator@D@2@@std@@PAVTextureMap@@@std@@@2@$0A@@std@@@2@PAU342@@Z 00452310 f i scene.obj
 0001:00051380       ?_Min@?$_Tree_val@V?$_Tmap_traits@V?$basic_string@DU?$char_traits@D@std@@V?$allocator@D@2@@std@@PAVTextureMap@@U?$less@V?$basic_string@DU?$char_traits@D@std@@V?$allocator@D@2@@std@@@2@V?$allocator@U?$pair@$$CBV?$basic_string@DU?$char_traits@D@std@@V?$allocator@D@2@@std@@PAVTextureMap@@@std@@@2@$0A@@std@@@std@@SAPAU_Node@?$_Tree_nod@V?$_Tmap_traits@V?$basic_string@DU?$char_traits@D@std@@V?$allocator@D@2@@std@@PAVTextureMap@@U?$less@V?$basic_string@DU?$char_traits@D@std@@V?$allocator@D@2@@std@@@2@V?$allocator@U?$pair@$$CBV?$basic_string@DU?$char_traits@D@std@@V?$allocator@D@2@@std@@PAVTextureMap@@@std@@@2@$0A@@std@@@2@PAU342@@Z 00452380 f i scene.obj
 0001:000513f0       ??$?DN@@YA?AV?$Vec3@N@@ABV?$Mat4@N@@ABV0@@Z 004523f0 f i scene.obj
 0001:000514d0       ??$make_pair@Vray@@AAVisect@@@std@@YA?AU?$pair@Vray@@Visect@@@0@ABVray@@AAVisect@@@Z 004524d0 f i scene.obj
 0001:000515b0       ??0ray@@QAE@ABV0@@Z        004525b0 f i scene.obj
 0001:00051620       ??$minimum@N@@YA?AV?$Vec3@N@@ABV0@0@Z 00452620 f i scene.obj
 0001:00051710       ??$addressof@QAVGeometry@@@std@@YAPBQAVGeometry@@ABQAV1@@Z 00452710 f i scene.obj
 0001:00051740       ??$_Cons_val@V?$allocator@PAVGeometry@@@std@@PAVGeometry@@AAPAV3@@std@@YAXAAV?$allocator@PAVGeometry@@@0@PAPAVGeometry@@AAPAV2@@Z 00452740 f i scene.obj
 0001:00051790       ??$_Cons_val@V?$allocator@PAVGeometry@@@std@@PAVGeometry@@ABQAV3@@std@@YAXAAV?$allocator@PAVGeometry@@@0@PAPAVGeometry@@ABQAV2@@Z 00452790 f i scene.obj
 0001:000517e0       ??$insert@U?$pair@$$CBV?$basic_string@DU?$char_traits@D@std@@V?$allocator@D@2@@std@@PAVTextureMap@@@std@@@?$_Tree@V?$_Tmap_traits@V?$basic_string@DU?$char_traits@D@std@@V?$allocator@D@2@@std@@PAVTextureMap@@U?$less@V?$basic_string@DU?$char_traits@D@std@@V?$allocator@D@2@@std@@@2@V?$allocator@U?$pair@$$CBV?$basic_string@DU?$char_traits@D@std@@V?$allocator@D@2@@std@@PAVTextureMap@@@std@@@2@$0A@@std@@@std@@QAE?AV?$_Tree_iterator@V?$_Tree_val@V?$_Tmap_traits@V?$basic_string@DU?$char_traits@D@std@@V?$allocator@D@2@@std@@PAVTextureMap@@U?$less@V?$basic_string@DU?$char_traits@D@std@@V?$allocator@D@2@@std@@@2@V?$allocator@U?$pair@$$CBV?$basic_string@DU?$char_traits@D@std@@V?$allocator@D@2@@std@@PAVTextureMap@@@std@@@2@$0A@@std@@@std@@@1@V?$_Tree_const_iterator@V?$_Tree_val@V?$_Tmap_traits@V?$basic_string@DU?$char_traits@D@std@@V?$allocator@D@2@@std@@PAVTextureMap@@U?$less@V?$basic_string@DU?$char_traits@D@std@@V?$allocator@D@2@@std@@@2@V?$allocator@U?$pair@$$CBV?$basic_string@DU?$char_traits@D@std@@V?$allocator@D@2@@std@@PAVTextureMap@@@std@@@2@$0A@@std@@@std@@@1@$$QAU?$pair@$$CBV?$basic_string@DU?$char_traits@D@std@@V?$allocator@D@2@@std@@PAVTextureMap@@@1@@Z 004527e0 f i scene.obj
 0001:000518c0       ??$_Debug_lt_pred@U?$less@V?$basic_string@DU?$char_traits@D@std@@V?$allocator@D@2@@std@@@std@@V?$basic_string@DU?$char_traits@D@std@@V?$allocator@D@2@@2@V32@@std@@YA_NU?$less@V?$basic_string@DU?$char_traits@D@std@@V?$allocator@D@2@@std@@@0@ABV?$basic_string@DU?$char_traits@D@std@@V?$allocator@D@2@@0@AAV20@PB_WI@Z 004528c0 f i scene.obj
 0001:00051950       ??$addressof@U?$pair@Vray@@Visect@@@std@@@std@@YAPAU?$pair@Vray@@Visect@@@0@AAU10@@Z 00452950 f i scene.obj
 0001:00051980       ??$forward@U?$pair@Vray@@Visect@@@std@@@std@@YA$$QAU?$pair@Vray@@Visect@@@0@AAU10@@Z 00452980 f i scene.obj
 0001:000519b0       ??$_Cons_val@V?$allocator@U?$pair@Vray@@Visect@@@std@@@std@@U?$pair@Vray@@Visect@@@2@U32@@std@@YAXAAV?$allocator@U?$pair@Vray@@Visect@@@std@@@0@PAU?$pair@Vray@@Visect@@@0@$$QAU20@@Z 004529b0 f i scene.obj
 0001:00051a00       ??$?0PAVTransformNode@@@?$allocator@U_Container_proxy@std@@@std@@QAE@ABV?$allocator@PAVTransformNode@@@1@@Z 00452a00 f i scene.obj
 0001:00051a30       ??$?0PAVLight@@@?$allocator@U_Container_proxy@std@@@std@@QAE@ABV?$allocator@PAVLight@@@1@@Z 00452a30 f i scene.obj
 0001:00051a60       ??$_Move@PAPAVGeometry@@PAPAV1@@std@@YAPAPAVGeometry@@PAPAV1@00@Z 00452a60 f i scene.obj
 0001:00051ad0       ??$?0PAVGeometry@@@?$allocator@U_Container_proxy@std@@@std@@QAE@ABV?$allocator@PAVGeometry@@@1@@Z 00452ad0 f i scene.obj
 0001:00051b00       ??$_Kfn@$$CBV?$basic_string@DU?$char_traits@D@std@@V?$allocator@D@2@@std@@PAVTextureMap@@@?$_Tmap_traits@V?$basic_string@DU?$char_traits@D@std@@V?$allocator@D@2@@std@@PAVTextureMap@@U?$less@V?$basic_string@DU?$char_traits@D@std@@V?$allocator@D@2@@std@@@2@V?$allocator@U?$pair@$$CBV?$basic_string@DU?$char_traits@D@std@@V?$allocator@D@2@@std@@PAVTextureMap@@@std@@@2@$0A@@std@@SAABV?$basic_string@DU?$char_traits@D@std@@V?$allocator@D@2@@1@ABU?$pair@$$CBV?$basic_string@DU?$char_traits@D@std@@V?$allocator@D@2@@std@@PAVTextureMap@@@1@@Z 00452b00 f i scene.obj
 0001:00051b30       ??$?MDU?$char_traits@D@std@@V?$allocator@D@1@@std@@YA_NABV?$basic_string@DU?$char_traits@D@std@@V?$allocator@D@2@@0@0@Z 00452b30 f i scene.obj
 0001:00051b80       ?compare@?$basic_string@DU?$char_traits@D@std@@V?$allocator@D@2@@std@@QBEHABV12@@Z 00452b80 f i scene.obj
 0001:00051be0       ?compare@?$basic_string@DU?$char_traits@D@std@@V?$allocator@D@2@@std@@QBEHIIPBDI@Z 00452be0 f i scene.obj
 0001:00051cf0       ?compare@?$char_traits@D@std@@SAHPBD0I@Z 00452cf0 f i scene.obj
 0001:00051d40       ??$?0U?$pair@Vray@@Visect@@@std@@@?$allocator@U_Container_proxy@std@@@std@@QAE@ABV?$allocator@U?$pair@Vray@@Visect@@@std@@@1@@Z 00452d40 f i scene.obj
 0001:00051d70       ??$move@AAPAVTextureMap@@@std@@YA$$QAPAVTextureMap@@AAPAV1@@Z 00452d70 f i scene.obj
 0001:00051da0       ??$_Destroy_range@V?$allocator@PAVTransformNode@@@std@@@std@@YAXPAPAVTransformNode@@0AAV?$allocator@PAVTransformNode@@@0@@Z 00452da0 f i scene.obj
 0001:00051e10       ??$_Destroy_range@V?$allocator@PAVLight@@@std@@@std@@YAXPAPAVLight@@0AAV?$allocator@PAVLight@@@0@@Z 00452e10 f i scene.obj
 0001:00051e80       ??$_Umove@PAPAVGeometry@@@?$vector@PAVGeometry@@V?$allocator@PAVGeometry@@@std@@@std@@IAEPAPAVGeometry@@PAPAV2@00@Z 00452e80 f i scene.obj
 0001:00051ee0       ??$_Destroy_range@V?$allocator@PAVGeometry@@@std@@@std@@YAXPAPAVGeometry@@0AAV?$allocator@PAVGeometry@@@0@@Z 00452ee0 f i scene.obj
 0001:00051f50       ??$_Debug_lt_pred@U?$less@V?$basic_string@DU?$char_traits@D@std@@V?$allocator@D@2@@std@@@std@@V?$basic_string@DU?$char_traits@D@std@@V?$allocator@D@2@@2@V32@@std@@YA_NU?$less@V?$basic_string@DU?$char_traits@D@std@@V?$allocator@D@2@@std@@@0@AAV?$basic_string@DU?$char_traits@D@std@@V?$allocator@D@2@@0@ABV20@PB_WI@Z 00452f50 f i scene.obj
 0001:00051fe0       ??$?0U_Node@?$_Tree_nod@V?$_Tmap_traits@V?$basic_string@DU?$char_traits@D@std@@V?$allocator@D@2@@std@@PAVTextureMap@@U?$less@V?$basic_string@DU?$char_traits@D@std@@V?$allocator@D@2@@std@@@2@V?$allocator@U?$pair@$$CBV?$basic_string@DU?$char_traits@D@std@@V?$allocator@D@2@@std@@PAVTextureMap@@@std@@@2@$0A@@std@@@std@@@?$allocator@U_Container_proxy@std@@@std@@QAE@ABV?$allocator@U_Node@?$_Tree_nod@V?$_Tmap_traits@V?$basic_string@DU?$char_traits@D@std@@V?$allocator@D@2@@std@@PAVTextureMap@@U?$less@V?$basic_string@DU?$char_traits@D@std@@V?$allocator@D@2@@std@@@2@V?$allocator@U?$pair@$$CBV?$basic_string@DU?$char_traits@D@std@@V?$allocator@D@2@@std@@PAVTextureMap@@@std@@@2@$0A@@std@@@std@@@1@@Z 00452fe0 f i scene.obj
 0001:00052010       ??$_Umove@PAU?$pair@Vray@@Visect@@@std@@@?$vector@U?$pair@Vray@@Visect@@@std@@V?$allocator@U?$pair@Vray@@Visect@@@std@@@2@@std@@IAEPAU?$pair@Vray@@Visect@@@1@PAU21@00@Z 00453010 f i scene.obj
 0001:00052070       ??$_Allocate@PAVGeometry@@@std@@YAPAPAVGeometry@@IPAPAV1@@Z 00453070 f i scene.obj
 0001:00052100       ??$addressof@U?$pair@$$CBV?$basic_string@DU?$char_traits@D@std@@V?$allocator@D@2@@std@@PAVTextureMap@@@std@@@std@@YAPAU?$pair@$$CBV?$basic_string@DU?$char_traits@D@std@@V?$allocator@D@2@@std@@PAVTextureMap@@@0@AAU10@@Z 00453100 f i scene.obj
 0001:00052130       ??$_Dest_val@V?$allocator@U?$pair@$$CBV?$basic_string@DU?$char_traits@D@std@@V?$allocator@D@2@@std@@PAVTextureMap@@@std@@@std@@U?$pair@$$CBV?$basic_string@DU?$char_traits@D@std@@V?$allocator@D@2@@std@@PAVTextureMap@@@2@@std@@YAXAAV?$allocator@U?$pair@$$CBV?$basic_string@DU?$char_traits@D@std@@V?$allocator@D@2@@std@@PAVTextureMap@@@std@@@0@PAU?$pair@$$CBV?$basic_string@DU?$char_traits@D@std@@V?$allocator@D@2@@std@@PAVTextureMap@@@0@@Z 00453130 f i scene.obj
 0001:00052170       ??$_Allocate@U?$pair@Vray@@Visect@@@std@@@std@@YAPAU?$pair@Vray@@Visect@@@0@IPAU10@@Z 00453170 f i scene.obj
 0001:00052200       ?construct@?$allocator@PAVGeometry@@@std@@QAEXPAPAVGeometry@@ABQAV3@@Z 00453200 f i scene.obj
 0001:00052250       ?_Insert@?$_Tree@V?$_Tmap_traits@V?$basic_string@DU?$char_traits@D@std@@V?$allocator@D@2@@std@@PAVTextureMap@@U?$less@V?$basic_string@DU?$char_traits@D@std@@V?$allocator@D@2@@std@@@2@V?$allocator@U?$pair@$$CBV?$basic_string@DU?$char_traits@D@std@@V?$allocator@D@2@@std@@PAVTextureMap@@@std@@@2@$0A@@std@@@std@@QAE?AV?$_Tree_iterator@V?$_Tree_val@V?$_Tmap_traits@V?$basic_string@DU?$char_traits@D@std@@V?$allocator@D@2@@std@@PAVTextureMap@@U?$less@V?$basic_string@DU?$char_traits@D@std@@V?$allocator@D@2@@std@@@2@V?$allocator@U?$pair@$$CBV?$basic_string@DU?$char_traits@D@std@@V?$allocator@D@2@@std@@PAVTextureMap@@@std@@@2@$0A@@std@@@std@@@2@V?$_Tree_const_iterator@V?$_Tree_val@V?$_Tmap_traits@V?$basic_string@DU?$char_traits@D@std@@V?$allocator@D@2@@std@@PAVTextureMap@@U?$less@V?$basic_string@DU?$char_traits@D@std@@V?$allocator@D@2@@std@@@2@V?$allocator@U?$pair@$$CBV?$basic_string@DU?$char_traits@D@std@@V?$allocator@D@2@@std@@PAVTextureMap@@@std@@@2@$0A@@std@@@std@@@2@PAU_Node@?$_Tree_nod@V?$_Tmap_traits@V?$basic_string@DU?$char_traits@D@std@@V?$allocator@D@2@@std@@PAVTextureMap@@U?$less@V?$basic_string@DU?$char_traits@D@std@@V?$allocator@D@2@@std@@@2@V?$allocator@U?$pair@$$CBV?$basic_string@DU?$char_traits@D@std@@V?$allocator@D@2@@std@@PAVTextureMap@@@std@@@2@$0A@@std@@@2@@Z 00453250 f i scene.obj
 0001:00052e60       ?destroy@?$allocator@U?$pair@$$CBV?$basic_string@DU?$char_traits@D@std@@V?$allocator@D@2@@std@@PAVTextureMap@@@std@@@std@@QAEXPAU?$pair@$$CBV?$basic_string@DU?$char_traits@D@std@@V?$allocator@D@2@@std@@PAVTextureMap@@@2@@Z 00453e60 f i scene.obj
 0001:00052eb0       ?construct@?$allocator@U?$pair@Vray@@Visect@@@std@@@std@@QAEXPAU?$pair@Vray@@Visect@@@2@$$QAU32@@Z 00453eb0 f i scene.obj
 0001:00052f80       ??1?$pair@V?$_Tree_iterator@V?$_Tree_val@V?$_Tmap_traits@V?$basic_string@DU?$char_traits@D@std@@V?$allocator@D@2@@std@@PAVTextureMap@@U?$less@V?$basic_string@DU?$char_traits@D@std@@V?$allocator@D@2@@std@@@2@V?$allocator@U?$pair@$$CBV?$basic_string@DU?$char_traits@D@std@@V?$allocator@D@2@@std@@PAVTextureMap@@@std@@@2@$0A@@std@@@std@@@std@@_N@std@@QAE@XZ 00453f80 f i scene.obj
 0001:00052fc0       ??1?$_Pair_base@V?$_Tree_iterator@V?$_Tree_val@V?$_Tmap_traits@V?$basic_string@DU?$char_traits@D@std@@V?$allocator@D@2@@std@@PAVTextureMap@@U?$less@V?$basic_string@DU?$char_traits@D@std@@V?$allocator@D@2@@std@@@2@V?$allocator@U?$pair@$$CBV?$basic_string@DU?$char_traits@D@std@@V?$allocator@D@2@@std@@PAVTextureMap@@@std@@@2@$0A@@std@@@std@@@std@@_N@std@@QAE@XZ 00453fc0 f i scene.obj
 0001:00053000       ?size@?$_Tree@V?$_Tmap_traits@V?$basic_string@DU?$char_traits@D@std@@V?$allocator@D@2@@std@@PAVTextureMap@@U?$less@V?$basic_string@DU?$char_traits@D@std@@V?$allocator@D@2@@std@@@2@V?$allocator@U?$pair@$$CBV?$basic_string@DU?$char_traits@D@std@@V?$allocator@D@2@@std@@PAVTextureMap@@@std@@@2@$0A@@std@@@std@@QBEIXZ 00454000 f i scene.obj
 0001:00053030       ?_Linsert@?$_Tree@V?$_Tmap_traits@V?$basic_string@DU?$char_traits@D@std@@V?$allocator@D@2@@std@@PAVTextureMap@@U?$less@V?$basic_string@DU?$char_traits@D@std@@V?$allocator@D@2@@std@@@2@V?$allocator@U?$pair@$$CBV?$basic_string@DU?$char_traits@D@std@@V?$allocator@D@2@@std@@PAVTextureMap@@@std@@@2@$0A@@std@@@std@@QAE?AU?$pair@V?$_Tree_iterator@V?$_Tree_val@V?$_Tmap_traits@V?$basic_string@DU?$char_traits@D@std@@V?$allocator@D@2@@std@@PAVTextureMap@@U?$less@V?$basic_string@DU?$char_traits@D@std@@V?$allocator@D@2@@std@@@2@V?$allocator@U?$pair@$$CBV?$basic_string@DU?$char_traits@D@std@@V?$allocator@D@2@@std@@PAVTextureMap@@@std@@@2@$0A@@std@@@std@@@std@@_N@2@PAU_Node@?$_Tree_nod@V?$_Tmap_traits@V?$basic_string@DU?$char_traits@D@std@@V?$allocator@D@2@@std@@PAVTextureMap@@U?$less@V?$basic_string@DU?$char_traits@D@std@@V?$allocator@D@2@@std@@@2@V?$allocator@U?$pair@$$CBV?$basic_string@DU?$char_traits@D@std@@V?$allocator@D@2@@std@@PAVTextureMap@@@std@@@2@$0A@@std@@@2@_N@Z 00454030 f i scene.obj
 0001:000534a0       ?_Insert@?$_Tree@V?$_Tmap_traits@V?$basic_string@DU?$char_traits@D@std@@V?$allocator@D@2@@std@@PAVTextureMap@@U?$less@V?$basic_string@DU?$char_traits@D@std@@V?$allocator@D@2@@std@@@2@V?$allocator@U?$pair@$$CBV?$basic_string@DU?$char_traits@D@std@@V?$allocator@D@2@@std@@PAVTextureMap@@@std@@@2@$0A@@std@@@std@@IAE?AV?$_Tree_iterator@V?$_Tree_val@V?$_Tmap_traits@V?$basic_string@DU?$char_traits@D@std@@V?$allocator@D@2@@std@@PAVTextureMap@@U?$less@V?$basic_string@DU?$char_traits@D@std@@V?$allocator@D@2@@std@@@2@V?$allocator@U?$pair@$$CBV?$basic_string@DU?$char_traits@D@std@@V?$allocator@D@2@@std@@PAVTextureMap@@@std@@@2@$0A@@std@@@std@@@2@_NPAU_Node@?$_Tree_nod@V?$_Tmap_traits@V?$basic_string@DU?$char_traits@D@std@@V?$allocator@D@2@@std@@PAVTextureMap@@U?$less@V?$basic_string@DU?$char_traits@D@std@@V?$allocator@D@2@@std@@@2@V?$allocator@U?$pair@$$CBV?$basic_string@DU?$char_traits@D@std@@V?$allocator@D@2@@std@@PAVTextureMap@@@std@@@2@$0A@@std@@@2@1@Z 004544a0 f i scene.obj
 0001:00053920       ??F?$_Tree_const_iterator@V?$_Tree_val@V?$_Tmap_traits@V?$basic_string@DU?$char_traits@D@std@@V?$allocator@D@2@@std@@PAVTextureMap@@U?$less@V?$basic_string@DU?$char_traits@D@std@@V?$allocator@D@2@@std@@@2@V?$allocator@U?$pair@$$CBV?$basic_string@DU?$char_traits@D@std@@V?$allocator@D@2@@std@@PAVTextureMap@@@std@@@2@$0A@@std@@@std@@@std@@QAEAAV01@XZ 00454920 f i scene.obj
 0001:00053aa0       ?max_size@?$_Tree@V?$_Tmap_traits@V?$basic_string@DU?$char_traits@D@std@@V?$allocator@D@2@@std@@PAVTextureMap@@U?$less@V?$basic_string@DU?$char_traits@D@std@@V?$allocator@D@2@@std@@@2@V?$allocator@U?$pair@$$CBV?$basic_string@DU?$char_traits@D@std@@V?$allocator@D@2@@std@@PAVTextureMap@@@std@@@2@$0A@@std@@@std@@QBEIXZ 00454aa0 f i scene.obj
 0001:00053af0       ??F?$_Tree_iterator@V?$_Tree_val@V?$_Tmap_traits@V?$basic_string@DU?$char_traits@D@std@@V?$allocator@D@2@@std@@PAVTextureMap@@U?$less@V?$basic_string@DU?$char_traits@D@std@@V?$allocator@D@2@@std@@@2@V?$allocator@U?$pair@$$CBV?$basic_string@DU?$char_traits@D@std@@V?$allocator@D@2@@std@@PAVTextureMap@@@std@@@2@$0A@@std@@@std@@@std@@QAEAAV01@XZ 00454af0 f i scene.obj
 0001:00053b40       ??F?$_Tree_unchecked_const_iterator@V?$_Tree_val@V?$_Tmap_traits@V?$basic_string@DU?$char_traits@D@std@@V?$allocator@D@2@@std@@PAVTextureMap@@U?$less@V?$basic_string@DU?$char_traits@D@std@@V?$allocator@D@2@@std@@@2@V?$allocator@U?$pair@$$CBV?$basic_string@DU?$char_traits@D@std@@V?$allocator@D@2@@std@@PAVTextureMap@@@std@@@2@$0A@@std@@@std@@U_Iterator_base12@2@@std@@QAEAAV01@XZ 00454b40 f i scene.obj
 0001:00053c60       ??0?$pair@V?$_Tree_iterator@V?$_Tree_val@V?$_Tmap_traits@V?$basic_string@DU?$char_traits@D@std@@V?$allocator@D@2@@std@@PAVTextureMap@@U?$less@V?$basic_string@DU?$char_traits@D@std@@V?$allocator@D@2@@std@@@2@V?$allocator@U?$pair@$$CBV?$basic_string@DU?$char_traits@D@std@@V?$allocator@D@2@@std@@PAVTextureMap@@@std@@@2@$0A@@std@@@std@@@std@@_N@std@@QAE@$$QAV?$_Tree_iterator@V?$_Tree_val@V?$_Tmap_traits@V?$basic_string@DU?$char_traits@D@std@@V?$allocator@D@2@@std@@PAVTextureMap@@U?$less@V?$basic_string@DU?$char_traits@D@std@@V?$allocator@D@2@@std@@@2@V?$allocator@U?$pair@$$CBV?$basic_string@DU?$char_traits@D@std@@V?$allocator@D@2@@std@@PAVTextureMap@@@std@@@2@$0A@@std@@@std@@@1@$$QA_N@Z 00454c60 f i scene.obj
 0001:00053cc0       ?max_size@?$allocator@U?$pair@$$CBV?$basic_string@DU?$char_traits@D@std@@V?$allocator@D@2@@std@@PAVTextureMap@@@std@@@std@@QBEIXZ 00454cc0 f i scene.obj
 0001:00053d20       ??0?$_Pair_base@V?$_Tree_iterator@V?$_Tree_val@V?$_Tmap_traits@V?$basic_string@DU?$char_traits@D@std@@V?$allocator@D@2@@std@@PAVTextureMap@@U?$less@V?$basic_string@DU?$char_traits@D@std@@V?$allocator@D@2@@std@@@2@V?$allocator@U?$pair@$$CBV?$basic_string@DU?$char_traits@D@std@@V?$allocator@D@2@@std@@PAVTextureMap@@@std@@@2@$0A@@std@@@std@@@std@@_N@std@@QAE@$$QAV?$_Tree_iterator@V?$_Tree_val@V?$_Tmap_traits@V?$basic_string@DU?$char_traits@D@std@@V?$allocator@D@2@@std@@PAVTextureMap@@U?$less@V?$basic_string@DU?$char_traits@D@std@@V?$allocator@D@2@@std@@@2@V?$allocator@U?$pair@$$CBV?$basic_string@DU?$char_traits@D@std@@V?$allocator@D@2@@std@@PAVTextureMap@@@std@@@2@$0A@@std@@@std@@@1@$$QA_N@Z 00454d20 f i scene.obj
 0001:00053dc0       ??$forward@AAVisect@@@std@@YAAAVisect@@AAV1@@Z 00454dc0 f i scene.obj
 0001:00053df0       ??$?0Vray@@AAVisect@@@?$pair@Vray@@Visect@@@std@@QAE@$$QAVray@@AAVisect@@@Z 00454df0 f i scene.obj
 0001:00053e50       ??$?0Vray@@Visect@@@?$pair@Vray@@Visect@@@std@@QAE@$$QAU01@@Z 00454e50 f i scene.obj
 0001:00053ec0       ??$forward@AAPAVGeometry@@@std@@YAAAPAVGeometry@@AAPAV1@@Z 00454ec0 f i scene.obj
 0001:00053ef0       ??$construct@AAPAVGeometry@@@?$allocator@PAVGeometry@@@std@@QAEXPAPAVGeometry@@AAPAV2@@Z 00454ef0 f i scene.obj
 0001:00053fc0       ??$forward@ABQAVGeometry@@@std@@YAABQAVGeometry@@ABQAV1@@Z 00454fc0 f i scene.obj
 0001:00053ff0       ??$forward@U?$pair@$$CBV?$basic_string@DU?$char_traits@D@std@@V?$allocator@D@2@@std@@PAVTextureMap@@@std@@@std@@YA$$QAU?$pair@$$CBV?$basic_string@DU?$char_traits@D@std@@V?$allocator@D@2@@std@@PAVTextureMap@@@0@AAU10@@Z 00454ff0 f i scene.obj
 0001:00054020       ??$_Buynode@U?$pair@$$CBV?$basic_string@DU?$char_traits@D@std@@V?$allocator@D@2@@std@@PAVTextureMap@@@std@@@?$_Tree_val@V?$_Tmap_traits@V?$basic_string@DU?$char_traits@D@std@@V?$allocator@D@2@@std@@PAVTextureMap@@U?$less@V?$basic_string@DU?$char_traits@D@std@@V?$allocator@D@2@@std@@@2@V?$allocator@U?$pair@$$CBV?$basic_string@DU?$char_traits@D@std@@V?$allocator@D@2@@std@@PAVTextureMap@@@std@@@2@$0A@@std@@@std@@QAEPAU_Node@?$_Tree_nod@V?$_Tmap_traits@V?$basic_string@DU?$char_traits@D@std@@V?$allocator@D@2@@std@@PAVTextureMap@@U?$less@V?$basic_string@DU?$char_traits@D@std@@V?$allocator@D@2@@std@@@2@V?$allocator@U?$pair@$$CBV?$basic_string@DU?$char_traits@D@std@@V?$allocator@D@2@@std@@PAVTextureMap@@@std@@@2@$0A@@std@@@1@$$QAU?$pair@$$CBV?$basic_string@DU?$char_traits@D@std@@V?$allocator@D@2@@std@@PAVTextureMap@@@1@@Z 00455020 f i scene.obj
 0001:00054130       ??$_Ptr_cat@PAVGeometry@@PAV1@@std@@YA?AU_Scalar_ptr_iterator_tag@0@PAPAVGeometry@@0@Z 00455130 f i scene.obj
 0001:00054190       ??$_Move@PAPAVGeometry@@PAPAV1@@std@@YAPAPAVGeometry@@PAPAV1@00U_Scalar_ptr_iterator_tag@0@@Z 00455190 f i scene.obj
 0001:00054200       ??$_Ptr_cat@PAVTransformNode@@PAV1@@std@@YA?AU_Scalar_ptr_iterator_tag@0@PAPAVTransformNode@@0@Z 00455200 f i scene.obj
 0001:00054260       ??$_Destroy_range@V?$allocator@PAVTransformNode@@@std@@@std@@YAXPAPAVTransformNode@@0AAV?$allocator@PAVTransformNode@@@0@U_Scalar_ptr_iterator_tag@0@@Z 00455260 f i scene.obj
 0001:00054290       ??$_Ptr_cat@PAVLight@@PAV1@@std@@YA?AU_Scalar_ptr_iterator_tag@0@PAPAVLight@@0@Z 00455290 f i scene.obj
 0001:000542f0       ??$_Destroy_range@V?$allocator@PAVLight@@@std@@@std@@YAXPAPAVLight@@0AAV?$allocator@PAVLight@@@0@U_Scalar_ptr_iterator_tag@0@@Z 004552f0 f i scene.obj
 0001:00054320       ??$_Uninitialized_move@PAPAVGeometry@@PAPAV1@V?$allocator@PAVGeometry@@@std@@@std@@YAPAPAVGeometry@@PAPAV1@00AAV?$allocator@PAVGeometry@@@0@@Z 00455320 f i scene.obj
 0001:000543a0       ??$_Destroy_range@V?$allocator@PAVGeometry@@@std@@@std@@YAXPAPAVGeometry@@0AAV?$allocator@PAVGeometry@@@0@U_Scalar_ptr_iterator_tag@0@@Z 004553a0 f i scene.obj
 0001:000543d0       ??$_Uninitialized_move@PAU?$pair@Vray@@Visect@@@std@@PAU12@V?$allocator@U?$pair@Vray@@Visect@@@std@@@2@@std@@YAPAU?$pair@Vray@@Visect@@@0@PAU10@00AAV?$allocator@U?$pair@Vray@@Visect@@@std@@@0@@Z 004553d0 f i scene.obj
 0001:00054450       ??$_Construct@PAVGeometry@@ABQAV1@@std@@YAXPAPAVGeometry@@ABQAV1@@Z 00455450 f i scene.obj
 0001:00054520       ??$_Destroy@U?$pair@$$CBV?$basic_string@DU?$char_traits@D@std@@V?$allocator@D@2@@std@@PAVTextureMap@@@std@@@std@@YAXPAU?$pair@$$CBV?$basic_string@DU?$char_traits@D@std@@V?$allocator@D@2@@std@@PAVTextureMap@@@0@@Z 00455520 f i scene.obj
 0001:00054560       ??$?0AAV?$_Tree_iterator@V?$_Tree_val@V?$_Tmap_traits@V?$basic_string@DU?$char_traits@D@std@@V?$allocator@D@2@@std@@PAVTextureMap@@U?$less@V?$basic_string@DU?$char_traits@D@std@@V?$allocator@D@2@@std@@@2@V?$allocator@U?$pair@$$CBV?$basic_string@DU?$char_traits@D@std@@V?$allocator@D@2@@std@@PAVTextureMap@@@std@@@2@$0A@@std@@@std@@@std@@_N@?$pair@V?$_Tree_iterator@V?$_Tree_val@V?$_Tmap_traits@V?$basic_string@DU?$char_traits@D@std@@V?$allocator@D@2@@std@@PAVTextureMap@@U?$less@V?$basic_string@DU?$char_traits@D@std@@V?$allocator@D@2@@std@@@2@V?$allocator@U?$pair@$$CBV?$basic_string@DU?$char_traits@D@std@@V?$allocator@D@2@@std@@PAVTextureMap@@@std@@@2@$0A@@std@@@std@@@std@@_N@std@@QAE@AAV?$_Tree_iterator@V?$_Tree_val@V?$_Tmap_traits@V?$basic_string@DU?$char_traits@D@std@@V?$allocator@D@2@@std@@PAVTextureMap@@U?$less@V?$basic_string@DU?$char_traits@D@std@@V?$allocator@D@2@@std@@@2@V?$allocator@U?$pair@$$CBV?$basic_string@DU?$char_traits@D@std@@V?$allocator@D@2@@std@@PAVTextureMap@@@std@@@2@$0A@@std@@@std@@@1@$$QA_N@Z 00455560 f i scene.obj
 0001:000545c0       ??$move@AAV?$_Tree_iterator@V?$_Tree_val@V?$_Tmap_traits@V?$basic_string@DU?$char_traits@D@std@@V?$allocator@D@2@@std@@PAVTextureMap@@U?$less@V?$basic_string@DU?$char_traits@D@std@@V?$allocator@D@2@@std@@@2@V?$allocator@U?$pair@$$CBV?$basic_string@DU?$char_traits@D@std@@V?$allocator@D@2@@std@@PAVTextureMap@@@std@@@2@$0A@@std@@@std@@@std@@@std@@YA$$QAV?$_Tree_iterator@V?$_Tree_val@V?$_Tmap_traits@V?$basic_string@DU?$char_traits@D@std@@V?$allocator@D@2@@std@@PAVTextureMap@@U?$less@V?$basic_string@DU?$char_traits@D@std@@V?$allocator@D@2@@std@@@2@V?$allocator@U?$pair@$$CBV?$basic_string@DU?$char_traits@D@std@@V?$allocator@D@2@@std@@PAVTextureMap@@@std@@@2@$0A@@std@@@std@@@0@AAV10@@Z 004555c0 f i scene.obj
 0001:000545f0       ??_G?$pair@$$CBV?$basic_string@DU?$char_traits@D@std@@V?$allocator@D@2@@std@@PAVTextureMap@@@std@@QAEPAXI@Z 004555f0 f i scene.obj
 0001:00054650       ?_Buynode@?$_Tree_val@V?$_Tmap_traits@V?$basic_string@DU?$char_traits@D@std@@V?$allocator@D@2@@std@@PAVTextureMap@@U?$less@V?$basic_string@DU?$char_traits@D@std@@V?$allocator@D@2@@std@@@2@V?$allocator@U?$pair@$$CBV?$basic_string@DU?$char_traits@D@std@@V?$allocator@D@2@@std@@PAVTextureMap@@@std@@@2@$0A@@std@@@std@@QAEPAU_Node@?$_Tree_nod@V?$_Tmap_traits@V?$basic_string@DU?$char_traits@D@std@@V?$allocator@D@2@@std@@PAVTextureMap@@U?$less@V?$basic_string@DU?$char_traits@D@std@@V?$allocator@D@2@@std@@@2@V?$allocator@U?$pair@$$CBV?$basic_string@DU?$char_traits@D@std@@V?$allocator@D@2@@std@@PAVTextureMap@@@std@@@2@$0A@@std@@@2@XZ 00455650 f i scene.obj
 0001:00054700       ?allocate@?$allocator@U_Node@?$_Tree_nod@V?$_Tmap_traits@V?$basic_string@DU?$char_traits@D@std@@V?$allocator@D@2@@std@@PAVTextureMap@@U?$less@V?$basic_string@DU?$char_traits@D@std@@V?$allocator@D@2@@std@@@2@V?$allocator@U?$pair@$$CBV?$basic_string@DU?$char_traits@D@std@@V?$allocator@D@2@@std@@PAVTextureMap@@@std@@@2@$0A@@std@@@std@@@std@@QAEPAU_Node@?$_Tree_nod@V?$_Tmap_traits@V?$basic_string@DU?$char_traits@D@std@@V?$allocator@D@2@@std@@PAVTextureMap@@U?$less@V?$basic_string@DU?$char_traits@D@std@@V?$allocator@D@2@@std@@@2@V?$allocator@U?$pair@$$CBV?$basic_string@DU?$char_traits@D@std@@V?$allocator@D@2@@std@@PAVTextureMap@@@std@@@2@$0A@@std@@@2@I@Z 00455700 f i scene.obj
 0001:00054750       ??$_Allocate@U_Node@?$_Tree_nod@V?$_Tmap_traits@V?$basic_string@DU?$char_traits@D@std@@V?$allocator@D@2@@std@@PAVTextureMap@@U?$less@V?$basic_string@DU?$char_traits@D@std@@V?$allocator@D@2@@std@@@2@V?$allocator@U?$pair@$$CBV?$basic_string@DU?$char_traits@D@std@@V?$allocator@D@2@@std@@PAVTextureMap@@@std@@@2@$0A@@std@@@std@@@std@@YAPAU_Node@?$_Tree_nod@V?$_Tmap_traits@V?$basic_string@DU?$char_traits@D@std@@V?$allocator@D@2@@std@@PAVTextureMap@@U?$less@V?$basic_string@DU?$char_traits@D@std@@V?$allocator@D@2@@std@@@2@V?$allocator@U?$pair@$$CBV?$basic_string@DU?$char_traits@D@std@@V?$allocator@D@2@@std@@PAVTextureMap@@@std@@@2@$0A@@std@@@0@IPAU120@@Z 00455750 f i scene.obj
 0001:000547e0       ??0?$_Pair_base@Vray@@Visect@@@std@@QAE@$$QAVray@@$$QAVisect@@@Z 004557e0 f i scene.obj
 0001:00054890       ??0isect@@QAE@ABV0@@Z      00455890 f i scene.obj
 0001:000549d0       ??$forward@Vray@@@std@@YA$$QAVray@@AAV1@@Z 004559d0 f i scene.obj
 0001:00054a00       ??$?0Vray@@AAVisect@@@?$_Pair_base@Vray@@Visect@@@std@@QAE@$$QAVray@@AAVisect@@@Z 00455a00 f i scene.obj
 0001:00054ab0       ??$forward@Visect@@@std@@YA$$QAVisect@@AAV1@@Z 00455ab0 f i scene.obj
 0001:00054ae0       ??$_Cons_val@V?$allocator@U?$pair@$$CBV?$basic_string@DU?$char_traits@D@std@@V?$allocator@D@2@@std@@PAVTextureMap@@@std@@@std@@U?$pair@$$CBV?$basic_string@DU?$char_traits@D@std@@V?$allocator@D@2@@std@@PAVTextureMap@@@2@U32@@std@@YAXAAV?$allocator@U?$pair@$$CBV?$basic_string@DU?$char_traits@D@std@@V?$allocator@D@2@@std@@PAVTextureMap@@@std@@@0@PAU?$pair@$$CBV?$basic_string@DU?$char_traits@D@std@@V?$allocator@D@2@@std@@PAVTextureMap@@@0@$$QAU20@@Z 00455ae0 f i scene.obj
 0001:00054b30       ??$_Val_type@PAPAVGeometry@@@std@@YAPAPAVGeometry@@PAPAV1@@Z 00455b30 f i scene.obj
 0001:00054b60       ??$_Uninit_move@PAVGeometry@@PAV1@PAV1@@std@@YAPAPAVGeometry@@PAPAV1@00AAV?$allocator@PAVGeometry@@@0@0U_Scalar_ptr_iterator_tag@0@@Z 00455b60 f i scene.obj
 0001:00054c00       ??$_Val_type@PAU?$pair@Vray@@Visect@@@std@@@std@@YAPAU?$pair@Vray@@Visect@@@0@PAU10@@Z 00455c00 f i scene.obj
 0001:00054c30       ??$_Uninit_move@PAU?$pair@Vray@@Visect@@@std@@PAU12@V?$allocator@U?$pair@Vray@@Visect@@@std@@@2@U12@@std@@YAPAU?$pair@Vray@@Visect@@@0@PAU10@00AAV?$allocator@U?$pair@Vray@@Visect@@@std@@@0@0U_Nonscalar_ptr_iterator_tag@0@@Z 00455c30 f i scene.obj
 0001:00054d50       ??$forward@AAV?$_Tree_iterator@V?$_Tree_val@V?$_Tmap_traits@V?$basic_string@DU?$char_traits@D@std@@V?$allocator@D@2@@std@@PAVTextureMap@@U?$less@V?$basic_string@DU?$char_traits@D@std@@V?$allocator@D@2@@std@@@2@V?$allocator@U?$pair@$$CBV?$basic_string@DU?$char_traits@D@std@@V?$allocator@D@2@@std@@PAVTextureMap@@@std@@@2@$0A@@std@@@std@@@std@@@std@@YAAAV?$_Tree_iterator@V?$_Tree_val@V?$_Tmap_traits@V?$basic_string@DU?$char_traits@D@std@@V?$allocator@D@2@@std@@PAVTextureMap@@U?$less@V?$basic_string@DU?$char_traits@D@std@@V?$allocator@D@2@@std@@@2@V?$allocator@U?$pair@$$CBV?$basic_string@DU?$char_traits@D@std@@V?$allocator@D@2@@std@@PAVTextureMap@@@std@@@2@$0A@@std@@@std@@@0@AAV10@@Z 00455d50 f i scene.obj
 0001:00054d80       ??$?0AAV?$_Tree_iterator@V?$_Tree_val@V?$_Tmap_traits@V?$basic_string@DU?$char_traits@D@std@@V?$allocator@D@2@@std@@PAVTextureMap@@U?$less@V?$basic_string@DU?$char_traits@D@std@@V?$allocator@D@2@@std@@@2@V?$allocator@U?$pair@$$CBV?$basic_string@DU?$char_traits@D@std@@V?$allocator@D@2@@std@@PAVTextureMap@@@std@@@2@$0A@@std@@@std@@@std@@_N@?$_Pair_base@V?$_Tree_iterator@V?$_Tree_val@V?$_Tmap_traits@V?$basic_string@DU?$char_traits@D@std@@V?$allocator@D@2@@std@@PAVTextureMap@@U?$less@V?$basic_string@DU?$char_traits@D@std@@V?$allocator@D@2@@std@@@2@V?$allocator@U?$pair@$$CBV?$basic_string@DU?$char_traits@D@std@@V?$allocator@D@2@@std@@PAVTextureMap@@@std@@@2@$0A@@std@@@std@@@std@@_N@std@@QAE@AAV?$_Tree_iterator@V?$_Tree_val@V?$_Tmap_traits@V?$basic_string@DU?$char_traits@D@std@@V?$allocator@D@2@@std@@PAVTextureMap@@U?$less@V?$basic_string@DU?$char_traits@D@std@@V?$allocator@D@2@@std@@@2@V?$allocator@U?$pair@$$CBV?$basic_string@DU?$char_traits@D@std@@V?$allocator@D@2@@std@@PAVTextureMap@@@std@@@2@$0A@@std@@@std@@@1@$$QA_N@Z 00455d80 f i scene.obj
 0001:00054e20       ?construct@?$allocator@U?$pair@$$CBV?$basic_string@DU?$char_traits@D@std@@V?$allocator@D@2@@std@@PAVTextureMap@@@std@@@std@@QAEXPAU?$pair@$$CBV?$basic_string@DU?$char_traits@D@std@@V?$allocator@D@2@@std@@PAVTextureMap@@@2@$$QAU32@@Z 00455e20 f i scene.obj
 0001:00054ef0       ??$_Debug_range@PAPAVGeometry@@@std@@YAXPAPAVGeometry@@0PB_WI@Z 00455ef0 f i scene.obj
 0001:00054f60       ??$_Debug_pointer@PAVGeometry@@@std@@YAXPAPAVGeometry@@PB_WI@Z 00455f60 f i scene.obj
 0001:00054fc0       ??$_Debug_range@PAU?$pair@Vray@@Visect@@@std@@@std@@YAXPAU?$pair@Vray@@Visect@@@0@0PB_WI@Z 00455fc0 f i scene.obj
 0001:00055030       ??$_Debug_pointer@U?$pair@Vray@@Visect@@@std@@@std@@YAXPAU?$pair@Vray@@Visect@@@0@PB_WI@Z 00456030 f i scene.obj
 0001:00055090       ??$?0$$CBV?$basic_string@DU?$char_traits@D@std@@V?$allocator@D@2@@std@@PAVTextureMap@@@?$pair@$$CBV?$basic_string@DU?$char_traits@D@std@@V?$allocator@D@2@@std@@PAVTextureMap@@@std@@QAE@$$QAU01@@Z 00456090 f i scene.obj
 0001:00055100       ??0?$_Pair_base@$$CBV?$basic_string@DU?$char_traits@D@std@@V?$allocator@D@2@@std@@PAVTextureMap@@@std@@QAE@$$QBV?$basic_string@DU?$char_traits@D@std@@V?$allocator@D@2@@1@$$QAPAVTextureMap@@@Z 00456100 f i scene.obj
 0001:000551a0       ??$_Iter_cat@PAPAVGeometry@@@std@@YA?AUrandom_access_iterator_tag@0@ABQAPAVGeometry@@@Z 004561a0 f i scene.obj
 0001:00055200       ??$_Debug_range2@PAPAVGeometry@@@std@@YAXPAPAVGeometry@@0PB_WIUrandom_access_iterator_tag@0@@Z 00456200 f i scene.obj
 0001:00055290       ??$_Iter_cat@PAU?$pair@Vray@@Visect@@@std@@@std@@YA?AUrandom_access_iterator_tag@0@ABQAU?$pair@Vray@@Visect@@@0@@Z 00456290 f i scene.obj
 0001:000552f0       ??$_Debug_range2@PAU?$pair@Vray@@Visect@@@std@@@std@@YAXPAU?$pair@Vray@@Visect@@@0@0PB_WIUrandom_access_iterator_tag@0@@Z 004562f0 f i scene.obj
 0001:00055380       ??$forward@$$CBV?$basic_string@DU?$char_traits@D@std@@V?$allocator@D@2@@std@@@std@@YA$$QBV?$basic_string@DU?$char_traits@D@std@@V?$allocator@D@2@@0@ABV10@@Z 00456380 f i scene.obj
 0001:000553b0       ??$forward@PAVTextureMap@@@std@@YA$$QAPAVTextureMap@@AAPAV1@@Z 004563b0 f i scene.obj
 0001:000553e0       ??$move@ABV?$basic_string@DU?$char_traits@D@std@@V?$allocator@D@2@@std@@@std@@YA$$QBV?$basic_string@DU?$char_traits@D@std@@V?$allocator@D@2@@0@ABV10@@Z 004563e0 f i scene.obj
 0001:00055410       ?intersectLocal@Box@@UBE_NABVray@@AAVisect@@@Z 00456410 f   Box.obj
 0001:00055960       ?at@ray@@QBE?AV?$Vec3@N@@N@Z 00456960 f i Box.obj
 0001:000559e0       ?setN@isect@@QAEXABV?$Vec3@N@@@Z 004569e0 f i Box.obj
 0001:00055a30       ?setUVCoordinates@isect@@QAEXABV?$Vec2@N@@@Z 00456a30 f i Box.obj
 0001:00055a80       ??0?$Vec2@N@@QAE@NN@Z      00456a80 f i Box.obj
 0001:00055ac0       ?intersectLocal@Cone@@UBE_NABVray@@AAVisect@@@Z 00456ac0 f   Cone.obj
 0001:00056380       ?isGoodRoot@Cone@@IBE_NV?$Vec3@N@@@Z 00457380 f   Cone.obj
 0001:00056420       ??$?DN@@YANABV?$Vec3@N@@0@Z 00457420 f i Cone.obj
 0001:00056470       ?intersectLocal@Cylinder@@UBE_NABVray@@AAVisect@@@Z 00457470 f   Cylinder.obj
 0001:000565b0       ?intersectBody@Cylinder@@QBE_NABVray@@AAVisect@@@Z 004575b0 f   Cylinder.obj
 0001:000569a0       ?intersectCaps@Cylinder@@QBE_NABVray@@AAVisect@@@Z 004579a0 f   Cylinder.obj
 0001:00056cc0       ?intersectLocal@Sphere@@UBE_NABVray@@AAVisect@@@Z 00457cc0 f   Sphere.obj
 0001:00057130       ?intersectLocal@Square@@UBE_NABVray@@AAVisect@@@Z 00458130 f   Square.obj
 0001:00057390       ??1Trimesh@@UAE@XZ         00458390 f   trimesh.obj
 0001:00057530       ?ComputeBoundingBox@Geometry@@UAEXXZ 00458530 f i trimesh.obj
 0001:00057c60       ?localToGlobalCoords@TransformNode@@QAE?AV?$Vec4@N@@ABV2@@Z 00458c60 f i trimesh.obj
 0001:00057cb0       ?ComputeLocalBoundingBox@Geometry@@UAE?AVBoundingBox@@XZ 00458cb0 f i trimesh.obj
 0001:00057d00       ??1MaterialSceneObject@@UAE@XZ 00458d00 f i trimesh.obj
 0001:00057d70       ?glDrawLocal@Geometry@@UBEXH_N0@Z 00458d70 f i trimesh.obj
 0001:00057da0       ??1SceneObject@@UAE@XZ     00458da0 f i trimesh.obj
 0001:00057de0       ??1Geometry@@UAE@XZ        00458de0 f i trimesh.obj
 0001:00057e20       ??1SceneElement@@UAE@XZ    00458e20 f i trimesh.obj
 0001:00057e60       ?glDraw@SceneElement@@UBEXH_N0@Z 00458e60 f i trimesh.obj
 0001:00057e90       ??_GSceneElement@@UAEPAXI@Z 00458e90 f i trimesh.obj
 0001:00057e90       ??_ESceneElement@@UAEPAXI@Z 00458e90 f i trimesh.obj
 0001:00057ef0       ?getMaterial@MaterialSceneObject@@UBEABVMaterial@@XZ 00458ef0 f i trimesh.obj
 0001:00057f20       ?setMaterial@MaterialSceneObject@@UAEXPAVMaterial@@@Z 00458f20 f i trimesh.obj
 0001:00057f80       ??_EMaterialSceneObject@@UAEPAXI@Z 00458f80 f i trimesh.obj
 0001:00057f80       ??_GMaterialSceneObject@@UAEPAXI@Z 00458f80 f i trimesh.obj
 0001:00057fe0       ?intersectLocal@Trimesh@@UBE_NABVray@@AAVisect@@@Z 00458fe0 f i trimesh.obj
 0001:00058010       ??_ETrimesh@@UAEPAXI@Z     00459010 f i trimesh.obj
 0001:00058010       ??_GTrimesh@@UAEPAXI@Z     00459010 f i trimesh.obj
 0001:00058070       ??1?$_Vector_iterator@V?$_Vector_val@PAVMaterial@@V?$allocator@PAVMaterial@@@std@@@std@@@std@@QAE@XZ 00459070 f i trimesh.obj
 0001:000580b0       ??1?$_Vector_const_iterator@V?$_Vector_val@PAVMaterial@@V?$allocator@PAVMaterial@@@std@@@std@@@std@@QAE@XZ 004590b0 f i trimesh.obj
 0001:000580f0       ??1?$_Iterator012@Urandom_access_iterator_tag@std@@PAVMaterial@@HPBQAV3@ABQAV3@U_Iterator_base12@2@@std@@QAE@XZ 004590f0 f i trimesh.obj
 0001:00058130       ?addVertex@Trimesh@@QAEXABV?$Vec3@N@@@Z 00459130 f   trimesh.obj
 0001:00058180       ?addMaterial@Trimesh@@QAEXPAVMaterial@@@Z 00459180 f   trimesh.obj
 0001:000581d0       ?addNormal@Trimesh@@QAEXABV?$Vec3@N@@@Z 004591d0 f   trimesh.obj
 0001:00058220       ?addFace@Trimesh@@QAE_NHHH@Z 00459220 f   trimesh.obj
 0001:000583e0       ?setTransform@Geometry@@QAEXPAVTransformNode@@@Z 004593e0 f i trimesh.obj
 0001:00058420       ?add@Scene@@QAEXPAVGeometry@@@Z 00459420 f i trimesh.obj
 0001:00058490       ??0TrimeshFace@@QAE@PAVScene@@PAVMaterial@@PAVTrimesh@@HHH@Z 00459490 f i trimesh.obj
 0001:00058510       ??0MaterialSceneObject@@IAE@PAVScene@@PAVMaterial@@@Z 00459510 f i trimesh.obj
 0001:00058570       ??0SceneObject@@IAE@PAVScene@@@Z 00459570 f i trimesh.obj
 0001:000585d0       ??0Geometry@@QAE@PAVScene@@@Z 004595d0 f i trimesh.obj
 0001:00058670       ??0SceneElement@@IAE@PAVScene@@@Z 00459670 f i trimesh.obj
 0001:000586c0       ??_EGeometry@@UAEPAXI@Z    004596c0 f i trimesh.obj
 0001:000586c0       ??_GGeometry@@UAEPAXI@Z    004596c0 f i trimesh.obj
 0001:00058720       ??_ESceneObject@@UAEPAXI@Z 00459720 f i trimesh.obj
 0001:00058720       ??_GSceneObject@@UAEPAXI@Z 00459720 f i trimesh.obj
 0001:00058780       ?hasBoundingBoxCapability@TrimeshFace@@UBE_NXZ 00459780 f i trimesh.obj
 0001:000587b0       ?ComputeLocalBoundingBox@TrimeshFace@@UAE?AVBoundingBox@@XZ 004597b0 f i trimesh.obj
 0001:00058940       ??_ETrimeshFace@@UAEPAXI@Z 00459940 f i trimesh.obj
 0001:00058940       ??_GTrimeshFace@@UAEPAXI@Z 00459940 f i trimesh.obj
 0001:000589a0       ??0BoundingBox@@QAE@ABV0@@Z 004599a0 f i trimesh.obj
 0001:00058a00       ??1TrimeshFace@@UAE@XZ     00459a00 f i trimesh.obj
 0001:00058a40       ?doubleCheck@Trimesh@@QAEPADXZ 00459a40 f   trimesh.obj
 0001:00058af0       ?intersectLocal@TrimeshFace@@UBE_NABVray@@AAVisect@@@Z 00459af0 f   trimesh.obj
 0001:00058b20       ?generateNormals@Trimesh@@QAEXXZ 00459b20 f   trimesh.obj
 0001:00058eb0       ??1?$_Vector_iterator@V?$_Vector_val@PAVTrimeshFace@@V?$allocator@PAVTrimeshFace@@@std@@@std@@@std@@QAE@XZ 00459eb0 f i trimesh.obj
 0001:00058ef0       ??0?$Vec3@N@@QAE@ABV?$Vec4@N@@@Z 00459ef0 f i trimesh.obj
 0001:00058f60       ??Y?$Vec3@N@@QAEAAV0@ABV0@@Z 00459f60 f i trimesh.obj
 0001:00058fd0       ??0?$Vec4@N@@QAE@XZ        00459fd0 f i trimesh.obj
 0001:00059020       ??0?$Vec4@N@@QAE@NNNN@Z    0045a020 f i trimesh.obj
 0001:00059080       ??4?$Vec4@N@@QAEAAV0@ABV0@@Z 0045a080 f i trimesh.obj
 0001:000590e0       ??1?$vector@V?$Vec3@N@@V?$allocator@V?$Vec3@N@@@std@@@std@@QAE@XZ 0045a0e0 f i trimesh.obj
 0001:00059160       ?resize@?$vector@V?$Vec3@N@@V?$allocator@V?$Vec3@N@@@std@@@std@@QAEXI@Z 0045a160 f i trimesh.obj
 0001:00059360       ??A?$vector@V?$Vec3@N@@V?$allocator@V?$Vec3@N@@@std@@@std@@QAEAAV?$Vec3@N@@I@Z 0045a360 f i trimesh.obj
 0001:00059440       ?push_back@?$vector@V?$Vec3@N@@V?$allocator@V?$Vec3@N@@@std@@@std@@QAEXABV?$Vec3@N@@@Z 0045a440 f i trimesh.obj
 0001:00059570       ??1?$vector@PAVTrimeshFace@@V?$allocator@PAVTrimeshFace@@@std@@@std@@QAE@XZ 0045a570 f i trimesh.obj
 0001:000595f0       ?begin@?$vector@PAVTrimeshFace@@V?$allocator@PAVTrimeshFace@@@std@@@std@@QAE?AV?$_Vector_iterator@V?$_Vector_val@PAVTrimeshFace@@V?$allocator@PAVTrimeshFace@@@std@@@std@@@2@XZ 0045a5f0 f i trimesh.obj
 0001:00059660       ?end@?$vector@PAVTrimeshFace@@V?$allocator@PAVTrimeshFace@@@std@@@std@@QAE?AV?$_Vector_iterator@V?$_Vector_val@PAVTrimeshFace@@V?$allocator@PAVTrimeshFace@@@std@@@std@@@2@XZ 0045a660 f i trimesh.obj
 0001:000596d0       ?push_back@?$vector@PAVTrimeshFace@@V?$allocator@PAVTrimeshFace@@@std@@@std@@QAEXABQAVTrimeshFace@@@Z 0045a6d0 f i trimesh.obj
 0001:00059800       ??1?$vector@PAVMaterial@@V?$allocator@PAVMaterial@@@std@@@std@@QAE@XZ 0045a800 f i trimesh.obj
 0001:00059880       ?begin@?$vector@PAVMaterial@@V?$allocator@PAVMaterial@@@std@@@std@@QAE?AV?$_Vector_iterator@V?$_Vector_val@PAVMaterial@@V?$allocator@PAVMaterial@@@std@@@std@@@2@XZ 0045a880 f i trimesh.obj
 0001:000598f0       ?end@?$vector@PAVMaterial@@V?$allocator@PAVMaterial@@@std@@@std@@QAE?AV?$_Vector_iterator@V?$_Vector_val@PAVMaterial@@V?$allocator@PAVMaterial@@@std@@@std@@@2@XZ 0045a8f0 f i trimesh.obj
 0001:00059960       ?push_back@?$vector@PAVMaterial@@V?$allocator@PAVMaterial@@@std@@@std@@QAEXABQAVMaterial@@@Z 0045a960 f i trimesh.obj
 0001:00059a90       ??D?$_Vector_iterator@V?$_Vector_val@PAVMaterial@@V?$allocator@PAVMaterial@@@std@@@std@@@std@@QBEAAPAVMaterial@@XZ 0045aa90 f i trimesh.obj
 0001:00059ad0       ??E?$_Vector_iterator@V?$_Vector_val@PAVMaterial@@V?$allocator@PAVMaterial@@@std@@@std@@@std@@QAEAAV01@XZ 0045aad0 f i trimesh.obj
 0001:00059b20       ??9?$_Vector_const_iterator@V?$_Vector_val@PAVMaterial@@V?$allocator@PAVMaterial@@@std@@@std@@@std@@QBE_NABV01@@Z 0045ab20 f i trimesh.obj
 0001:00059b70       ??D?$_Vector_iterator@V?$_Vector_val@PAVTrimeshFace@@V?$allocator@PAVTrimeshFace@@@std@@@std@@@std@@QBEAAPAVTrimeshFace@@XZ 0045ab70 f i trimesh.obj
 0001:00059bb0       ??E?$_Vector_iterator@V?$_Vector_val@PAVTrimeshFace@@V?$allocator@PAVTrimeshFace@@@std@@@std@@@std@@QAEAAV01@XZ 0045abb0 f i trimesh.obj
 0001:00059c00       ??1?$_Vector_iterator@V?$_Vector_val@V?$Vec3@N@@V?$allocator@V?$Vec3@N@@@std@@@std@@@std@@QAE@XZ 0045ac00 f i trimesh.obj
 0001:00059c40       ??0?$_Vector_const_iterator@V?$_Vector_val@V?$Vec3@N@@V?$allocator@V?$Vec3@N@@@std@@@std@@@std@@QAE@ABV01@@Z 0045ac40 f i trimesh.obj
 0001:00059ca0       ??1?$_Vector_const_iterator@V?$_Vector_val@V?$Vec3@N@@V?$allocator@V?$Vec3@N@@@std@@@std@@@std@@QAE@XZ 0045aca0 f i trimesh.obj
 0001:00059ce0       ??0?$_Iterator012@Urandom_access_iterator_tag@std@@V?$Vec3@N@@HPBV3@ABV3@U_Iterator_base12@2@@std@@QAE@ABU01@@Z 0045ace0 f i trimesh.obj
 0001:00059d30       ??1?$_Iterator012@Urandom_access_iterator_tag@std@@V?$Vec3@N@@HPBV3@ABV3@U_Iterator_base12@2@@std@@QAE@XZ 0045ad30 f i trimesh.obj
 0001:00059d70       ??A?$Vec4@N@@QBENH@Z       0045ad70 f i trimesh.obj
 0001:00059db0       ?begin@?$vector@V?$Vec3@N@@V?$allocator@V?$Vec3@N@@@std@@@std@@QAE?AV?$_Vector_iterator@V?$_Vector_val@V?$Vec3@N@@V?$allocator@V?$Vec3@N@@@std@@@std@@@2@XZ 0045adb0 f i trimesh.obj
 0001:00059e20       ?end@?$vector@V?$Vec3@N@@V?$allocator@V?$Vec3@N@@@std@@@std@@QAE?AV?$_Vector_iterator@V?$_Vector_val@V?$Vec3@N@@V?$allocator@V?$Vec3@N@@@std@@@std@@@2@XZ 0045ae20 f i trimesh.obj
 0001:00059e90       ?erase@?$vector@V?$Vec3@N@@V?$allocator@V?$Vec3@N@@@std@@@std@@QAE?AV?$_Vector_iterator@V?$_Vector_val@V?$Vec3@N@@V?$allocator@V?$Vec3@N@@@std@@@std@@@2@V?$_Vector_const_iterator@V?$_Vector_val@V?$Vec3@N@@V?$allocator@V?$Vec3@N@@@std@@@std@@@2@0@Z 0045ae90 f i trimesh.obj
 0001:0005a0b0       ?_Inside@?$vector@V?$Vec3@N@@V?$allocator@V?$Vec3@N@@@std@@@std@@IBE_NPBV?$Vec3@N@@@Z 0045b0b0 f i trimesh.obj
 0001:0005a110       ?_Reserve@?$vector@V?$Vec3@N@@V?$allocator@V?$Vec3@N@@@std@@@std@@IAEXI@Z 0045b110 f i trimesh.obj
 0001:0005a1a0       ?_Tidy@?$vector@V?$Vec3@N@@V?$allocator@V?$Vec3@N@@@std@@@std@@IAEXXZ 0045b1a0 f i trimesh.obj
 0001:0005a250       ?_Orphan_range@?$vector@V?$Vec3@N@@V?$allocator@V?$Vec3@N@@@std@@@std@@IBEXPAV?$Vec3@N@@0@Z 0045b250 f i trimesh.obj
 0001:0005a380       ??1?$_Vector_val@V?$Vec3@N@@V?$allocator@V?$Vec3@N@@@std@@@std@@QAE@XZ 0045b380 f i trimesh.obj
 0001:0005a480       ?_Inside@?$vector@PAVTrimeshFace@@V?$allocator@PAVTrimeshFace@@@std@@@std@@IBE_NPBQAVTrimeshFace@@@Z 0045b480 f i trimesh.obj
 0001:0005a4e0       ?_Reserve@?$vector@PAVTrimeshFace@@V?$allocator@PAVTrimeshFace@@@std@@@std@@IAEXI@Z 0045b4e0 f i trimesh.obj
 0001:0005a570       ?_Tidy@?$vector@PAVTrimeshFace@@V?$allocator@PAVTrimeshFace@@@std@@@std@@IAEXXZ 0045b570 f i trimesh.obj
 0001:0005a620       ?_Orphan_range@?$vector@PAVTrimeshFace@@V?$allocator@PAVTrimeshFace@@@std@@@std@@IBEXPAPAVTrimeshFace@@0@Z 0045b620 f i trimesh.obj
 0001:0005a750       ??1?$_Vector_val@PAVTrimeshFace@@V?$allocator@PAVTrimeshFace@@@std@@@std@@QAE@XZ 0045b750 f i trimesh.obj
 0001:0005a850       ?_Inside@?$vector@PAVMaterial@@V?$allocator@PAVMaterial@@@std@@@std@@IBE_NPBQAVMaterial@@@Z 0045b850 f i trimesh.obj
 0001:0005a8b0       ?_Reserve@?$vector@PAVMaterial@@V?$allocator@PAVMaterial@@@std@@@std@@IAEXI@Z 0045b8b0 f i trimesh.obj
 0001:0005a940       ?_Tidy@?$vector@PAVMaterial@@V?$allocator@PAVMaterial@@@std@@@std@@IAEXXZ 0045b940 f i trimesh.obj
 0001:0005a9f0       ?_Orphan_range@?$vector@PAVMaterial@@V?$allocator@PAVMaterial@@@std@@@std@@IBEXPAPAVMaterial@@0@Z 0045b9f0 f i trimesh.obj
 0001:0005ab20       ??1?$_Vector_val@PAVMaterial@@V?$allocator@PAVMaterial@@@std@@@std@@QAE@XZ 0045bb20 f i trimesh.obj
 0001:0005ac20       ??0?$_Vector_iterator@V?$_Vector_val@PAVMaterial@@V?$allocator@PAVMaterial@@@std@@@std@@@std@@QAE@PAPAVMaterial@@PBU_Container_base12@1@@Z 0045bc20 f i trimesh.obj
 0001:0005ac70       ??D?$_Vector_const_iterator@V?$_Vector_val@PAVMaterial@@V?$allocator@PAVMaterial@@@std@@@std@@@std@@QBEABQAVMaterial@@XZ 0045bc70 f i trimesh.obj
 0001:0005ad60       ??E?$_Vector_const_iterator@V?$_Vector_val@PAVMaterial@@V?$allocator@PAVMaterial@@@std@@@std@@@std@@QAEAAV01@XZ 0045bd60 f i trimesh.obj
 0001:0005ae50       ??8?$_Vector_const_iterator@V?$_Vector_val@PAVMaterial@@V?$allocator@PAVMaterial@@@std@@@std@@@std@@QBE_NABV01@@Z 0045be50 f i trimesh.obj
 0001:0005aeb0       ??0?$_Vector_iterator@V?$_Vector_val@PAVTrimeshFace@@V?$allocator@PAVTrimeshFace@@@std@@@std@@@std@@QAE@PAPAVTrimeshFace@@PBU_Container_base12@1@@Z 0045beb0 f i trimesh.obj
 0001:0005af00       ??H?$_Vector_iterator@V?$_Vector_val@V?$Vec3@N@@V?$allocator@V?$Vec3@N@@@std@@@std@@@std@@QBE?AV01@H@Z 0045bf00 f i trimesh.obj
 0001:0005afe0       ??0?$_Vector_iterator@V?$_Vector_val@V?$Vec3@N@@V?$allocator@V?$Vec3@N@@@std@@@std@@@std@@QAE@ABV01@@Z 0045bfe0 f i trimesh.obj
 0001:0005b030       ?reserve@?$vector@V?$Vec3@N@@V?$allocator@V?$Vec3@N@@@std@@@std@@QAEXI@Z 0045c030 f i trimesh.obj
 0001:0005b1c0       ?capacity@?$vector@V?$Vec3@N@@V?$allocator@V?$Vec3@N@@@std@@@std@@QBEIXZ 0045c1c0 f i trimesh.obj
 0001:0005b200       ?_Make_iter@?$vector@V?$Vec3@N@@V?$allocator@V?$Vec3@N@@@std@@@std@@QBE?AV?$_Vector_iterator@V?$_Vector_val@V?$Vec3@N@@V?$allocator@V?$Vec3@N@@@std@@@std@@@2@V?$_Vector_const_iterator@V?$_Vector_val@V?$Vec3@N@@V?$allocator@V?$Vec3@N@@@std@@@std@@@2@@Z 0045c200 f i trimesh.obj
 0001:0005b2b0       ?max_size@?$vector@V?$Vec3@N@@V?$allocator@V?$Vec3@N@@@std@@@std@@QBEIXZ 0045c2b0 f i trimesh.obj
 0001:0005b300       ?_Destroy@?$vector@V?$Vec3@N@@V?$allocator@V?$Vec3@N@@@std@@@std@@IAEXPAV?$Vec3@N@@0@Z 0045c300 f i trimesh.obj
 0001:0005b350       ?_Grow_to@?$vector@V?$Vec3@N@@V?$allocator@V?$Vec3@N@@@std@@@std@@IBEII@Z 0045c350 f i trimesh.obj
 0001:0005b3e0       ?_Xlen@?$vector@V?$Vec3@N@@V?$allocator@V?$Vec3@N@@@std@@@std@@IBEXXZ 0045c3e0 f i trimesh.obj
 0001:0005b430       ?deallocate@?$allocator@V?$Vec3@N@@@std@@QAEXPAV?$Vec3@N@@I@Z 0045c430 f i trimesh.obj
 0001:0005b480       ?reserve@?$vector@PAVTrimeshFace@@V?$allocator@PAVTrimeshFace@@@std@@@std@@QAEXI@Z 0045c480 f i trimesh.obj
 0001:0005b600       ?capacity@?$vector@PAVTrimeshFace@@V?$allocator@PAVTrimeshFace@@@std@@@std@@QBEIXZ 0045c600 f i trimesh.obj
 0001:0005b640       ?size@?$vector@PAVTrimeshFace@@V?$allocator@PAVTrimeshFace@@@std@@@std@@QBEIXZ 0045c640 f i trimesh.obj
 0001:0005b680       ?max_size@?$vector@PAVTrimeshFace@@V?$allocator@PAVTrimeshFace@@@std@@@std@@QBEIXZ 0045c680 f i trimesh.obj
 0001:0005b6d0       ?_Destroy@?$vector@PAVTrimeshFace@@V?$allocator@PAVTrimeshFace@@@std@@@std@@IAEXPAPAVTrimeshFace@@0@Z 0045c6d0 f i trimesh.obj
 0001:0005b720       ?_Grow_to@?$vector@PAVTrimeshFace@@V?$allocator@PAVTrimeshFace@@@std@@@std@@IBEII@Z 0045c720 f i trimesh.obj
 0001:0005b7b0       ?_Xlen@?$vector@PAVTrimeshFace@@V?$allocator@PAVTrimeshFace@@@std@@@std@@IBEXXZ 0045c7b0 f i trimesh.obj
 0001:0005b800       ?deallocate@?$allocator@PAVTrimeshFace@@@std@@QAEXPAPAVTrimeshFace@@I@Z 0045c800 f i trimesh.obj
 0001:0005b850       ?reserve@?$vector@PAVMaterial@@V?$allocator@PAVMaterial@@@std@@@std@@QAEXI@Z 0045c850 f i trimesh.obj
 0001:0005b9d0       ?capacity@?$vector@PAVMaterial@@V?$allocator@PAVMaterial@@@std@@@std@@QBEIXZ 0045c9d0 f i trimesh.obj
 0001:0005ba10       ?max_size@?$vector@PAVMaterial@@V?$allocator@PAVMaterial@@@std@@@std@@QBEIXZ 0045ca10 f i trimesh.obj
 0001:0005ba60       ?_Destroy@?$vector@PAVMaterial@@V?$allocator@PAVMaterial@@@std@@@std@@IAEXPAPAVMaterial@@0@Z 0045ca60 f i trimesh.obj
 0001:0005bab0       ?_Grow_to@?$vector@PAVMaterial@@V?$allocator@PAVMaterial@@@std@@@std@@IBEII@Z 0045cab0 f i trimesh.obj
 0001:0005bb40       ?_Xlen@?$vector@PAVMaterial@@V?$allocator@PAVMaterial@@@std@@@std@@IBEXXZ 0045cb40 f i trimesh.obj
 0001:0005bb90       ?deallocate@?$allocator@PAVMaterial@@@std@@QAEXPAPAVMaterial@@I@Z 0045cb90 f i trimesh.obj
 0001:0005bbe0       ??0?$_Vector_const_iterator@V?$_Vector_val@PAVMaterial@@V?$allocator@PAVMaterial@@@std@@@std@@@std@@QAE@PAPAVMaterial@@PBU_Container_base12@1@@Z 0045cbe0 f i trimesh.obj
 0001:0005bc80       ?_Compat@?$_Vector_const_iterator@V?$_Vector_val@PAVMaterial@@V?$allocator@PAVMaterial@@@std@@@std@@@std@@QBEXABV12@@Z 0045cc80 f i trimesh.obj
 0001:0005bd60       ??0?$_Vector_iterator@V?$_Vector_val@V?$Vec3@N@@V?$allocator@V?$Vec3@N@@@std@@@std@@@std@@QAE@PAV?$Vec3@N@@PBU_Container_base12@1@@Z 0045cd60 f i trimesh.obj
 0001:0005bdb0       ??Y?$_Vector_iterator@V?$_Vector_val@V?$Vec3@N@@V?$allocator@V?$Vec3@N@@@std@@@std@@@std@@QAEAAV01@H@Z 0045cdb0 f i trimesh.obj
 0001:0005be00       ??9?$_Vector_const_iterator@V?$_Vector_val@V?$Vec3@N@@V?$allocator@V?$Vec3@N@@@std@@@std@@@std@@QBE_NABV01@@Z 0045ce00 f i trimesh.obj
 0001:0005be50       ??M?$_Vector_const_iterator@V?$_Vector_val@V?$Vec3@N@@V?$allocator@V?$Vec3@N@@@std@@@std@@@std@@QBE_NABV01@@Z 0045ce50 f i trimesh.obj
 0001:0005beb0       ??0?$_Iterator012@Urandom_access_iterator_tag@std@@PAVMaterial@@HPBQAV3@ABQAV3@U_Iterator_base12@2@@std@@QAE@XZ 0045ceb0 f i trimesh.obj
 0001:0005bf00       ?allocate@?$allocator@V?$Vec3@N@@@std@@QAEPAV?$Vec3@N@@I@Z 0045cf00 f i trimesh.obj
 0001:0005bf50       ?max_size@?$allocator@V?$Vec3@N@@@std@@QBEIXZ 0045cf50 f i trimesh.obj
 0001:0005bfb0       ?allocate@?$allocator@PAVTrimeshFace@@@std@@QAEPAPAVTrimeshFace@@I@Z 0045cfb0 f i trimesh.obj
 0001:0005c000       ?max_size@?$allocator@PAVTrimeshFace@@@std@@QBEIXZ 0045d000 f i trimesh.obj
 0001:0005c060       ?allocate@?$allocator@PAVMaterial@@@std@@QAEPAPAVMaterial@@I@Z 0045d060 f i trimesh.obj
 0001:0005c0b0       ?max_size@?$allocator@PAVMaterial@@@std@@QBEIXZ 0045d0b0 f i trimesh.obj
 0001:0005c110       ??0?$_Vector_const_iterator@V?$_Vector_val@V?$Vec3@N@@V?$allocator@V?$Vec3@N@@@std@@@std@@@std@@QAE@PAV?$Vec3@N@@PBU_Container_base12@1@@Z 0045d110 f i trimesh.obj
 0001:0005c1b0       ??Y?$_Vector_const_iterator@V?$_Vector_val@V?$Vec3@N@@V?$allocator@V?$Vec3@N@@@std@@@std@@@std@@QAEAAV01@H@Z 0045d1b0 f i trimesh.obj
 0001:0005c2d0       ??8?$_Vector_const_iterator@V?$_Vector_val@V?$Vec3@N@@V?$allocator@V?$Vec3@N@@@std@@@std@@@std@@QBE_NABV01@@Z 0045d2d0 f i trimesh.obj
 0001:0005c330       ?_Compat@?$_Vector_const_iterator@V?$_Vector_val@V?$Vec3@N@@V?$allocator@V?$Vec3@N@@@std@@@std@@@std@@QBEXABV12@@Z 0045d330 f i trimesh.obj
 0001:0005c410       ??0?$_Iterator012@Urandom_access_iterator_tag@std@@V?$Vec3@N@@HPBV3@ABV3@U_Iterator_base12@2@@std@@QAE@XZ 0045d410 f i trimesh.obj
 0001:0005c460       ??$?DN@@YA?AV?$Vec4@N@@ABV?$Mat4@N@@ABV0@@Z 0045d460 f i trimesh.obj
 0001:0005c590       ??$maximum@N@@YA?AV?$Vec4@N@@ABV0@0@Z 0045d590 f i trimesh.obj
 0001:0005c6b0       ??$minimum@N@@YA?AV?$Vec4@N@@ABV0@0@Z 0045d6b0 f i trimesh.obj
 0001:0005c7d0       ??$_Uninitialized_default_fill_n@PAV?$Vec3@N@@IV1@V?$allocator@V?$Vec3@N@@@std@@@std@@YAXPAV?$Vec3@N@@IPBV1@AAV?$allocator@V?$Vec3@N@@@0@@Z 0045d7d0 f i trimesh.obj
 0001:0005c850       ??$addressof@$$CBV?$Vec3@N@@@std@@YAPBV?$Vec3@N@@ABV1@@Z 0045d850 f i trimesh.obj
 0001:0005c880       ??$_Cons_val@V?$allocator@V?$Vec3@N@@@std@@V?$Vec3@N@@AAV3@@std@@YAXAAV?$allocator@V?$Vec3@N@@@0@PAV?$Vec3@N@@AAV2@@Z 0045d880 f i trimesh.obj
 0001:0005c8d0       ??$_Cons_val@V?$allocator@V?$Vec3@N@@@std@@V?$Vec3@N@@ABV3@@std@@YAXAAV?$allocator@V?$Vec3@N@@@0@PAV?$Vec3@N@@ABV2@@Z 0045d8d0 f i trimesh.obj
 0001:0005c920       ??$addressof@QAVTrimeshFace@@@std@@YAPBQAVTrimeshFace@@ABQAV1@@Z 0045d920 f i trimesh.obj
 0001:0005c950       ??$_Cons_val@V?$allocator@PAVTrimeshFace@@@std@@PAVTrimeshFace@@AAPAV3@@std@@YAXAAV?$allocator@PAVTrimeshFace@@@0@PAPAVTrimeshFace@@AAPAV2@@Z 0045d950 f i trimesh.obj
 0001:0005c9a0       ??$_Cons_val@V?$allocator@PAVTrimeshFace@@@std@@PAVTrimeshFace@@ABQAV3@@std@@YAXAAV?$allocator@PAVTrimeshFace@@@0@PAPAVTrimeshFace@@ABQAV2@@Z 0045d9a0 f i trimesh.obj
 0001:0005c9f0       ??$addressof@QAVMaterial@@@std@@YAPBQAVMaterial@@ABQAV1@@Z 0045d9f0 f i trimesh.obj
 0001:0005ca20       ??$_Cons_val@V?$allocator@PAVMaterial@@@std@@PAVMaterial@@AAPAV3@@std@@YAXAAV?$allocator@PAVMaterial@@@0@PAPAVMaterial@@AAPAV2@@Z 0045da20 f i trimesh.obj
 0001:0005ca70       ??$_Cons_val@V?$allocator@PAVMaterial@@@std@@PAVMaterial@@ABQAV3@@std@@YAXAAV?$allocator@PAVMaterial@@@0@PAPAVMaterial@@ABQAV2@@Z 0045da70 f i trimesh.obj
 0001:0005cac0       ??$_Move@PAV?$Vec3@N@@PAV1@@std@@YAPAV?$Vec3@N@@PAV1@00@Z 0045dac0 f i trimesh.obj
 0001:0005cb30       ??$?0V?$Vec3@N@@@?$allocator@U_Container_proxy@std@@@std@@QAE@ABV?$allocator@V?$Vec3@N@@@1@@Z 0045db30 f i trimesh.obj
 0001:0005cb60       ??$?0PAVTrimeshFace@@@?$allocator@U_Container_proxy@std@@@std@@QAE@ABV?$allocator@PAVTrimeshFace@@@1@@Z 0045db60 f i trimesh.obj
 0001:0005cb90       ??$?0PAVMaterial@@@?$allocator@U_Container_proxy@std@@@std@@QAE@ABV?$allocator@PAVMaterial@@@1@@Z 0045db90 f i trimesh.obj
 0001:0005cbc0       ??$_Umove@PAV?$Vec3@N@@@?$vector@V?$Vec3@N@@V?$allocator@V?$Vec3@N@@@std@@@std@@IAEPAV?$Vec3@N@@PAV2@00@Z 0045dbc0 f i trimesh.obj
 0001:0005cc20       ??$_Destroy_range@V?$allocator@V?$Vec3@N@@@std@@@std@@YAXPAV?$Vec3@N@@0AAV?$allocator@V?$Vec3@N@@@0@@Z 0045dc20 f i trimesh.obj
 0001:0005cc90       ??$_Umove@PAPAVTrimeshFace@@@?$vector@PAVTrimeshFace@@V?$allocator@PAVTrimeshFace@@@std@@@std@@IAEPAPAVTrimeshFace@@PAPAV2@00@Z 0045dc90 f i trimesh.obj
 0001:0005ccf0       ??$_Destroy_range@V?$allocator@PAVTrimeshFace@@@std@@@std@@YAXPAPAVTrimeshFace@@0AAV?$allocator@PAVTrimeshFace@@@0@@Z 0045dcf0 f i trimesh.obj
 0001:0005cd60       ??$_Umove@PAPAVMaterial@@@?$vector@PAVMaterial@@V?$allocator@PAVMaterial@@@std@@@std@@IAEPAPAVMaterial@@PAPAV2@00@Z 0045dd60 f i trimesh.obj
 0001:0005cdc0       ??$_Destroy_range@V?$allocator@PAVMaterial@@@std@@@std@@YAXPAPAVMaterial@@0AAV?$allocator@PAVMaterial@@@0@@Z 0045ddc0 f i trimesh.obj
 0001:0005ce30       ??$_Allocate@V?$Vec3@N@@@std@@YAPAV?$Vec3@N@@IPAV1@@Z 0045de30 f i trimesh.obj
 0001:0005cec0       ??$_Allocate@PAVTrimeshFace@@@std@@YAPAPAVTrimeshFace@@IPAPAV1@@Z 0045dec0 f i trimesh.obj
 0001:0005cf50       ??$_Allocate@PAVMaterial@@@std@@YAPAPAVMaterial@@IPAPAV1@@Z 0045df50 f i trimesh.obj
 0001:0005cfe0       ?construct@?$allocator@V?$Vec3@N@@@std@@QAEXPAV?$Vec3@N@@ABV3@@Z 0045dfe0 f i trimesh.obj
 0001:0005d030       ?construct@?$allocator@PAVTrimeshFace@@@std@@QAEXPAPAVTrimeshFace@@ABQAV3@@Z 0045e030 f i trimesh.obj
 0001:0005d080       ?construct@?$allocator@PAVMaterial@@@std@@QAEXPAPAVMaterial@@ABQAV3@@Z 0045e080 f i trimesh.obj
 0001:0005d0d0       ??$_Val_type@PAV?$Vec3@N@@@std@@YAPAV?$Vec3@N@@PAV1@@Z 0045e0d0 f i trimesh.obj
 0001:0005d100       ??$_Ptr_cat@V?$Vec3@N@@V1@@std@@YA?AU_Nonscalar_ptr_iterator_tag@0@PAV?$Vec3@N@@0@Z 0045e100 f i trimesh.obj
 0001:0005d160       ??$_Uninit_def_fill_n@PAV?$Vec3@N@@IV1@V?$allocator@V?$Vec3@N@@@std@@V1@@std@@YAXPAV?$Vec3@N@@IPBV1@AAV?$allocator@V?$Vec3@N@@@0@0U_Nonscalar_ptr_iterator_tag@0@@Z 0045e160 f i trimesh.obj
 0001:0005d270       ??$forward@AAV?$Vec3@N@@@std@@YAAAV?$Vec3@N@@AAV1@@Z 0045e270 f i trimesh.obj
 0001:0005d2a0       ??$construct@AAV?$Vec3@N@@@?$allocator@V?$Vec3@N@@@std@@QAEXPAV?$Vec3@N@@AAV2@@Z 0045e2a0 f i trimesh.obj
 0001:0005d370       ??$forward@ABV?$Vec3@N@@@std@@YAABV?$Vec3@N@@ABV1@@Z 0045e370 f i trimesh.obj
 0001:0005d3a0       ??$forward@AAPAVTrimeshFace@@@std@@YAAAPAVTrimeshFace@@AAPAV1@@Z 0045e3a0 f i trimesh.obj
 0001:0005d3d0       ??$construct@AAPAVTrimeshFace@@@?$allocator@PAVTrimeshFace@@@std@@QAEXPAPAVTrimeshFace@@AAPAV2@@Z 0045e3d0 f i trimesh.obj
 0001:0005d4a0       ??$forward@ABQAVTrimeshFace@@@std@@YAABQAVTrimeshFace@@ABQAV1@@Z 0045e4a0 f i trimesh.obj
 0001:0005d4d0       ??$forward@AAPAVMaterial@@@std@@YAAAPAVMaterial@@AAPAV1@@Z 0045e4d0 f i trimesh.obj
 0001:0005d500       ??$construct@AAPAVMaterial@@@?$allocator@PAVMaterial@@@std@@QAEXPAPAVMaterial@@AAPAV2@@Z 0045e500 f i trimesh.obj
 0001:0005d5d0       ??$forward@ABQAVMaterial@@@std@@YAABQAVMaterial@@ABQAV1@@Z 0045e5d0 f i trimesh.obj
 0001:0005d600       ??$_Move@PAV?$Vec3@N@@PAV1@@std@@YAPAV?$Vec3@N@@PAV1@00U_Nonscalar_ptr_iterator_tag@0@@Z 0045e600 f i trimesh.obj
 0001:0005d670       ??$_Uninitialized_move@PAV?$Vec3@N@@PAV1@V?$allocator@V?$Vec3@N@@@std@@@std@@YAPAV?$Vec3@N@@PAV1@00AAV?$allocator@V?$Vec3@N@@@0@@Z 0045e670 f i trimesh.obj
 0001:0005d6f0       ??$_Destroy_range@V?$allocator@V?$Vec3@N@@@std@@@std@@YAXPAV?$Vec3@N@@0AAV?$allocator@V?$Vec3@N@@@0@U_Nonscalar_ptr_iterator_tag@0@@Z 0045e6f0 f i trimesh.obj
 0001:0005d750       ??$_Uninitialized_move@PAPAVTrimeshFace@@PAPAV1@V?$allocator@PAVTrimeshFace@@@std@@@std@@YAPAPAVTrimeshFace@@PAPAV1@00AAV?$allocator@PAVTrimeshFace@@@0@@Z 0045e750 f i trimesh.obj
 0001:0005d7d0       ??$_Ptr_cat@PAVTrimeshFace@@PAV1@@std@@YA?AU_Scalar_ptr_iterator_tag@0@PAPAVTrimeshFace@@0@Z 0045e7d0 f i trimesh.obj
 0001:0005d830       ??$_Destroy_range@V?$allocator@PAVTrimeshFace@@@std@@@std@@YAXPAPAVTrimeshFace@@0AAV?$allocator@PAVTrimeshFace@@@0@U_Scalar_ptr_iterator_tag@0@@Z 0045e830 f i trimesh.obj
 0001:0005d860       ??$_Uninitialized_move@PAPAVMaterial@@PAPAV1@V?$allocator@PAVMaterial@@@std@@@std@@YAPAPAVMaterial@@PAPAV1@00AAV?$allocator@PAVMaterial@@@0@@Z 0045e860 f i trimesh.obj
 0001:0005d8e0       ??$_Ptr_cat@PAVMaterial@@PAV1@@std@@YA?AU_Scalar_ptr_iterator_tag@0@PAPAVMaterial@@0@Z 0045e8e0 f i trimesh.obj
 0001:0005d940       ??$_Destroy_range@V?$allocator@PAVMaterial@@@std@@@std@@YAXPAPAVMaterial@@0AAV?$allocator@PAVMaterial@@@0@U_Scalar_ptr_iterator_tag@0@@Z 0045e940 f i trimesh.obj
 0001:0005d970       ??$_Construct@V?$Vec3@N@@ABV1@@std@@YAXPAV?$Vec3@N@@ABV1@@Z 0045e970 f i trimesh.obj
 0001:0005da40       ??$_Construct@PAVTrimeshFace@@ABQAV1@@std@@YAXPAPAVTrimeshFace@@ABQAV1@@Z 0045ea40 f i trimesh.obj
 0001:0005db10       ??$_Construct@PAVMaterial@@ABQAV1@@std@@YAXPAPAVMaterial@@ABQAV1@@Z 0045eb10 f i trimesh.obj
 0001:0005dbe0       ??$_Cons_val@V?$allocator@V?$Vec3@N@@@std@@V?$Vec3@N@@V3@@std@@YAXAAV?$allocator@V?$Vec3@N@@@0@PAV?$Vec3@N@@$$QAV2@@Z 0045ebe0 f i trimesh.obj
 0001:0005dc30       ??$_Dest_val@V?$allocator@V?$Vec3@N@@@std@@V?$Vec3@N@@@std@@YAXAAV?$allocator@V?$Vec3@N@@@0@PAV?$Vec3@N@@@Z 0045ec30 f i trimesh.obj
 0001:0005dc70       ??$move@AAV?$Vec3@N@@@std@@YA$$QAV?$Vec3@N@@AAV1@@Z 0045ec70 f i trimesh.obj
 0001:0005dca0       ??$_Uninit_move@PAV?$Vec3@N@@PAV1@V?$allocator@V?$Vec3@N@@@std@@V1@@std@@YAPAV?$Vec3@N@@PAV1@00AAV?$allocator@V?$Vec3@N@@@0@0U_Nonscalar_ptr_iterator_tag@0@@Z 0045eca0 f i trimesh.obj
 0001:0005ddc0       ??$_Val_type@PAPAVTrimeshFace@@@std@@YAPAPAVTrimeshFace@@PAPAV1@@Z 0045edc0 f i trimesh.obj
 0001:0005ddf0       ??$_Uninit_move@PAVTrimeshFace@@PAV1@PAV1@@std@@YAPAPAVTrimeshFace@@PAPAV1@00AAV?$allocator@PAVTrimeshFace@@@0@0U_Scalar_ptr_iterator_tag@0@@Z 0045edf0 f i trimesh.obj
 0001:0005de90       ??$_Val_type@PAPAVMaterial@@@std@@YAPAPAVMaterial@@PAPAV1@@Z 0045ee90 f i trimesh.obj
 0001:0005dec0       ??$_Uninit_move@PAVMaterial@@PAV1@PAV1@@std@@YAPAPAVMaterial@@PAPAV1@00AAV?$allocator@PAVMaterial@@@0@0U_Scalar_ptr_iterator_tag@0@@Z 0045eec0 f i trimesh.obj
 0001:0005df60       ?construct@?$allocator@V?$Vec3@N@@@std@@QAEXPAV?$Vec3@N@@$$QAV3@@Z 0045ef60 f i trimesh.obj
 0001:0005e030       ?destroy@?$allocator@V?$Vec3@N@@@std@@QAEXPAV?$Vec3@N@@@Z 0045f030 f i trimesh.obj
 0001:0005e080       ??$forward@V?$Vec3@N@@@std@@YA$$QAV?$Vec3@N@@AAV1@@Z 0045f080 f i trimesh.obj
 0001:0005e0b0       ??$_Debug_range@PAV?$Vec3@N@@@std@@YAXPAV?$Vec3@N@@0PB_WI@Z 0045f0b0 f i trimesh.obj
 0001:0005e120       ??$_Debug_pointer@V?$Vec3@N@@@std@@YAXPAV?$Vec3@N@@PB_WI@Z 0045f120 f i trimesh.obj
 0001:0005e180       ??$_Debug_range@PAPAVTrimeshFace@@@std@@YAXPAPAVTrimeshFace@@0PB_WI@Z 0045f180 f i trimesh.obj
 0001:0005e1f0       ??$_Debug_pointer@PAVTrimeshFace@@@std@@YAXPAPAVTrimeshFace@@PB_WI@Z 0045f1f0 f i trimesh.obj
 0001:0005e250       ??$_Debug_range@PAPAVMaterial@@@std@@YAXPAPAVMaterial@@0PB_WI@Z 0045f250 f i trimesh.obj
 0001:0005e2c0       ??$_Debug_pointer@PAVMaterial@@@std@@YAXPAPAVMaterial@@PB_WI@Z 0045f2c0 f i trimesh.obj
 0001:0005e320       ??$_Destroy@V?$Vec3@N@@@std@@YAXPAV?$Vec3@N@@@Z 0045f320 f i trimesh.obj
 0001:0005e350       ??$_Iter_cat@PAV?$Vec3@N@@@std@@YA?AUrandom_access_iterator_tag@0@ABQAV?$Vec3@N@@@Z 0045f350 f i trimesh.obj
 0001:0005e3b0       ??$_Debug_range2@PAV?$Vec3@N@@@std@@YAXPAV?$Vec3@N@@0PB_WIUrandom_access_iterator_tag@0@@Z 0045f3b0 f i trimesh.obj
 0001:0005e440       ??$_Iter_cat@PAPAVTrimeshFace@@@std@@YA?AUrandom_access_iterator_tag@0@ABQAPAVTrimeshFace@@@Z 0045f440 f i trimesh.obj
 0001:0005e4a0       ??$_Debug_range2@PAPAVTrimeshFace@@@std@@YAXPAPAVTrimeshFace@@0PB_WIUrandom_access_iterator_tag@0@@Z 0045f4a0 f i trimesh.obj
 0001:0005e530       ??$_Iter_cat@PAPAVMaterial@@@std@@YA?AUrandom_access_iterator_tag@0@ABQAPAVMaterial@@@Z 0045f530 f i trimesh.obj
 0001:0005e590       ??$_Debug_range2@PAPAVMaterial@@@std@@YAXPAPAVMaterial@@0PB_WIUrandom_access_iterator_tag@0@@Z 0045f590 f i trimesh.obj
 0001:0005e620       ?parseScene@Parser@@QAEPAVScene@@XZ 0045f620 f   Parser.obj
 0001:0005eb70       ??0ParserException@@QAE@ABV?$basic_string@DU?$char_traits@D@std@@V?$allocator@D@2@@std@@@Z 0045fb70 f i Parser.obj
 0001:0005ebc0       ??1ParserException@@QAE@XZ 0045fbc0 f i Parser.obj
 0001:0005ec00       ?kind@Token@@QBE?AW4SYMBOL@@XZ 0045fc00 f i Parser.obj
 0001:0005ec30       ??0ParserException@@QAE@ABV0@@Z 0045fc30 f i Parser.obj
 0001:0005ec80       ??0Material@@QAE@XZ        0045fc80 f i Parser.obj
 0001:0005ee30       ??0MaterialParameter@@QAE@ABV?$Vec3@N@@@Z 0045fe30 f i Parser.obj
 0001:0005ee90       ??0MaterialParameter@@QAE@N@Z 0045fe90 f i Parser.obj
 0001:0005ef00       ??0Scene@@QAE@XZ           0045ff00 f i Parser.obj
 0001:0005f030       ??0TransformRoot@@QAE@XZ   00460030 f i Parser.obj
 0001:0005f0a0       ??0TransformNode@@IAE@PAV0@ABV?$Mat4@N@@@Z 004600a0 f i Parser.obj
 0001:0005f1f0       ?add@Scene@@QAEXPAVLight@@@Z 004601f0 f i Parser.obj
 0001:0005f240       ??_D?$basic_ostringstream@DU?$char_traits@D@std@@V?$allocator@D@2@@std@@QAEXXZ 00460240 f i Parser.obj
 0001:0005f2a0       ??1SyntaxErrorException@@QAE@XZ 004602a0 f i Parser.obj
 0001:0005f330       ??0SyntaxErrorException@@QAE@ABV0@@Z 00460330 f i Parser.obj
 0001:0005f3d0       ?parseCamera@Parser@@AAEXPAVScene@@@Z 004603d0 f   Parser.obj
 0001:0005f990       ?parseTransformableElement@Parser@@AAEXPAVScene@@PAVTransformNode@@ABVMaterial@@@Z 00460990 f   Parser.obj
 0001:0005fb00       ?parseGroup@Parser@@AAEXPAVScene@@PAVTransformNode@@ABVMaterial@@@Z 00460b00 f   Parser.obj
 0001:0005fd70       ?parseGeometry@Parser@@AAEXPAVScene@@PAVTransformNode@@ABVMaterial@@@Z 00460d70 f   Parser.obj
 0001:0005ffb0       ??0ParserFatalException@@QAE@ABV?$basic_string@DU?$char_traits@D@std@@V?$allocator@D@2@@std@@@Z 00460fb0 f i Parser.obj
 0001:00060000       ??1ParserFatalException@@QAE@XZ 00461000 f i Parser.obj
 0001:00060040       ??0ParserFatalException@@QAE@ABV0@@Z 00461040 f i Parser.obj
 0001:00060090       ?parseTranslate@Parser@@AAEXPAVScene@@PAVTransformNode@@ABVMaterial@@@Z 00461090 f   Parser.obj
 0001:00060210       ?createChild@TransformNode@@QAEPAV1@ABV?$Mat4@N@@@Z 00461210 f i Parser.obj
 0001:00060320       ?parseRotate@Parser@@AAEXPAVScene@@PAVTransformNode@@ABVMaterial@@@Z 00461320 f   Parser.obj
 0001:000604f0       ?parseScale@Parser@@AAEXPAVScene@@PAVTransformNode@@ABVMaterial@@@Z 004614f0 f   Parser.obj
 0001:00060690       ?parseTransform@Parser@@AAEXPAVScene@@PAVTransformNode@@ABVMaterial@@@Z 00461690 f   Parser.obj
 0001:00060890       ?parseSphere@Parser@@AAEXPAVScene@@PAVTransformNode@@ABVMaterial@@@Z 00461890 f   Parser.obj
 0001:00060b40       ??0Sphere@@QAE@PAVScene@@PAVMaterial@@@Z 00461b40 f i Parser.obj
 0001:00060ba0       ?hasBoundingBoxCapability@Sphere@@UBE_NXZ 00461ba0 f i Parser.obj
 0001:00060bd0       ?ComputeLocalBoundingBox@Sphere@@UAE?AVBoundingBox@@XZ 00461bd0 f i Parser.obj
 0001:00060cd0       ??_ESphere@@UAEPAXI@Z      00461cd0 f i Parser.obj
 0001:00060cd0       ??_GSphere@@UAEPAXI@Z      00461cd0 f i Parser.obj
 0001:00060d30       ??1Sphere@@UAE@XZ          00461d30 f i Parser.obj
 0001:00060d70       ?parseBox@Parser@@AAEXPAVScene@@PAVTransformNode@@ABVMaterial@@@Z 00461d70 f   Parser.obj
 0001:00061020       ??0Box@@QAE@PAVScene@@PAVMaterial@@@Z 00462020 f i Parser.obj
 0001:00061080       ?hasBoundingBoxCapability@Box@@UBE_NXZ 00462080 f i Parser.obj
 0001:000610b0       ?ComputeLocalBoundingBox@Box@@UAE?AVBoundingBox@@XZ 004620b0 f i Parser.obj
 0001:000611c0       ??_GBox@@UAEPAXI@Z         004621c0 f i Parser.obj
 0001:000611c0       ??_EBox@@UAEPAXI@Z         004621c0 f i Parser.obj
 0001:00061220       ??1Box@@UAE@XZ             00462220 f i Parser.obj
 0001:00061260       ?parseSquare@Parser@@AAEXPAVScene@@PAVTransformNode@@ABVMaterial@@@Z 00462260 f   Parser.obj
 0001:00061510       ??0Square@@QAE@PAVScene@@PAVMaterial@@@Z 00462510 f i Parser.obj
 0001:00061570       ?hasBoundingBoxCapability@Square@@UBE_NXZ 00462570 f i Parser.obj
 0001:000615a0       ?ComputeLocalBoundingBox@Square@@UAE?AVBoundingBox@@XZ 004625a0 f i Parser.obj
 0001:000616b0       ??_GSquare@@UAEPAXI@Z      004626b0 f i Parser.obj
 0001:000616b0       ??_ESquare@@UAEPAXI@Z      004626b0 f i Parser.obj
 0001:00061710       ??1Square@@UAE@XZ          00462710 f i Parser.obj
 0001:00061750       ?parseCylinder@Parser@@AAEXPAVScene@@PAVTransformNode@@ABVMaterial@@@Z 00462750 f   Parser.obj
 0001:00061a00       ??0Cylinder@@QAE@PAVScene@@PAVMaterial@@@Z 00462a00 f i Parser.obj
 0001:00061a60       ?hasBoundingBoxCapability@Cylinder@@UBE_NXZ 00462a60 f i Parser.obj
 0001:00061a90       ?ComputeLocalBoundingBox@Cylinder@@UAE?AVBoundingBox@@XZ 00462a90 f i Parser.obj
 0001:00061b90       ??_GCylinder@@UAEPAXI@Z    00462b90 f i Parser.obj
 0001:00061b90       ??_ECylinder@@UAEPAXI@Z    00462b90 f i Parser.obj
 0001:00061bf0       ??1Cylinder@@UAE@XZ        00462bf0 f i Parser.obj
 0001:00061c30       ?parseCone@Parser@@AAEXPAVScene@@PAVTransformNode@@ABVMaterial@@@Z 00462c30 f   Parser.obj
 0001:00061fb0       ??0Cone@@QAE@PAVScene@@PAVMaterial@@NNN_N@Z 00462fb0 f i Parser.obj
 0001:00062180       ?hasBoundingBoxCapability@Cone@@UBE_NXZ 00463180 f i Parser.obj
 0001:000621b0       ?ComputeLocalBoundingBox@Cone@@UAE?AVBoundingBox@@XZ 004631b0 f i Parser.obj
 0001:00062330       ??_ECone@@UAEPAXI@Z        00463330 f i Parser.obj
 0001:00062330       ??_GCone@@UAEPAXI@Z        00463330 f i Parser.obj
 0001:00062390       ??1Cone@@UAE@XZ            00463390 f i Parser.obj
 0001:000623d0       ?parseTrimesh@Parser@@AAEXPAVScene@@PAVTransformNode@@ABVMaterial@@@Z 004633d0 f   Parser.obj
 0001:00062ed0       ??0Trimesh@@QAE@PAVScene@@PAVMaterial@@PAVTransformNode@@@Z 00463ed0 f i Parser.obj
 0001:00062fc0       ??1?$_List_iterator@V?$_List_val@V?$Vec3@N@@V?$allocator@V?$Vec3@N@@@std@@@std@@@std@@QAE@XZ 00463fc0 f i Parser.obj
 0001:00063000       ??0?$_List_const_iterator@V?$_List_val@V?$Vec3@N@@V?$allocator@V?$Vec3@N@@@std@@@std@@@std@@QAE@ABV01@@Z 00464000 f i Parser.obj
 0001:00063050       ??1?$_List_const_iterator@V?$_List_val@V?$Vec3@N@@V?$allocator@V?$Vec3@N@@@std@@@std@@@std@@QAE@XZ 00464050 f i Parser.obj
 0001:00063090       ??0?$_List_unchecked_const_iterator@V?$_List_val@V?$Vec3@N@@V?$allocator@V?$Vec3@N@@@std@@@std@@U_Iterator_base12@2@@std@@QAE@ABV01@@Z 00464090 f i Parser.obj
 0001:000630f0       ??1?$_List_unchecked_const_iterator@V?$_List_val@V?$Vec3@N@@V?$allocator@V?$Vec3@N@@@std@@@std@@U_Iterator_base12@2@@std@@QAE@XZ 004640f0 f i Parser.obj
 0001:00063130       ??0?$_Iterator012@Ubidirectional_iterator_tag@std@@V?$Vec3@N@@HPBV3@ABV3@U_Iterator_base12@2@@std@@QAE@ABU01@@Z 00464130 f i Parser.obj
 0001:00063180       ??1?$_Iterator012@Ubidirectional_iterator_tag@std@@V?$Vec3@N@@HPBV3@ABV3@U_Iterator_base12@2@@std@@QAE@XZ 00464180 f i Parser.obj
 0001:000631c0       ?parseFaces@Parser@@AAEXAAV?$list@V?$Vec3@N@@V?$allocator@V?$Vec3@N@@@std@@@std@@@Z 004641c0 f   Parser.obj
 0001:000634a0       ??1?$_List_iterator@V?$_List_val@NV?$allocator@N@std@@@std@@@std@@QAE@XZ 004644a0 f i Parser.obj
 0001:000634e0       ??0?$_List_const_iterator@V?$_List_val@NV?$allocator@N@std@@@std@@@std@@QAE@ABV01@@Z 004644e0 f i Parser.obj
 0001:00063530       ??1?$_List_const_iterator@V?$_List_val@NV?$allocator@N@std@@@std@@@std@@QAE@XZ 00464530 f i Parser.obj
 0001:00063570       ??0?$_List_unchecked_const_iterator@V?$_List_val@NV?$allocator@N@std@@@std@@U_Iterator_base12@2@@std@@QAE@ABV01@@Z 00464570 f i Parser.obj
 0001:000635d0       ??1?$_List_unchecked_const_iterator@V?$_List_val@NV?$allocator@N@std@@@std@@U_Iterator_base12@2@@std@@QAE@XZ 004645d0 f i Parser.obj
 0001:00063610       ??0?$_Iterator012@Ubidirectional_iterator_tag@std@@NHPBNABNU_Iterator_base12@2@@std@@QAE@ABU01@@Z 00464610 f i Parser.obj
 0001:00063660       ??1?$_Iterator012@Ubidirectional_iterator_tag@std@@NHPBNABNU_Iterator_base12@2@@std@@QAE@XZ 00464660 f i Parser.obj
 0001:000636a0       ?parseAmbientLight@Parser@@AAEXPAVScene@@@Z 004646a0 f   Parser.obj
 0001:000637f0       ?addAmbient@Scene@@QAEXABV?$Vec3@N@@@Z 004647f0 f i Parser.obj
 0001:00063840       ?parsePointLight@Parser@@AAEPAVPointLight@@PAVScene@@@Z 00464840 f   Parser.obj
 0001:00063cc0       ??0PointLight@@QAE@PAVScene@@ABV?$Vec3@N@@1MMM@Z 00464cc0 f i Parser.obj
 0001:00063d80       ??0Light@@IAE@PAVScene@@ABV?$Vec3@N@@@Z 00464d80 f i Parser.obj
 0001:00063e20       ?glDraw@Light@@UBEXI@Z     00464e20 f i Parser.obj
 0001:00063e50       ?glDraw@Light@@UBEXXZ      00464e50 f i Parser.obj
 0001:00063e80       ??_ELight@@UAEPAXI@Z       00464e80 f i Parser.obj
 0001:00063e80       ??_GLight@@UAEPAXI@Z       00464e80 f i Parser.obj
 0001:00063ee0       ??1Light@@UAE@XZ           00464ee0 f i Parser.obj
 0001:00063f20       ??_EPointLight@@UAEPAXI@Z  00464f20 f i Parser.obj
 0001:00063f20       ??_GPointLight@@UAEPAXI@Z  00464f20 f i Parser.obj
 0001:00063f80       ??1PointLight@@UAE@XZ      00464f80 f i Parser.obj
 0001:00063fc0       ?parseDirectionalLight@Parser@@AAEPAVDirectionalLight@@PAVScene@@@Z 00464fc0 f   Parser.obj
 0001:00064390       ??0DirectionalLight@@QAE@PAVScene@@ABV?$Vec3@N@@1@Z 00465390 f i Parser.obj
 0001:00064440       ??_EDirectionalLight@@UAEPAXI@Z 00465440 f i Parser.obj
 0001:00064440       ??_GDirectionalLight@@UAEPAXI@Z 00465440 f i Parser.obj
 0001:000644a0       ??1DirectionalLight@@UAE@XZ 004654a0 f i Parser.obj
 0001:000644e0       ?parseScalarExpression@Parser@@AAENXZ 004654e0 f   Parser.obj
 0001:00064570       ?parseBooleanExpression@Parser@@AAE_NXZ 00465570 f   Parser.obj
 0001:00064600       ?parseVec3dExpression@Parser@@AAE?AV?$Vec3@N@@XZ 00465600 f   Parser.obj
 0001:000646e0       ?parseVec4dExpression@Parser@@AAE?AV?$Vec4@N@@XZ 004656e0 f   Parser.obj
 0001:000647c0       ?parseMaterialExpression@Parser@@AAEPAVMaterial@@PAVScene@@ABV2@@Z 004657c0 f   Parser.obj
 0001:00064860       ?parseIdentExpression@Parser@@AAE?AV?$basic_string@DU?$char_traits@D@std@@V?$allocator@D@2@@std@@XZ 00465860 f   Parser.obj
 0001:00064990       ?parseScalar@Parser@@AAENXZ 00465990 f   Parser.obj
 0001:00064ab0       ?parseIdent@Parser@@AAE?AV?$basic_string@DU?$char_traits@D@std@@V?$allocator@D@2@@std@@XZ 00465ab0 f   Parser.obj
 0001:00064be0       ?parseScalarList@Parser@@AAE?AV?$list@NV?$allocator@N@std@@@std@@XZ 00465be0 f   Parser.obj
 0001:00064d80       ?parseBoolean@Parser@@AAE_NXZ 00465d80 f   Parser.obj
 0001:00064eb0       ?parseVec3d@Parser@@AAE?AV?$Vec3@N@@XZ 00465eb0 f   Parser.obj
 0001:00065180       ?parseVec4d@Parser@@AAE?AV?$Vec4@N@@XZ 00466180 f   Parser.obj
 0001:00065500       ?parseMaterial@Parser@@AAEPAVMaterial@@PAVScene@@ABV2@@Z 00466500 f   Parser.obj
 0001:00065c20       ?setEmissive@Material@@QAEXABVMaterialParameter@@@Z 00466c20 f i Parser.obj
 0001:00065c70       ?setAmbient@Material@@QAEXABVMaterialParameter@@@Z 00466c70 f i Parser.obj
 0001:00065cc0       ?setSpecular@Material@@QAEXABVMaterialParameter@@@Z 00466cc0 f i Parser.obj
 0001:00065d10       ?setDiffuse@Material@@QAEXABVMaterialParameter@@@Z 00466d10 f i Parser.obj
 0001:00065d60       ?setReflective@Material@@QAEXABVMaterialParameter@@@Z 00466d60 f i Parser.obj
 0001:00065db0       ?setTransmissive@Material@@QAEXABVMaterialParameter@@@Z 00466db0 f i Parser.obj
 0001:00065e00       ?setShininess@Material@@QAEXABVMaterialParameter@@@Z 00466e00 f i Parser.obj
 0001:00065e50       ?setIndex@Material@@QAEXABVMaterialParameter@@@Z 00466e50 f i Parser.obj
 0001:00065ea0       ?parseVec3dMaterialParameter@Parser@@AAE?AVMaterialParameter@@PAVScene@@@Z 00466ea0 f   Parser.obj
 0001:000660d0       ??0MaterialParameter@@QAE@PAVTextureMap@@@Z 004670d0 f i Parser.obj
 0001:00066120       ?parseScalarMaterialParameter@Parser@@AAE?AVMaterialParameter@@PAVScene@@@Z 00467120 f   Parser.obj
 0001:000662f0       ??0?$basic_string@DU?$char_traits@D@std@@V?$allocator@D@2@@std@@QAE@$$QAV01@@Z 004672f0 f i Parser.obj
 0001:000663b0       ??0?$Vec4@N@@QAE@ABV0@@Z   004673b0 f i Parser.obj
 0001:00066410       ??A?$Vec4@N@@QAEAANH@Z     00467410 f i Parser.obj
 0001:00066450       ?inverse@?$Mat3@N@@QBE?AV1@XZ 00467450 f i Parser.obj
 0001:00066850       ??0?$Mat4@N@@QAE@XZ        00467850 f i Parser.obj
 0001:000668c0       ??0?$Mat4@N@@QAE@ABV?$Vec4@N@@000@Z 004678c0 f i Parser.obj
 0001:00066a00       ??4?$Mat4@N@@QAEAAV0@ABV0@@Z 00467a00 f i Parser.obj
 0001:00066a60       ?upper33@?$Mat4@N@@QAE?AV?$Mat3@N@@XZ 00467a60 f i Parser.obj
 0001:00066b10       ?inverse@?$Mat4@N@@QBE?AV1@XZ 00467b10 f i Parser.obj
 0001:00066f30       ??0?$vector@PAVTransformNode@@V?$allocator@PAVTransformNode@@@std@@@std@@QAE@XZ 00467f30 f i Parser.obj
 0001:00066f80       ?push_back@?$vector@PAVTransformNode@@V?$allocator@PAVTransformNode@@@std@@@std@@QAEXABQAVTransformNode@@@Z 00467f80 f i Parser.obj
 0001:000670b0       ??0?$vector@PAVLight@@V?$allocator@PAVLight@@@std@@@std@@QAE@XZ 004680b0 f i Parser.obj
 0001:00067100       ?push_back@?$vector@PAVLight@@V?$allocator@PAVLight@@@std@@@std@@QAEXABQAVLight@@@Z 00468100 f i Parser.obj
 0001:00067230       ??0?$map@V?$basic_string@DU?$char_traits@D@std@@V?$allocator@D@2@@std@@PAVTextureMap@@U?$less@V?$basic_string@DU?$char_traits@D@std@@V?$allocator@D@2@@std@@@2@V?$allocator@U?$pair@$$CBV?$basic_string@DU?$char_traits@D@std@@V?$allocator@D@2@@std@@PAVTextureMap@@@std@@@2@@std@@QAE@XZ 00468230 f i Parser.obj
 0001:00067290       ??0?$vector@U?$pair@Vray@@Visect@@@std@@V?$allocator@U?$pair@Vray@@Visect@@@std@@@2@@std@@QAE@XZ 00468290 f i Parser.obj
 0001:000672e0       ??0?$vector@V?$Vec3@N@@V?$allocator@V?$Vec3@N@@@std@@@std@@QAE@XZ 004682e0 f i Parser.obj
 0001:00067330       ??0?$vector@PAVTrimeshFace@@V?$allocator@PAVTrimeshFace@@@std@@@std@@QAE@XZ 00468330 f i Parser.obj
 0001:00067380       ??0?$vector@PAVMaterial@@V?$allocator@PAVMaterial@@@std@@@std@@QAE@XZ 00468380 f i Parser.obj
 0001:000673d0       ??A?$map@V?$basic_string@DU?$char_traits@D@std@@V?$allocator@D@2@@std@@VMaterial@@U?$less@V?$basic_string@DU?$char_traits@D@std@@V?$allocator@D@2@@std@@@2@V?$allocator@U?$pair@$$CBV?$basic_string@DU?$char_traits@D@std@@V?$allocator@D@2@@std@@VMaterial@@@std@@@2@@std@@QAEAAVMaterial@@$$QAV?$basic_string@DU?$char_traits@D@std@@V?$allocator@D@2@@1@@Z 004683d0 f i Parser.obj
 0001:00067630       ??A?$map@V?$basic_string@DU?$char_traits@D@std@@V?$allocator@D@2@@std@@VMaterial@@U?$less@V?$basic_string@DU?$char_traits@D@std@@V?$allocator@D@2@@std@@@2@V?$allocator@U?$pair@$$CBV?$basic_string@DU?$char_traits@D@std@@V?$allocator@D@2@@std@@VMaterial@@@std@@@2@@std@@QAEAAVMaterial@@ABV?$basic_string@DU?$char_traits@D@std@@V?$allocator@D@2@@1@@Z 00468630 f i Parser.obj
 0001:00067880       ?find@?$_Tree@V?$_Tmap_traits@V?$basic_string@DU?$char_traits@D@std@@V?$allocator@D@2@@std@@VMaterial@@U?$less@V?$basic_string@DU?$char_traits@D@std@@V?$allocator@D@2@@std@@@2@V?$allocator@U?$pair@$$CBV?$basic_string@DU?$char_traits@D@std@@V?$allocator@D@2@@std@@VMaterial@@@std@@@2@$0A@@std@@@std@@QAE?AV?$_Tree_iterator@V?$_Tree_val@V?$_Tmap_traits@V?$basic_string@DU?$char_traits@D@std@@V?$allocator@D@2@@std@@VMaterial@@U?$less@V?$basic_string@DU?$char_traits@D@std@@V?$allocator@D@2@@std@@@2@V?$allocator@U?$pair@$$CBV?$basic_string@DU?$char_traits@D@std@@V?$allocator@D@2@@std@@VMaterial@@@std@@@2@$0A@@std@@@std@@@2@ABV?$basic_string@DU?$char_traits@D@std@@V?$allocator@D@2@@2@@Z 00468880 f i Parser.obj
 0001:00067ae0       ??0?$auto_ptr@VToken@@@std@@QAE@U?$auto_ptr_ref@VToken@@@1@@Z 00468ae0 f i Parser.obj
 0001:00067b30       ??1?$auto_ptr@VToken@@@std@@QAE@XZ 00468b30 f i Parser.obj
 0001:00067bc0       ??C?$auto_ptr@VToken@@@std@@QBEPAVToken@@XZ 00468bc0 f i Parser.obj
 0001:00067c30       ??0?$basic_ostringstream@DU?$char_traits@D@std@@V?$allocator@D@2@@std@@QAE@H@Z 00468c30 f i Parser.obj
 0001:00067d30       ??1?$basic_ostringstream@DU?$char_traits@D@std@@V?$allocator@D@2@@std@@UAE@XZ 00468d30 f i Parser.obj
 0001:00067de0       ?str@?$basic_ostringstream@DU?$char_traits@D@std@@V?$allocator@D@2@@std@@QBE?AV?$basic_string@DU?$char_traits@D@std@@V?$allocator@D@2@@2@XZ 00468de0 f i Parser.obj
 0001:00067e50       ??1?$basic_stringbuf@DU?$char_traits@D@std@@V?$allocator@D@2@@std@@UAE@XZ 00468e50 f i Parser.obj
 0001:00067ef0       ?overflow@?$basic_stringbuf@DU?$char_traits@D@std@@V?$allocator@D@2@@std@@MAEHH@Z 00468ef0 f i Parser.obj
 0001:00068300       ?pbackfail@?$basic_stringbuf@DU?$char_traits@D@std@@V?$allocator@D@2@@std@@MAEHH@Z 00469300 f i Parser.obj
 0001:00068460       ?eq@?$char_traits@D@std@@SA_NABD0@Z 00469460 f i Parser.obj
 0001:000684a0       ?underflow@?$basic_stringbuf@DU?$char_traits@D@std@@V?$allocator@D@2@@std@@MAEHXZ 004694a0 f i Parser.obj
 0001:00068650       ?seekoff@?$basic_stringbuf@DU?$char_traits@D@std@@V?$allocator@D@2@@std@@MAE?AV?$fpos@H@2@_JHH@Z 00469650 f i Parser.obj
 0001:00068a30       ?seekpos@?$basic_stringbuf@DU?$char_traits@D@std@@V?$allocator@D@2@@std@@MAE?AV?$fpos@H@2@V32@H@Z 00469a30 f i Parser.obj
 0001:00068d30       ??0?$auto_ptr@VMaterial@@@std@@QAE@PAVMaterial@@@Z 00469d30 f i Parser.obj
 0001:00068d70       ??4?$auto_ptr@VMaterial@@@std@@QAEAAV01@AAV01@@Z 00469d70 f i Parser.obj
 0001:00068dc0       ??1?$auto_ptr@VMaterial@@@std@@QAE@XZ 00469dc0 f i Parser.obj
 0001:00068e20       ??D?$auto_ptr@VMaterial@@@std@@QBEAAVMaterial@@XZ 00469e20 f i Parser.obj
 0001:00068e90       ?get@?$auto_ptr@VMaterial@@@std@@QBEPAVMaterial@@XZ 00469e90 f i Parser.obj
 0001:00068ec0       ??0?$list@V?$Vec3@N@@V?$allocator@V?$Vec3@N@@@std@@@std@@QAE@XZ 00469ec0 f i Parser.obj
 0001:00068f10       ?push_back@?$list@V?$Vec3@N@@V?$allocator@V?$Vec3@N@@@std@@@std@@QAEX$$QAV?$Vec3@N@@@Z 00469f10 f i Parser.obj
 0001:00068fe0       ??1?$list@V?$Vec3@N@@V?$allocator@V?$Vec3@N@@@std@@@std@@QAE@XZ 00469fe0 f i Parser.obj
 0001:00069060       ?begin@?$list@V?$Vec3@N@@V?$allocator@V?$Vec3@N@@@std@@@std@@QAE?AV?$_List_iterator@V?$_List_val@V?$Vec3@N@@V?$allocator@V?$Vec3@N@@@std@@@std@@@2@XZ 0046a060 f i Parser.obj
 0001:000690e0       ?end@?$list@V?$Vec3@N@@V?$allocator@V?$Vec3@N@@@std@@@std@@QAE?AV?$_List_iterator@V?$_List_val@V?$Vec3@N@@V?$allocator@V?$Vec3@N@@@std@@@std@@@2@XZ 0046a0e0 f i Parser.obj
 0001:00069150       ??D?$_List_const_iterator@V?$_List_val@V?$Vec3@N@@V?$allocator@V?$Vec3@N@@@std@@@std@@@std@@QBEABV?$Vec3@N@@XZ 0046a150 f i Parser.obj
 0001:00069250       ??E?$_List_const_iterator@V?$_List_val@V?$Vec3@N@@V?$allocator@V?$Vec3@N@@@std@@@std@@@std@@QAE?AV01@H@Z 0046a250 f i Parser.obj
 0001:00069330       ??9?$_List_const_iterator@V?$_List_val@V?$Vec3@N@@V?$allocator@V?$Vec3@N@@@std@@@std@@@std@@QBE_NABV01@@Z 0046a330 f i Parser.obj
 0001:00069380       ??0?$list@NV?$allocator@N@std@@@std@@QAE@XZ 0046a380 f i Parser.obj
 0001:000693d0       ??0?$list@NV?$allocator@N@std@@@std@@QAE@$$QAV01@@Z 0046a3d0 f i Parser.obj
 0001:00069480       ?push_back@?$list@NV?$allocator@N@std@@@std@@QAEX$$QAN@Z 0046a480 f i Parser.obj
 0001:00069550       ??1?$list@NV?$allocator@N@std@@@std@@QAE@XZ 0046a550 f i Parser.obj
 0001:000695d0       ?begin@?$list@NV?$allocator@N@std@@@std@@QAE?AV?$_List_iterator@V?$_List_val@NV?$allocator@N@std@@@std@@@2@XZ 0046a5d0 f i Parser.obj
 0001:00069650       ?end@?$list@NV?$allocator@N@std@@@std@@QAE?AV?$_List_iterator@V?$_List_val@NV?$allocator@N@std@@@std@@@2@XZ 0046a650 f i Parser.obj
 0001:000696c0       ?size@?$list@NV?$allocator@N@std@@@std@@QBEIXZ 0046a6c0 f i Parser.obj
 0001:000696f0       ??D?$_List_const_iterator@V?$_List_val@NV?$allocator@N@std@@@std@@@std@@QBEABNXZ 0046a6f0 f i Parser.obj
 0001:000697f0       ??E?$_List_const_iterator@V?$_List_val@NV?$allocator@N@std@@@std@@@std@@QAE?AV01@H@Z 0046a7f0 f i Parser.obj
 0001:000698d0       ??9?$_List_const_iterator@V?$_List_val@NV?$allocator@N@std@@@std@@@std@@QBE_NABV01@@Z 0046a8d0 f i Parser.obj
 0001:00069920       ??1?$pair@V?$basic_string@DU?$char_traits@D@std@@V?$allocator@D@2@@std@@VMaterial@@@std@@QAE@XZ 0046a920 f i Parser.obj
 0001:00069960       ??4?$_Tree_iterator@V?$_Tree_val@V?$_Tmap_traits@V?$basic_string@DU?$char_traits@D@std@@V?$allocator@D@2@@std@@VMaterial@@U?$less@V?$basic_string@DU?$char_traits@D@std@@V?$allocator@D@2@@std@@@2@V?$allocator@U?$pair@$$CBV?$basic_string@DU?$char_traits@D@std@@V?$allocator@D@2@@std@@VMaterial@@@std@@@2@$0A@@std@@@std@@@std@@QAEAAV01@ABV01@@Z 0046a960 f i Parser.obj
 0001:000699b0       ??0?$_Tree_iterator@V?$_Tree_val@V?$_Tmap_traits@V?$basic_string@DU?$char_traits@D@std@@V?$allocator@D@2@@std@@VMaterial@@U?$less@V?$basic_string@DU?$char_traits@D@std@@V?$allocator@D@2@@std@@@2@V?$allocator@U?$pair@$$CBV?$basic_string@DU?$char_traits@D@std@@V?$allocator@D@2@@std@@VMaterial@@@std@@@2@$0A@@std@@@std@@@std@@QAE@ABV01@@Z 0046a9b0 f i Parser.obj
 0001:00069a00       ??_G?$basic_ostringstream@DU?$char_traits@D@std@@V?$allocator@D@2@@std@@UAEPAXI@Z 0046aa00 f i Parser.obj
 0001:00069a00       ??_E?$basic_ostringstream@DU?$char_traits@D@std@@V?$allocator@D@2@@std@@UAEPAXI@Z 0046aa00 f i Parser.obj
 0001:00069a70       ??_G?$basic_stringbuf@DU?$char_traits@D@std@@V?$allocator@D@2@@std@@UAEPAXI@Z 0046aa70 f i Parser.obj
 0001:00069a70       ??_E?$basic_stringbuf@DU?$char_traits@D@std@@V?$allocator@D@2@@std@@UAEPAXI@Z 0046aa70 f i Parser.obj
 0001:00069ad0       ??1?$_Pair_base@V?$basic_string@DU?$char_traits@D@std@@V?$allocator@D@2@@std@@VMaterial@@@std@@QAE@XZ 0046aad0 f i Parser.obj
 0001:00069b10       ??4?$_Tree_const_iterator@V?$_Tree_val@V?$_Tmap_traits@V?$basic_string@DU?$char_traits@D@std@@V?$allocator@D@2@@std@@VMaterial@@U?$less@V?$basic_string@DU?$char_traits@D@std@@V?$allocator@D@2@@std@@@2@V?$allocator@U?$pair@$$CBV?$basic_string@DU?$char_traits@D@std@@V?$allocator@D@2@@std@@VMaterial@@@std@@@2@$0A@@std@@@std@@@std@@QAEAAV01@ABV01@@Z 0046ab10 f i Parser.obj
 0001:00069b60       ??4?$_Tree_unchecked_const_iterator@V?$_Tree_val@V?$_Tmap_traits@V?$basic_string@DU?$char_traits@D@std@@V?$allocator@D@2@@std@@VMaterial@@U?$less@V?$basic_string@DU?$char_traits@D@std@@V?$allocator@D@2@@std@@@2@V?$allocator@U?$pair@$$CBV?$basic_string@DU?$char_traits@D@std@@V?$allocator@D@2@@std@@VMaterial@@@std@@@2@$0A@@std@@@std@@U_Iterator_base12@2@@std@@QAEAAV01@ABV01@@Z 0046ab60 f i Parser.obj
 0001:00069bc0       ??4?$_Iterator012@Ubidirectional_iterator_tag@std@@U?$pair@$$CBV?$basic_string@DU?$char_traits@D@std@@V?$allocator@D@2@@std@@VMaterial@@@2@HPBU32@ABU32@U_Iterator_base12@2@@std@@QAEAAU01@ABU01@@Z 0046abc0 f i Parser.obj
 0001:00069c10       ??0?$Mat3@N@@QAE@ABV0@@Z   0046ac10 f i Parser.obj
 0001:00069c60       ??0?$Mat4@N@@QAE@ABV0@@Z   0046ac60 f i Parser.obj
 0001:00069cc0       ??A?$Mat4@N@@QAEPANH@Z     0046acc0 f i Parser.obj
 0001:00069d00       ?_Inside@?$vector@PAVTransformNode@@V?$allocator@PAVTransformNode@@@std@@@std@@IBE_NPBQAVTransformNode@@@Z 0046ad00 f i Parser.obj
 0001:00069d60       ?_Reserve@?$vector@PAVTransformNode@@V?$allocator@PAVTransformNode@@@std@@@std@@IAEXI@Z 0046ad60 f i Parser.obj
 0001:00069df0       ?_Orphan_range@?$vector@PAVTransformNode@@V?$allocator@PAVTransformNode@@@std@@@std@@IBEXPAPAVTransformNode@@0@Z 0046adf0 f i Parser.obj
 0001:00069f20       ??0?$_Vector_val@PAVTransformNode@@V?$allocator@PAVTransformNode@@@std@@@std@@QAE@V?$allocator@PAVTransformNode@@@1@@Z 0046af20 f i Parser.obj
 0001:0006a050       ??0?$allocator@PAVTransformNode@@@std@@QAE@XZ 0046b050 f i Parser.obj
 0001:0006a080       ?_Inside@?$vector@PAVLight@@V?$allocator@PAVLight@@@std@@@std@@IBE_NPBQAVLight@@@Z 0046b080 f i Parser.obj
 0001:0006a0e0       ?_Reserve@?$vector@PAVLight@@V?$allocator@PAVLight@@@std@@@std@@IAEXI@Z 0046b0e0 f i Parser.obj
 0001:0006a170       ?_Orphan_range@?$vector@PAVLight@@V?$allocator@PAVLight@@@std@@@std@@IBEXPAPAVLight@@0@Z 0046b170 f i Parser.obj
 0001:0006a2a0       ??0?$_Vector_val@PAVLight@@V?$allocator@PAVLight@@@std@@@std@@QAE@V?$allocator@PAVLight@@@1@@Z 0046b2a0 f i Parser.obj
 0001:0006a3d0       ??0?$allocator@PAVLight@@@std@@QAE@XZ 0046b3d0 f i Parser.obj
 0001:0006a400       ??0?$_Tree@V?$_Tmap_traits@V?$basic_string@DU?$char_traits@D@std@@V?$allocator@D@2@@std@@PAVTextureMap@@U?$less@V?$basic_string@DU?$char_traits@D@std@@V?$allocator@D@2@@std@@@2@V?$allocator@U?$pair@$$CBV?$basic_string@DU?$char_traits@D@std@@V?$allocator@D@2@@std@@PAVTextureMap@@@std@@@2@$0A@@std@@@std@@QAE@ABU?$less@V?$basic_string@DU?$char_traits@D@std@@V?$allocator@D@2@@std@@@1@ABV?$allocator@U?$pair@$$CBV?$basic_string@DU?$char_traits@D@std@@V?$allocator@D@2@@std@@PAVTextureMap@@@std@@@1@@Z 0046b400 f i Parser.obj
 0001:0006a460       ??0?$allocator@U?$pair@$$CBV?$basic_string@DU?$char_traits@D@std@@V?$allocator@D@2@@std@@PAVTextureMap@@@std@@@std@@QAE@XZ 0046b460 f i Parser.obj
 0001:0006a490       ??0?$_Vector_val@U?$pair@Vray@@Visect@@@std@@V?$allocator@U?$pair@Vray@@Visect@@@std@@@2@@std@@QAE@V?$allocator@U?$pair@Vray@@Visect@@@std@@@1@@Z 0046b490 f i Parser.obj
 0001:0006a5c0       ??0?$allocator@U?$pair@Vray@@Visect@@@std@@@std@@QAE@XZ 0046b5c0 f i Parser.obj
 0001:0006a5f0       ??0?$_Vector_val@V?$Vec3@N@@V?$allocator@V?$Vec3@N@@@std@@@std@@QAE@V?$allocator@V?$Vec3@N@@@1@@Z 0046b5f0 f i Parser.obj
 0001:0006a720       ??0?$allocator@V?$Vec3@N@@@std@@QAE@XZ 0046b720 f i Parser.obj
 0001:0006a750       ??0?$_Vector_val@PAVTrimeshFace@@V?$allocator@PAVTrimeshFace@@@std@@@std@@QAE@V?$allocator@PAVTrimeshFace@@@1@@Z 0046b750 f i Parser.obj
 0001:0006a880       ??0?$allocator@PAVTrimeshFace@@@std@@QAE@XZ 0046b880 f i Parser.obj
 0001:0006a8b0       ??0?$_Vector_val@PAVMaterial@@V?$allocator@PAVMaterial@@@std@@@std@@QAE@V?$allocator@PAVMaterial@@@1@@Z 0046b8b0 f i Parser.obj
 0001:0006a9e0       ??0?$allocator@PAVMaterial@@@std@@QAE@XZ 0046b9e0 f i Parser.obj
 0001:0006aa10       ?lower_bound@?$_Tree@V?$_Tmap_traits@V?$basic_string@DU?$char_traits@D@std@@V?$allocator@D@2@@std@@VMaterial@@U?$less@V?$basic_string@DU?$char_traits@D@std@@V?$allocator@D@2@@std@@@2@V?$allocator@U?$pair@$$CBV?$basic_string@DU?$char_traits@D@std@@V?$allocator@D@2@@std@@VMaterial@@@std@@@2@$0A@@std@@@std@@QAE?AV?$_Tree_iterator@V?$_Tree_val@V?$_Tmap_traits@V?$basic_string@DU?$char_traits@D@std@@V?$allocator@D@2@@std@@VMaterial@@U?$less@V?$basic_string@DU?$char_traits@D@std@@V?$allocator@D@2@@std@@@2@V?$allocator@U?$pair@$$CBV?$basic_string@DU?$char_traits@D@std@@V?$allocator@D@2@@std@@VMaterial@@@std@@@2@$0A@@std@@@std@@@2@ABV?$basic_string@DU?$char_traits@D@std@@V?$allocator@D@2@@2@@Z 0046ba10 f i Parser.obj
 0001:0006aa80       ?_Key@?$_Tree_val@V?$_Tmap_traits@V?$basic_string@DU?$char_traits@D@std@@V?$allocator@D@2@@std@@VMaterial@@U?$less@V?$basic_string@DU?$char_traits@D@std@@V?$allocator@D@2@@std@@@2@V?$allocator@U?$pair@$$CBV?$basic_string@DU?$char_traits@D@std@@V?$allocator@D@2@@std@@VMaterial@@@std@@@2@$0A@@std@@@std@@SAAAV?$basic_string@DU?$char_traits@D@std@@V?$allocator@D@2@@2@PAU_Node@?$_Tree_nod@V?$_Tmap_traits@V?$basic_string@DU?$char_traits@D@std@@V?$allocator@D@2@@std@@VMaterial@@U?$less@V?$basic_string@DU?$char_traits@D@std@@V?$allocator@D@2@@std@@@2@V?$allocator@U?$pair@$$CBV?$basic_string@DU?$char_traits@D@std@@V?$allocator@D@2@@std@@VMaterial@@@std@@@2@$0A@@std@@@2@@Z 0046ba80 f i Parser.obj
 0001:0006aad0       ?get@?$auto_ptr@VToken@@@std@@QBEPAVToken@@XZ 0046bad0 f i Parser.obj
 0001:0006ab00       ??0?$basic_stringbuf@DU?$char_traits@D@std@@V?$allocator@D@2@@std@@QAE@H@Z 0046bb00 f i Parser.obj
 0001:0006abc0       ?str@?$basic_stringbuf@DU?$char_traits@D@std@@V?$allocator@D@2@@std@@QBE?AV?$basic_string@DU?$char_traits@D@std@@V?$allocator@D@2@@2@XZ 0046bbc0 f i Parser.obj
 0001:0006ae50       ?_Tidy@?$basic_stringbuf@DU?$char_traits@D@std@@V?$allocator@D@2@@std@@IAEXXZ 0046be50 f i Parser.obj
 0001:0006af60       ?release@?$auto_ptr@VMaterial@@@std@@QAEPAVMaterial@@XZ 0046bf60 f i Parser.obj
 0001:0006afa0       ?reset@?$auto_ptr@VMaterial@@@std@@QAEXPAVMaterial@@@Z 0046bfa0 f i Parser.obj
 0001:0006b010       ?_Tidy@?$list@V?$Vec3@N@@V?$allocator@V?$Vec3@N@@@std@@@std@@QAEXXZ 0046c010 f i Parser.obj
 0001:0006b050       ??0?$_List_val@V?$Vec3@N@@V?$allocator@V?$Vec3@N@@@std@@@std@@QAE@V?$allocator@V?$Vec3@N@@@1@@Z 0046c050 f i Parser.obj
 0001:0006b130       ??1?$_List_val@V?$Vec3@N@@V?$allocator@V?$Vec3@N@@@std@@@std@@QAE@XZ 0046c130 f i Parser.obj
 0001:0006b1c0       ?_Nextnode@?$_List_val@V?$Vec3@N@@V?$allocator@V?$Vec3@N@@@std@@@std@@SAAAPAU_Node@?$_List_nod@V?$Vec3@N@@V?$allocator@V?$Vec3@N@@@std@@@2@PAU342@@Z 0046c1c0 f i Parser.obj
 0001:0006b1f0       ?_Myval@?$_List_val@V?$Vec3@N@@V?$allocator@V?$Vec3@N@@@std@@@std@@SAAAV?$Vec3@N@@PAU_Node@?$_List_nod@V?$Vec3@N@@V?$allocator@V?$Vec3@N@@@std@@@2@@Z 0046c1f0 f i Parser.obj
 0001:0006b220       ??E?$_List_const_iterator@V?$_List_val@V?$Vec3@N@@V?$allocator@V?$Vec3@N@@@std@@@std@@@std@@QAEAAV01@XZ 0046c220 f i Parser.obj
 0001:0006b320       ??8?$_List_const_iterator@V?$_List_val@V?$Vec3@N@@V?$allocator@V?$Vec3@N@@@std@@@std@@@std@@QBE_NABV01@@Z 0046c320 f i Parser.obj
 0001:0006b420       ??0?$_List_iterator@V?$_List_val@V?$Vec3@N@@V?$allocator@V?$Vec3@N@@@std@@@std@@@std@@QAE@PAU_Node@?$_List_nod@V?$Vec3@N@@V?$allocator@V?$Vec3@N@@@std@@@1@PBV?$_List_val@V?$Vec3@N@@V?$allocator@V?$Vec3@N@@@std@@@1@@Z 0046c420 f i Parser.obj
 0001:0006b470       ?_Assign_rv@?$list@NV?$allocator@N@std@@@std@@QAEX$$QAV12@@Z 0046c470 f i Parser.obj
 0001:0006b630       ?_Tidy@?$list@NV?$allocator@N@std@@@std@@QAEXXZ 0046c630 f i Parser.obj
 0001:0006b670       ??0?$_List_val@NV?$allocator@N@std@@@std@@QAE@V?$allocator@N@1@@Z 0046c670 f i Parser.obj
 0001:0006b750       ??1?$_List_val@NV?$allocator@N@std@@@std@@QAE@XZ 0046c750 f i Parser.obj
 0001:0006b7e0       ?_Nextnode@?$_List_val@NV?$allocator@N@std@@@std@@SAAAPAU_Node@?$_List_nod@NV?$allocator@N@std@@@2@PAU342@@Z 0046c7e0 f i Parser.obj
 0001:0006b810       ?_Myval@?$_List_val@NV?$allocator@N@std@@@std@@SAAANPAU_Node@?$_List_nod@NV?$allocator@N@std@@@2@@Z 0046c810 f i Parser.obj
 0001:0006b840       ??0?$allocator@N@std@@QAE@XZ 0046c840 f i Parser.obj
 0001:0006b870       ??0?$allocator@N@std@@QAE@ABV01@@Z 0046c870 f i Parser.obj
 0001:0006b8a0       ??E?$_List_const_iterator@V?$_List_val@NV?$allocator@N@std@@@std@@@std@@QAEAAV01@XZ 0046c8a0 f i Parser.obj
 0001:0006b9a0       ??8?$_List_const_iterator@V?$_List_val@NV?$allocator@N@std@@@std@@@std@@QBE_NABV01@@Z 0046c9a0 f i Parser.obj
 0001:0006baa0       ??0?$_List_iterator@V?$_List_val@NV?$allocator@N@std@@@std@@@std@@QAE@PAU_Node@?$_List_nod@NV?$allocator@N@std@@@1@PBV?$_List_val@NV?$allocator@N@std@@@1@@Z 0046caa0 f i Parser.obj
 0001:0006baf0       ??D?$_Tree_iterator@V?$_Tree_val@V?$_Tmap_traits@V?$basic_string@DU?$char_traits@D@std@@V?$allocator@D@2@@std@@VMaterial@@U?$less@V?$basic_string@DU?$char_traits@D@std@@V?$allocator@D@2@@std@@@2@V?$allocator@U?$pair@$$CBV?$basic_string@DU?$char_traits@D@std@@V?$allocator@D@2@@std@@VMaterial@@@std@@@2@$0A@@std@@@std@@@std@@QBEAAU?$pair@$$CBV?$basic_string@DU?$char_traits@D@std@@V?$allocator@D@2@@std@@VMaterial@@@1@XZ 0046caf0 f i Parser.obj
 0001:0006bb30       ??0?$pair@V?$basic_string@DU?$char_traits@D@std@@V?$allocator@D@2@@std@@VMaterial@@@std@@QAE@$$QAV?$basic_string@DU?$char_traits@D@std@@V?$allocator@D@2@@1@$$QAVMaterial@@@Z 0046cb30 f i Parser.obj
 0001:0006bb90       ??0?$pair@$$CBV?$basic_string@DU?$char_traits@D@std@@V?$allocator@D@2@@std@@VMaterial@@@std@@QAE@ABV?$basic_string@DU?$char_traits@D@std@@V?$allocator@D@2@@1@$$QAVMaterial@@@Z 0046cb90 f i Parser.obj
 0001:0006bbf0       ??0?$basic_string@DU?$char_traits@D@std@@V?$allocator@D@2@@std@@QAE@PBDI@Z 0046cbf0 f i Parser.obj
 0001:0006bca0       ?reserve@?$vector@PAVTransformNode@@V?$allocator@PAVTransformNode@@@std@@@std@@QAEXI@Z 0046cca0 f i Parser.obj
 0001:0006be20       ?capacity@?$vector@PAVTransformNode@@V?$allocator@PAVTransformNode@@@std@@@std@@QBEIXZ 0046ce20 f i Parser.obj
 0001:0006be60       ?size@?$vector@PAVTransformNode@@V?$allocator@PAVTransformNode@@@std@@@std@@QBEIXZ 0046ce60 f i Parser.obj
 0001:0006bea0       ?max_size@?$vector@PAVTransformNode@@V?$allocator@PAVTransformNode@@@std@@@std@@QBEIXZ 0046cea0 f i Parser.obj
 0001:0006bef0       ?_Grow_to@?$vector@PAVTransformNode@@V?$allocator@PAVTransformNode@@@std@@@std@@IBEII@Z 0046cef0 f i Parser.obj
 0001:0006bf80       ?_Xlen@?$vector@PAVTransformNode@@V?$allocator@PAVTransformNode@@@std@@@std@@IBEXXZ 0046cf80 f i Parser.obj
 0001:0006bfd0       ??0?$allocator@PAVTransformNode@@@std@@QAE@ABV01@@Z 0046cfd0 f i Parser.obj
 0001:0006c000       ?reserve@?$vector@PAVLight@@V?$allocator@PAVLight@@@std@@@std@@QAEXI@Z 0046d000 f i Parser.obj
 0001:0006c180       ?capacity@?$vector@PAVLight@@V?$allocator@PAVLight@@@std@@@std@@QBEIXZ 0046d180 f i Parser.obj
 0001:0006c1c0       ?size@?$vector@PAVLight@@V?$allocator@PAVLight@@@std@@@std@@QBEIXZ 0046d1c0 f i Parser.obj
 0001:0006c200       ?max_size@?$vector@PAVLight@@V?$allocator@PAVLight@@@std@@@std@@QBEIXZ 0046d200 f i Parser.obj
 0001:0006c250       ?_Grow_to@?$vector@PAVLight@@V?$allocator@PAVLight@@@std@@@std@@IBEII@Z 0046d250 f i Parser.obj
 0001:0006c2e0       ?_Xlen@?$vector@PAVLight@@V?$allocator@PAVLight@@@std@@@std@@IBEXXZ 0046d2e0 f i Parser.obj
 0001:0006c330       ??0?$allocator@PAVLight@@@std@@QAE@ABV01@@Z 0046d330 f i Parser.obj
 0001:0006c360       ??0?$_Tree_val@V?$_Tmap_traits@V?$basic_string@DU?$char_traits@D@std@@V?$allocator@D@2@@std@@PAVTextureMap@@U?$less@V?$basic_string@DU?$char_traits@D@std@@V?$allocator@D@2@@std@@@2@V?$allocator@U?$pair@$$CBV?$basic_string@DU?$char_traits@D@std@@V?$allocator@D@2@@std@@PAVTextureMap@@@std@@@2@$0A@@std@@@std@@QAE@ABU?$less@V?$basic_string@DU?$char_traits@D@std@@V?$allocator@D@2@@std@@@1@V?$allocator@U?$pair@$$CBV?$basic_string@DU?$char_traits@D@std@@V?$allocator@D@2@@std@@PAVTextureMap@@@std@@@1@@Z 0046d360 f i Parser.obj
 0001:0006c480       ??0?$allocator@U?$pair@$$CBV?$basic_string@DU?$char_traits@D@std@@V?$allocator@D@2@@std@@PAVTextureMap@@@std@@@std@@QAE@ABV01@@Z 0046d480 f i Parser.obj
 0001:0006c4b0       ??0?$allocator@U?$pair@Vray@@Visect@@@std@@@std@@QAE@ABV01@@Z 0046d4b0 f i Parser.obj
 0001:0006c4e0       ??0?$allocator@V?$Vec3@N@@@std@@QAE@ABV01@@Z 0046d4e0 f i Parser.obj
 0001:0006c510       ??0?$allocator@PAVTrimeshFace@@@std@@QAE@ABV01@@Z 0046d510 f i Parser.obj
 0001:0006c540       ??0?$allocator@PAVMaterial@@@std@@QAE@ABV01@@Z 0046d540 f i Parser.obj
 0001:0006c570       ?_Lbound@?$_Tree@V?$_Tmap_traits@V?$basic_string@DU?$char_traits@D@std@@V?$allocator@D@2@@std@@VMaterial@@U?$less@V?$basic_string@DU?$char_traits@D@std@@V?$allocator@D@2@@std@@@2@V?$allocator@U?$pair@$$CBV?$basic_string@DU?$char_traits@D@std@@V?$allocator@D@2@@std@@VMaterial@@@std@@@2@$0A@@std@@@std@@IAEPAU_Node@?$_Tree_nod@V?$_Tmap_traits@V?$basic_string@DU?$char_traits@D@std@@V?$allocator@D@2@@std@@VMaterial@@U?$less@V?$basic_string@DU?$char_traits@D@std@@V?$allocator@D@2@@std@@@2@V?$allocator@U?$pair@$$CBV?$basic_string@DU?$char_traits@D@std@@V?$allocator@D@2@@std@@VMaterial@@@std@@@2@$0A@@std@@@2@ABV?$basic_string@DU?$char_traits@D@std@@V?$allocator@D@2@@2@@Z 0046d570 f i Parser.obj
 0001:0006c640       ?_Init@?$basic_stringbuf@DU?$char_traits@D@std@@V?$allocator@D@2@@std@@IAEXPBDIH@Z 0046d640 f i Parser.obj
 0001:0006c7a0       ?_Getstate@?$basic_stringbuf@DU?$char_traits@D@std@@V?$allocator@D@2@@std@@AAEHH@Z 0046d7a0 f i Parser.obj
 0001:0006c820       ?clear@?$list@V?$Vec3@N@@V?$allocator@V?$Vec3@N@@@std@@@std@@QAEXXZ 0046d820 f i Parser.obj
 0001:0006c900       ?_Prevnode@?$_List_val@V?$Vec3@N@@V?$allocator@V?$Vec3@N@@@std@@@std@@SAAAPAU_Node@?$_List_nod@V?$Vec3@N@@V?$allocator@V?$Vec3@N@@@std@@@2@PAU342@@Z 0046d900 f i Parser.obj
 0001:0006c930       ??0?$_List_nod@V?$Vec3@N@@V?$allocator@V?$Vec3@N@@@std@@@std@@QAE@V?$allocator@V?$Vec3@N@@@1@@Z 0046d930 f i Parser.obj
 0001:0006ca50       ??1?$_List_nod@V?$Vec3@N@@V?$allocator@V?$Vec3@N@@@std@@@std@@QAE@XZ 0046da50 f i Parser.obj
 0001:0006cb50       ?deallocate@?$allocator@U_Node@?$_List_nod@V?$Vec3@N@@V?$allocator@V?$Vec3@N@@@std@@@std@@@std@@QAEXPAU_Node@?$_List_nod@V?$Vec3@N@@V?$allocator@V?$Vec3@N@@@std@@@2@I@Z 0046db50 f i Parser.obj
 0001:0006cba0       ?allocate@?$allocator@U_Node@?$_List_nod@V?$Vec3@N@@V?$allocator@V?$Vec3@N@@@std@@@std@@@std@@QAEPAU_Node@?$_List_nod@V?$Vec3@N@@V?$allocator@V?$Vec3@N@@@std@@@2@I@Z 0046dba0 f i Parser.obj
 0001:0006cbf0       ??0?$_List_const_iterator@V?$_List_val@V?$Vec3@N@@V?$allocator@V?$Vec3@N@@@std@@@std@@@std@@QAE@PAU_Node@?$_List_nod@V?$Vec3@N@@V?$allocator@V?$Vec3@N@@@std@@@1@PBV?$_List_val@V?$Vec3@N@@V?$allocator@V?$Vec3@N@@@std@@@1@@Z 0046dbf0 f i Parser.obj
 0001:0006cc40       ?empty@?$list@NV?$allocator@N@std@@@std@@QBE_NXZ 0046dc40 f i Parser.obj
 0001:0006cc80       ?clear@?$list@NV?$allocator@N@std@@@std@@QAEXXZ 0046dc80 f i Parser.obj
 0001:0006cd60       ?_Splice@?$list@NV?$allocator@N@std@@@std@@QAEXV?$_List_const_iterator@V?$_List_val@NV?$allocator@N@std@@@std@@@2@AAV12@00I@Z 0046dd60 f i Parser.obj
 0001:0006d080       ?_Prevnode@?$_List_val@NV?$allocator@N@std@@@std@@SAAAPAU_Node@?$_List_nod@NV?$allocator@N@std@@@2@PAU342@@Z 0046e080 f i Parser.obj
 0001:0006d0b0       ??0?$_List_nod@NV?$allocator@N@std@@@std@@QAE@V?$allocator@N@1@@Z 0046e0b0 f i Parser.obj
 0001:0006d1d0       ??1?$_List_nod@NV?$allocator@N@std@@@std@@QAE@XZ 0046e1d0 f i Parser.obj
 0001:0006d2d0       ?deallocate@?$allocator@U_Node@?$_List_nod@NV?$allocator@N@std@@@std@@@std@@QAEXPAU_Node@?$_List_nod@NV?$allocator@N@std@@@2@I@Z 0046e2d0 f i Parser.obj
 0001:0006d320       ?allocate@?$allocator@U_Node@?$_List_nod@NV?$allocator@N@std@@@std@@@std@@QAEPAU_Node@?$_List_nod@NV?$allocator@N@std@@@2@I@Z 0046e320 f i Parser.obj
 0001:0006d370       ??0?$_List_const_iterator@V?$_List_val@NV?$allocator@N@std@@@std@@@std@@QAE@PAU_Node@?$_List_nod@NV?$allocator@N@std@@@1@PBV?$_List_val@NV?$allocator@N@std@@@1@@Z 0046e370 f i Parser.obj
 0001:0006d3c0       ??D?$_Tree_const_iterator@V?$_Tree_val@V?$_Tmap_traits@V?$basic_string@DU?$char_traits@D@std@@V?$allocator@D@2@@std@@VMaterial@@U?$less@V?$basic_string@DU?$char_traits@D@std@@V?$allocator@D@2@@std@@@2@V?$allocator@U?$pair@$$CBV?$basic_string@DU?$char_traits@D@std@@V?$allocator@D@2@@std@@VMaterial@@@std@@@2@$0A@@std@@@std@@@std@@QBEABU?$pair@$$CBV?$basic_string@DU?$char_traits@D@std@@V?$allocator@D@2@@std@@VMaterial@@@1@XZ 0046e3c0 f i Parser.obj
 0001:0006d4c0       ??0?$_Pair_base@V?$basic_string@DU?$char_traits@D@std@@V?$allocator@D@2@@std@@VMaterial@@@std@@QAE@$$QAV?$basic_string@DU?$char_traits@D@std@@V?$allocator@D@2@@1@$$QAVMaterial@@@Z 0046e4c0 f i Parser.obj
 0001:0006d570       ??0?$_Pair_base@$$CBV?$basic_string@DU?$char_traits@D@std@@V?$allocator@D@2@@std@@VMaterial@@@std@@QAE@ABV?$basic_string@DU?$char_traits@D@std@@V?$allocator@D@2@@1@$$QAVMaterial@@@Z 0046e570 f i Parser.obj
 0001:0006d610       ?allocate@?$allocator@PAVTransformNode@@@std@@QAEPAPAVTransformNode@@I@Z 0046e610 f i Parser.obj
 0001:0006d660       ?max_size@?$allocator@PAVTransformNode@@@std@@QBEIXZ 0046e660 f i Parser.obj
 0001:0006d6c0       ?allocate@?$allocator@PAVLight@@@std@@QAEPAPAVLight@@I@Z 0046e6c0 f i Parser.obj
 0001:0006d710       ?max_size@?$allocator@PAVLight@@@std@@QBEIXZ 0046e710 f i Parser.obj
 0001:0006d770       ??0?$_Tree_nod@V?$_Tmap_traits@V?$basic_string@DU?$char_traits@D@std@@V?$allocator@D@2@@std@@PAVTextureMap@@U?$less@V?$basic_string@DU?$char_traits@D@std@@V?$allocator@D@2@@std@@@2@V?$allocator@U?$pair@$$CBV?$basic_string@DU?$char_traits@D@std@@V?$allocator@D@2@@std@@PAVTextureMap@@@std@@@2@$0A@@std@@@std@@QAE@ABU?$less@V?$basic_string@DU?$char_traits@D@std@@V?$allocator@D@2@@std@@@1@V?$allocator@U?$pair@$$CBV?$basic_string@DU?$char_traits@D@std@@V?$allocator@D@2@@std@@PAVTextureMap@@@std@@@1@@Z 0046e770 f i Parser.obj
 0001:0006d890       ?_Orphan_ptr@?$list@V?$Vec3@N@@V?$allocator@V?$Vec3@N@@@std@@@std@@QBEXAAV12@PAU_Node@?$_List_nod@V?$Vec3@N@@V?$allocator@V?$Vec3@N@@@std@@@2@@Z 0046e890 f i Parser.obj
 0001:0006d9d0       ??0?$_List_unchecked_const_iterator@V?$_List_val@V?$Vec3@N@@V?$allocator@V?$Vec3@N@@@std@@@std@@U_Iterator_base12@2@@std@@QAE@PAU_Node@?$_List_nod@V?$Vec3@N@@V?$allocator@V?$Vec3@N@@@std@@@1@PBV?$_List_val@V?$Vec3@N@@V?$allocator@V?$Vec3@N@@@std@@@1@@Z 0046e9d0 f i Parser.obj
 0001:0006da70       ?erase@?$list@NV?$allocator@N@std@@@std@@QAE?AV?$_List_iterator@V?$_List_val@NV?$allocator@N@std@@@std@@@2@V?$_List_const_iterator@V?$_List_val@NV?$allocator@N@std@@@std@@@2@0@Z 0046ea70 f i Parser.obj
 0001:0006dd20       ?_Splice_same@?$list@NV?$allocator@N@std@@@std@@QAEXV?$_List_const_iterator@V?$_List_val@NV?$allocator@N@std@@@std@@@2@AAV12@00I@Z 0046ed20 f i Parser.obj
 0001:0006ded0       ?_Orphan_ptr@?$list@NV?$allocator@N@std@@@std@@QBEXAAV12@PAU_Node@?$_List_nod@NV?$allocator@N@std@@@2@@Z 0046eed0 f i Parser.obj
 0001:0006e010       ??0?$_List_unchecked_const_iterator@V?$_List_val@NV?$allocator@N@std@@@std@@U_Iterator_base12@2@@std@@QAE@PAU_Node@?$_List_nod@NV?$allocator@N@std@@@1@PBV?$_List_val@NV?$allocator@N@std@@@1@@Z 0046f010 f i Parser.obj
 0001:0006e0b0       ??0?$_Iterator012@Ubidirectional_iterator_tag@std@@V?$Vec3@N@@HPBV3@ABV3@U_Iterator_base12@2@@std@@QAE@XZ 0046f0b0 f i Parser.obj
 0001:0006e100       ??4?$_List_const_iterator@V?$_List_val@NV?$allocator@N@std@@@std@@@std@@QAEAAV01@ABV01@@Z 0046f100 f i Parser.obj
 0001:0006e150       ??0?$_Iterator012@Ubidirectional_iterator_tag@std@@NHPBNABNU_Iterator_base12@2@@std@@QAE@XZ 0046f150 f i Parser.obj
 0001:0006e1a0       ??4?$_List_unchecked_const_iterator@V?$_List_val@NV?$allocator@N@std@@@std@@U_Iterator_base12@2@@std@@QAEAAV01@ABV01@@Z 0046f1a0 f i Parser.obj
 0001:0006e200       ??4?$_Iterator012@Ubidirectional_iterator_tag@std@@NHPBNABNU_Iterator_base12@2@@std@@QAEAAU01@ABU01@@Z 0046f200 f i Parser.obj
 0001:0006e250       ??0?$_Tmap_traits@V?$basic_string@DU?$char_traits@D@std@@V?$allocator@D@2@@std@@PAVTextureMap@@U?$less@V?$basic_string@DU?$char_traits@D@std@@V?$allocator@D@2@@std@@@2@V?$allocator@U?$pair@$$CBV?$basic_string@DU?$char_traits@D@std@@V?$allocator@D@2@@std@@PAVTextureMap@@@std@@@2@$0A@@std@@QAE@U?$less@V?$basic_string@DU?$char_traits@D@std@@V?$allocator@D@2@@std@@@1@@Z 0046f250 f i Parser.obj
 0001:0006e2a0       ?_Make_iter@?$list@NV?$allocator@N@std@@@std@@QBE?AV?$_List_iterator@V?$_List_val@NV?$allocator@N@std@@@std@@@2@V?$_List_const_iterator@V?$_List_val@NV?$allocator@N@std@@@std@@@2@@Z 0046f2a0 f i Parser.obj
 0001:0006e350       ?erase@?$list@NV?$allocator@N@std@@@std@@QAE?AV?$_List_iterator@V?$_List_val@NV?$allocator@N@std@@@std@@@2@V?$_List_const_iterator@V?$_List_val@NV?$allocator@N@std@@@std@@@2@@Z 0046f350 f i Parser.obj
 0001:0006e530       ?_Incsize@?$list@NV?$allocator@N@std@@@std@@QAEXI@Z 0046f530 f i Parser.obj
 0001:0006e5b0       ?_Mynode@?$_List_unchecked_const_iterator@V?$_List_val@NV?$allocator@N@std@@@std@@U_Iterator_base12@2@@std@@QBEPAU_Node@?$_List_nod@NV?$allocator@N@std@@@2@XZ 0046f5b0 f i Parser.obj
 0001:0006e5e0       ?max_size@?$list@NV?$allocator@N@std@@@std@@QBEIXZ 0046f5e0 f i Parser.obj
 0001:0006e630       ?max_size@?$allocator@N@std@@QBEIXZ 0046f630 f i Parser.obj
 0001:0006e690       ?createRotation@?$Mat4@N@@SA?AV1@NMMM@Z 0046f690 f i Parser.obj
 0001:0006e9e0       ?createTranslation@?$Mat4@N@@SA?AV1@NNN@Z 0046f9e0 f i Parser.obj
 0001:0006eab0       ?createScale@?$Mat4@N@@SA?AV1@NNN@Z 0046fab0 f i Parser.obj
 0001:0006eb80       ??$?DN@@YA?AV?$Mat4@N@@ABV0@0@Z 0046fb80 f i Parser.obj
 0001:0006ef80       ??$?BVToken@@@?$auto_ptr@VToken@@@std@@QAE?AU?$auto_ptr_ref@VToken@@@1@XZ 0046ff80 f i Parser.obj
 0001:0006f010       ??$forward@V?$allocator@D@std@@@std@@YA$$QAV?$allocator@D@0@AAV10@@Z 00470010 f i Parser.obj
 0001:0006f040       ??$swap@N@std@@YAXAAN0@Z   00470040 f i Parser.obj
 0001:0006f0e0       ??$addressof@QAVTransformNode@@@std@@YAPBQAVTransformNode@@ABQAV1@@Z 004700e0 f i Parser.obj
 0001:0006f110       ??$_Cons_val@V?$allocator@PAVTransformNode@@@std@@PAVTransformNode@@AAPAV3@@std@@YAXAAV?$allocator@PAVTransformNode@@@0@PAPAVTransformNode@@AAPAV2@@Z 00470110 f i Parser.obj
 0001:0006f160       ??$_Cons_val@V?$allocator@PAVTransformNode@@@std@@PAVTransformNode@@ABQAV3@@std@@YAXAAV?$allocator@PAVTransformNode@@@0@PAPAVTransformNode@@ABQAV2@@Z 00470160 f i Parser.obj
 0001:0006f1b0       ??$addressof@QAVLight@@@std@@YAPBQAVLight@@ABQAV1@@Z 004701b0 f i Parser.obj
 0001:0006f1e0       ??$_Cons_val@V?$allocator@PAVLight@@@std@@PAVLight@@AAPAV3@@std@@YAXAAV?$allocator@PAVLight@@@0@PAPAVLight@@AAPAV2@@Z 004701e0 f i Parser.obj
 0001:0006f230       ??$_Cons_val@V?$allocator@PAVLight@@@std@@PAVLight@@ABQAV3@@std@@YAXAAV?$allocator@PAVLight@@@0@PAPAVLight@@ABQAV2@@Z 00470230 f i Parser.obj
 0001:0006f280       ??$move@AAV?$basic_string@DU?$char_traits@D@std@@V?$allocator@D@2@@std@@@std@@YA$$QAV?$basic_string@DU?$char_traits@D@std@@V?$allocator@D@2@@0@AAV10@@Z 00470280 f i Parser.obj
 0001:0006f2b0       ??$insert@U?$pair@V?$basic_string@DU?$char_traits@D@std@@V?$allocator@D@2@@std@@VMaterial@@@std@@@?$_Tree@V?$_Tmap_traits@V?$basic_string@DU?$char_traits@D@std@@V?$allocator@D@2@@std@@VMaterial@@U?$less@V?$basic_string@DU?$char_traits@D@std@@V?$allocator@D@2@@std@@@2@V?$allocator@U?$pair@$$CBV?$basic_string@DU?$char_traits@D@std@@V?$allocator@D@2@@std@@VMaterial@@@std@@@2@$0A@@std@@@std@@QAE?AV?$_Tree_iterator@V?$_Tree_val@V?$_Tmap_traits@V?$basic_string@DU?$char_traits@D@std@@V?$allocator@D@2@@std@@VMaterial@@U?$less@V?$basic_string@DU?$char_traits@D@std@@V?$allocator@D@2@@std@@@2@V?$allocator@U?$pair@$$CBV?$basic_string@DU?$char_traits@D@std@@V?$allocator@D@2@@std@@VMaterial@@@std@@@2@$0A@@std@@@std@@@1@V?$_Tree_const_iterator@V?$_Tree_val@V?$_Tmap_traits@V?$basic_string@DU?$char_traits@D@std@@V?$allocator@D@2@@std@@VMaterial@@U?$less@V?$basic_string@DU?$char_traits@D@std@@V?$allocator@D@2@@std@@@2@V?$allocator@U?$pair@$$CBV?$basic_string@DU?$char_traits@D@std@@V?$allocator@D@2@@std@@VMaterial@@@std@@@2@$0A@@std@@@std@@@1@$$QAU?$pair@V?$basic_string@DU?$char_traits@D@std@@V?$allocator@D@2@@std@@VMaterial@@@1@@Z 004702b0 f i Parser.obj
 0001:0006f390       ??$insert@U?$pair@$$CBV?$basic_string@DU?$char_traits@D@std@@V?$allocator@D@2@@std@@VMaterial@@@std@@@?$_Tree@V?$_Tmap_traits@V?$basic_string@DU?$char_traits@D@std@@V?$allocator@D@2@@std@@VMaterial@@U?$less@V?$basic_string@DU?$char_traits@D@std@@V?$allocator@D@2@@std@@@2@V?$allocator@U?$pair@$$CBV?$basic_string@DU?$char_traits@D@std@@V?$allocator@D@2@@std@@VMaterial@@@std@@@2@$0A@@std@@@std@@QAE?AV?$_Tree_iterator@V?$_Tree_val@V?$_Tmap_traits@V?$basic_string@DU?$char_traits@D@std@@V?$allocator@D@2@@std@@VMaterial@@U?$less@V?$basic_string@DU?$char_traits@D@std@@V?$allocator@D@2@@std@@@2@V?$allocator@U?$pair@$$CBV?$basic_string@DU?$char_traits@D@std@@V?$allocator@D@2@@std@@VMaterial@@@std@@@2@$0A@@std@@@std@@@1@V?$_Tree_const_iterator@V?$_Tree_val@V?$_Tmap_traits@V?$basic_string@DU?$char_traits@D@std@@V?$allocator@D@2@@std@@VMaterial@@U?$less@V?$basic_string@DU?$char_traits@D@std@@V?$allocator@D@2@@std@@@2@V?$allocator@U?$pair@$$CBV?$basic_string@DU?$char_traits@D@std@@V?$allocator@D@2@@std@@VMaterial@@@std@@@2@$0A@@std@@@std@@@1@$$QAU?$pair@$$CBV?$basic_string@DU?$char_traits@D@std@@V?$allocator@D@2@@std@@VMaterial@@@1@@Z 00470390 f i Parser.obj
 0001:0006f470       ??$_Insert_rv@V?$Vec3@N@@@?$list@V?$Vec3@N@@V?$allocator@V?$Vec3@N@@@std@@@std@@QAEXV?$_List_const_iterator@V?$_List_val@V?$Vec3@N@@V?$allocator@V?$Vec3@N@@@std@@@std@@@1@$$QAV?$Vec3@N@@@Z 00470470 f i Parser.obj
 0001:0006f590       ??$forward@V?$list@NV?$allocator@N@std@@@std@@@std@@YA$$QAV?$list@NV?$allocator@N@std@@@0@AAV10@@Z 00470590 f i Parser.obj
 0001:0006f5c0       ??$forward@N@std@@YA$$QANAAN@Z 004705c0 f i Parser.obj
 0001:0006f5f0       ??$_Insert_rv@N@?$list@NV?$allocator@N@std@@@std@@QAEXV?$_List_const_iterator@V?$_List_val@NV?$allocator@N@std@@@std@@@1@$$QAN@Z 004705f0 f i Parser.obj
 0001:0006f710       ??$_Kfn@$$CBV?$basic_string@DU?$char_traits@D@std@@V?$allocator@D@2@@std@@VMaterial@@@?$_Tmap_traits@V?$basic_string@DU?$char_traits@D@std@@V?$allocator@D@2@@std@@VMaterial@@U?$less@V?$basic_string@DU?$char_traits@D@std@@V?$allocator@D@2@@std@@@2@V?$allocator@U?$pair@$$CBV?$basic_string@DU?$char_traits@D@std@@V?$allocator@D@2@@std@@VMaterial@@@std@@@2@$0A@@std@@SAABV?$basic_string@DU?$char_traits@D@std@@V?$allocator@D@2@@1@ABU?$pair@$$CBV?$basic_string@DU?$char_traits@D@std@@V?$allocator@D@2@@std@@VMaterial@@@1@@Z 00470710 f i Parser.obj
 0001:0006f740       ??$move@AAVMaterial@@@std@@YA$$QAVMaterial@@AAV1@@Z 00470740 f i Parser.obj
 0001:0006f770       ??$_Umove@PAPAVTransformNode@@@?$vector@PAVTransformNode@@V?$allocator@PAVTransformNode@@@std@@@std@@IAEPAPAVTransformNode@@PAPAV2@00@Z 00470770 f i Parser.obj
 0001:0006f7d0       ??$_Umove@PAPAVLight@@@?$vector@PAVLight@@V?$allocator@PAVLight@@@std@@@std@@IAEPAPAVLight@@PAPAV2@00@Z 004707d0 f i Parser.obj
 0001:0006f830       ??$_Dest_val@V?$allocator@U_Node@?$_List_nod@V?$Vec3@N@@V?$allocator@V?$Vec3@N@@@std@@@std@@@std@@U_Node@?$_List_nod@V?$Vec3@N@@V?$allocator@V?$Vec3@N@@@std@@@2@@std@@YAXAAV?$allocator@U_Node@?$_List_nod@V?$Vec3@N@@V?$allocator@V?$Vec3@N@@@std@@@std@@@0@PAU_Node@?$_List_nod@V?$Vec3@N@@V?$allocator@V?$Vec3@N@@@std@@@0@@Z 00470830 f i Parser.obj
 0001:0006f870       ??$?0V?$Vec3@N@@@?$allocator@U_Node@?$_List_nod@V?$Vec3@N@@V?$allocator@V?$Vec3@N@@@std@@@std@@@std@@QAE@ABV?$allocator@V?$Vec3@N@@@1@@Z 00470870 f i Parser.obj
 0001:0006f8a0       ??$?0U_Node@?$_List_nod@V?$Vec3@N@@V?$allocator@V?$Vec3@N@@@std@@@std@@@?$allocator@U_Container_proxy@std@@@std@@QAE@ABV?$allocator@U_Node@?$_List_nod@V?$Vec3@N@@V?$allocator@V?$Vec3@N@@@std@@@std@@@1@@Z 004708a0 f i Parser.obj
 0001:0006f8d0       ??$_Allocate@U_Node@?$_List_nod@V?$Vec3@N@@V?$allocator@V?$Vec3@N@@@std@@@std@@@std@@YAPAU_Node@?$_List_nod@V?$Vec3@N@@V?$allocator@V?$Vec3@N@@@std@@@0@IPAU120@@Z 004708d0 f i Parser.obj
 0001:0006f960       ??$_Dest_val@V?$allocator@U_Node@?$_List_nod@NV?$allocator@N@std@@@std@@@std@@U_Node@?$_List_nod@NV?$allocator@N@std@@@2@@std@@YAXAAV?$allocator@U_Node@?$_List_nod@NV?$allocator@N@std@@@std@@@0@PAU_Node@?$_List_nod@NV?$allocator@N@std@@@0@@Z 00470960 f i Parser.obj
 0001:0006f9a0       ??$?8NN@std@@YA_NABV?$allocator@N@0@0@Z 004709a0 f i Parser.obj
 0001:0006f9d0       ??$insert@N@?$list@NV?$allocator@N@std@@@std@@QAE?AV?$_List_iterator@V?$_List_val@NV?$allocator@N@std@@@std@@@1@V?$_List_const_iterator@V?$_List_val@NV?$allocator@N@std@@@std@@@1@$$QAN@Z 004709d0 f i Parser.obj
 0001:0006faa0       ??$?0N@?$allocator@U_Node@?$_List_nod@NV?$allocator@N@std@@@std@@@std@@QAE@ABV?$allocator@N@1@@Z 00470aa0 f i Parser.obj
 0001:0006fad0       ??$?0U_Node@?$_List_nod@NV?$allocator@N@std@@@std@@@?$allocator@U_Container_proxy@std@@@std@@QAE@ABV?$allocator@U_Node@?$_List_nod@NV?$allocator@N@std@@@std@@@1@@Z 00470ad0 f i Parser.obj
 0001:0006fb00       ??$_Allocate@U_Node@?$_List_nod@NV?$allocator@N@std@@@std@@@std@@YAPAU_Node@?$_List_nod@NV?$allocator@N@std@@@0@IPAU120@@Z 00470b00 f i Parser.obj
 0001:0006fb90       ??$_Allocate@PAVTransformNode@@@std@@YAPAPAVTransformNode@@IPAPAV1@@Z 00470b90 f i Parser.obj
 0001:0006fc20       ??$_Allocate@PAVLight@@@std@@YAPAPAVLight@@IPAPAV1@@Z 00470c20 f i Parser.obj
 0001:0006fcb0       ??$?0U?$pair@$$CBV?$basic_string@DU?$char_traits@D@std@@V?$allocator@D@2@@std@@PAVTextureMap@@@std@@@?$allocator@U_Node@?$_Tree_nod@V?$_Tmap_traits@V?$basic_string@DU?$char_traits@D@std@@V?$allocator@D@2@@std@@PAVTextureMap@@U?$less@V?$basic_string@DU?$char_traits@D@std@@V?$allocator@D@2@@std@@@2@V?$allocator@U?$pair@$$CBV?$basic_string@DU?$char_traits@D@std@@V?$allocator@D@2@@std@@PAVTextureMap@@@std@@@2@$0A@@std@@@std@@@std@@QAE@ABV?$allocator@U?$pair@$$CBV?$basic_string@DU?$char_traits@D@std@@V?$allocator@D@2@@std@@PAVTextureMap@@@std@@@1@@Z 00470cb0 f i Parser.obj
 0001:0006fce0       ?construct@?$allocator@PAVTransformNode@@@std@@QAEXPAPAVTransformNode@@ABQAV3@@Z 00470ce0 f i Parser.obj
 0001:0006fd30       ?construct@?$allocator@PAVLight@@@std@@QAEXPAPAVLight@@ABQAV3@@Z 00470d30 f i Parser.obj
 0001:0006fd80       ?_Insert@?$_Tree@V?$_Tmap_traits@V?$basic_string@DU?$char_traits@D@std@@V?$allocator@D@2@@std@@VMaterial@@U?$less@V?$basic_string@DU?$char_traits@D@std@@V?$allocator@D@2@@std@@@2@V?$allocator@U?$pair@$$CBV?$basic_string@DU?$char_traits@D@std@@V?$allocator@D@2@@std@@VMaterial@@@std@@@2@$0A@@std@@@std@@QAE?AV?$_Tree_iterator@V?$_Tree_val@V?$_Tmap_traits@V?$basic_string@DU?$char_traits@D@std@@V?$allocator@D@2@@std@@VMaterial@@U?$less@V?$basic_string@DU?$char_traits@D@std@@V?$allocator@D@2@@std@@@2@V?$allocator@U?$pair@$$CBV?$basic_string@DU?$char_traits@D@std@@V?$allocator@D@2@@std@@VMaterial@@@std@@@2@$0A@@std@@@std@@@2@V?$_Tree_const_iterator@V?$_Tree_val@V?$_Tmap_traits@V?$basic_string@DU?$char_traits@D@std@@V?$allocator@D@2@@std@@VMaterial@@U?$less@V?$basic_string@DU?$char_traits@D@std@@V?$allocator@D@2@@std@@@2@V?$allocator@U?$pair@$$CBV?$basic_string@DU?$char_traits@D@std@@V?$allocator@D@2@@std@@VMaterial@@@std@@@2@$0A@@std@@@std@@@2@PAU_Node@?$_Tree_nod@V?$_Tmap_traits@V?$basic_string@DU?$char_traits@D@std@@V?$allocator@D@2@@std@@VMaterial@@U?$less@V?$basic_string@DU?$char_traits@D@std@@V?$allocator@D@2@@std@@@2@V?$allocator@U?$pair@$$CBV?$basic_string@DU?$char_traits@D@std@@V?$allocator@D@2@@std@@VMaterial@@@std@@@2@$0A@@std@@@2@@Z 00470d80 f i Parser.obj
 0001:00070990       ??0?$auto_ptr_ref@VToken@@@std@@QAE@PAVToken@@@Z 00471990 f i Parser.obj
 0001:000709d0       ?_Incsize@?$list@V?$Vec3@N@@V?$allocator@V?$Vec3@N@@@std@@@std@@QAEXI@Z 004719d0 f i Parser.obj
 0001:00070a50       ?destroy@?$allocator@U_Node@?$_List_nod@V?$Vec3@N@@V?$allocator@V?$Vec3@N@@@std@@@std@@@std@@QAEXPAU_Node@?$_List_nod@V?$Vec3@N@@V?$allocator@V?$Vec3@N@@@std@@@2@@Z 00471a50 f i Parser.obj
 0001:00070aa0       ?_Mynode@?$_List_unchecked_const_iterator@V?$_List_val@V?$Vec3@N@@V?$allocator@V?$Vec3@N@@@std@@@std@@U_Iterator_base12@2@@std@@QBEPAU_Node@?$_List_nod@V?$Vec3@N@@V?$allocator@V?$Vec3@N@@@std@@@2@XZ 00471aa0 f i Parser.obj
 0001:00070ad0       ?destroy@?$allocator@U_Node@?$_List_nod@NV?$allocator@N@std@@@std@@@std@@QAEXPAU_Node@?$_List_nod@NV?$allocator@N@std@@@2@@Z 00471ad0 f i Parser.obj
 0001:00070b20       ??1?$pair@V?$_Tree_iterator@V?$_Tree_val@V?$_Tmap_traits@V?$basic_string@DU?$char_traits@D@std@@V?$allocator@D@2@@std@@VMaterial@@U?$less@V?$basic_string@DU?$char_traits@D@std@@V?$allocator@D@2@@std@@@2@V?$allocator@U?$pair@$$CBV?$basic_string@DU?$char_traits@D@std@@V?$allocator@D@2@@std@@VMaterial@@@std@@@2@$0A@@std@@@std@@@std@@_N@std@@QAE@XZ 00471b20 f i Parser.obj
 0001:00070b60       ??1?$_Pair_base@V?$_Tree_iterator@V?$_Tree_val@V?$_Tmap_traits@V?$basic_string@DU?$char_traits@D@std@@V?$allocator@D@2@@std@@VMaterial@@U?$less@V?$basic_string@DU?$char_traits@D@std@@V?$allocator@D@2@@std@@@2@V?$allocator@U?$pair@$$CBV?$basic_string@DU?$char_traits@D@std@@V?$allocator@D@2@@std@@VMaterial@@@std@@@2@$0A@@std@@@std@@@std@@_N@std@@QAE@XZ 00471b60 f i Parser.obj
 0001:00070ba0       ?size@?$_Tree@V?$_Tmap_traits@V?$basic_string@DU?$char_traits@D@std@@V?$allocator@D@2@@std@@VMaterial@@U?$less@V?$basic_string@DU?$char_traits@D@std@@V?$allocator@D@2@@std@@@2@V?$allocator@U?$pair@$$CBV?$basic_string@DU?$char_traits@D@std@@V?$allocator@D@2@@std@@VMaterial@@@std@@@2@$0A@@std@@@std@@QBEIXZ 00471ba0 f i Parser.obj
 0001:00070bd0       ?_Linsert@?$_Tree@V?$_Tmap_traits@V?$basic_string@DU?$char_traits@D@std@@V?$allocator@D@2@@std@@VMaterial@@U?$less@V?$basic_string@DU?$char_traits@D@std@@V?$allocator@D@2@@std@@@2@V?$allocator@U?$pair@$$CBV?$basic_string@DU?$char_traits@D@std@@V?$allocator@D@2@@std@@VMaterial@@@std@@@2@$0A@@std@@@std@@QAE?AU?$pair@V?$_Tree_iterator@V?$_Tree_val@V?$_Tmap_traits@V?$basic_string@DU?$char_traits@D@std@@V?$allocator@D@2@@std@@VMaterial@@U?$less@V?$basic_string@DU?$char_traits@D@std@@V?$allocator@D@2@@std@@@2@V?$allocator@U?$pair@$$CBV?$basic_string@DU?$char_traits@D@std@@V?$allocator@D@2@@std@@VMaterial@@@std@@@2@$0A@@std@@@std@@@std@@_N@2@PAU_Node@?$_Tree_nod@V?$_Tmap_traits@V?$basic_string@DU?$char_traits@D@std@@V?$allocator@D@2@@std@@VMaterial@@U?$less@V?$basic_string@DU?$char_traits@D@std@@V?$allocator@D@2@@std@@@2@V?$allocator@U?$pair@$$CBV?$basic_string@DU?$char_traits@D@std@@V?$allocator@D@2@@std@@VMaterial@@@std@@@2@$0A@@std@@@2@_N@Z 00471bd0 f i Parser.obj
 0001:00071040       ?_Insert@?$_Tree@V?$_Tmap_traits@V?$basic_string@DU?$char_traits@D@std@@V?$allocator@D@2@@std@@VMaterial@@U?$less@V?$basic_string@DU?$char_traits@D@std@@V?$allocator@D@2@@std@@@2@V?$allocator@U?$pair@$$CBV?$basic_string@DU?$char_traits@D@std@@V?$allocator@D@2@@std@@VMaterial@@@std@@@2@$0A@@std@@@std@@IAE?AV?$_Tree_iterator@V?$_Tree_val@V?$_Tmap_traits@V?$basic_string@DU?$char_traits@D@std@@V?$allocator@D@2@@std@@VMaterial@@U?$less@V?$basic_string@DU?$char_traits@D@std@@V?$allocator@D@2@@std@@@2@V?$allocator@U?$pair@$$CBV?$basic_string@DU?$char_traits@D@std@@V?$allocator@D@2@@std@@VMaterial@@@std@@@2@$0A@@std@@@std@@@2@_NPAU_Node@?$_Tree_nod@V?$_Tmap_traits@V?$basic_string@DU?$char_traits@D@std@@V?$allocator@D@2@@std@@VMaterial@@U?$less@V?$basic_string@DU?$char_traits@D@std@@V?$allocator@D@2@@std@@@2@V?$allocator@U?$pair@$$CBV?$basic_string@DU?$char_traits@D@std@@V?$allocator@D@2@@std@@VMaterial@@@std@@@2@$0A@@std@@@2@1@Z 00472040 f i Parser.obj
 0001:000714c0       ?max_size@?$list@V?$Vec3@N@@V?$allocator@V?$Vec3@N@@@std@@@std@@QBEIXZ 004724c0 f i Parser.obj
 0001:00071510       ??0?$_Tree_const_iterator@V?$_Tree_val@V?$_Tmap_traits@V?$basic_string@DU?$char_traits@D@std@@V?$allocator@D@2@@std@@VMaterial@@U?$less@V?$basic_string@DU?$char_traits@D@std@@V?$allocator@D@2@@std@@@2@V?$allocator@U?$pair@$$CBV?$basic_string@DU?$char_traits@D@std@@V?$allocator@D@2@@std@@VMaterial@@@std@@@2@$0A@@std@@@std@@@std@@QAE@XZ 00472510 f i Parser.obj
 0001:00071560       ??F?$_Tree_const_iterator@V?$_Tree_val@V?$_Tmap_traits@V?$basic_string@DU?$char_traits@D@std@@V?$allocator@D@2@@std@@VMaterial@@U?$less@V?$basic_string@DU?$char_traits@D@std@@V?$allocator@D@2@@std@@@2@V?$allocator@U?$pair@$$CBV?$basic_string@DU?$char_traits@D@std@@V?$allocator@D@2@@std@@VMaterial@@@std@@@2@$0A@@std@@@std@@@std@@QAEAAV01@XZ 00472560 f i Parser.obj
 0001:000716e0       ?max_size@?$_Tree@V?$_Tmap_traits@V?$basic_string@DU?$char_traits@D@std@@V?$allocator@D@2@@std@@VMaterial@@U?$less@V?$basic_string@DU?$char_traits@D@std@@V?$allocator@D@2@@std@@@2@V?$allocator@U?$pair@$$CBV?$basic_string@DU?$char_traits@D@std@@V?$allocator@D@2@@std@@VMaterial@@@std@@@2@$0A@@std@@@std@@QBEIXZ 004726e0 f i Parser.obj
 0001:00071730       ??F?$_Tree_iterator@V?$_Tree_val@V?$_Tmap_traits@V?$basic_string@DU?$char_traits@D@std@@V?$allocator@D@2@@std@@VMaterial@@U?$less@V?$basic_string@DU?$char_traits@D@std@@V?$allocator@D@2@@std@@@2@V?$allocator@U?$pair@$$CBV?$basic_string@DU?$char_traits@D@std@@V?$allocator@D@2@@std@@VMaterial@@@std@@@2@$0A@@std@@@std@@@std@@QAEAAV01@XZ 00472730 f i Parser.obj
 0001:00071780       ??0?$_Tree_unchecked_const_iterator@V?$_Tree_val@V?$_Tmap_traits@V?$basic_string@DU?$char_traits@D@std@@V?$allocator@D@2@@std@@VMaterial@@U?$less@V?$basic_string@DU?$char_traits@D@std@@V?$allocator@D@2@@std@@@2@V?$allocator@U?$pair@$$CBV?$basic_string@DU?$char_traits@D@std@@V?$allocator@D@2@@std@@VMaterial@@@std@@@2@$0A@@std@@@std@@U_Iterator_base12@2@@std@@QAE@XZ 00472780 f i Parser.obj
 0001:000717d0       ??F?$_Tree_unchecked_const_iterator@V?$_Tree_val@V?$_Tmap_traits@V?$basic_string@DU?$char_traits@D@std@@V?$allocator@D@2@@std@@VMaterial@@U?$less@V?$basic_string@DU?$char_traits@D@std@@V?$allocator@D@2@@std@@@2@V?$allocator@U?$pair@$$CBV?$basic_string@DU?$char_traits@D@std@@V?$allocator@D@2@@std@@VMaterial@@@std@@@2@$0A@@std@@@std@@U_Iterator_base12@2@@std@@QAEAAV01@XZ 004727d0 f i Parser.obj
 0001:000718f0       ??0?$pair@V?$_Tree_iterator@V?$_Tree_val@V?$_Tmap_traits@V?$basic_string@DU?$char_traits@D@std@@V?$allocator@D@2@@std@@VMaterial@@U?$less@V?$basic_string@DU?$char_traits@D@std@@V?$allocator@D@2@@std@@@2@V?$allocator@U?$pair@$$CBV?$basic_string@DU?$char_traits@D@std@@V?$allocator@D@2@@std@@VMaterial@@@std@@@2@$0A@@std@@@std@@@std@@_N@std@@QAE@$$QAV?$_Tree_iterator@V?$_Tree_val@V?$_Tmap_traits@V?$basic_string@DU?$char_traits@D@std@@V?$allocator@D@2@@std@@VMaterial@@U?$less@V?$basic_string@DU?$char_traits@D@std@@V?$allocator@D@2@@std@@@2@V?$allocator@U?$pair@$$CBV?$basic_string@DU?$char_traits@D@std@@V?$allocator@D@2@@std@@VMaterial@@@std@@@2@$0A@@std@@@std@@@1@$$QA_N@Z 004728f0 f i Parser.obj
 0001:00071950       ?max_size@?$allocator@U?$pair@$$CBV?$basic_string@DU?$char_traits@D@std@@V?$allocator@D@2@@std@@VMaterial@@@std@@@std@@QBEIXZ 00472950 f i Parser.obj
 0001:000719b0       ??0?$_Pair_base@V?$_Tree_iterator@V?$_Tree_val@V?$_Tmap_traits@V?$basic_string@DU?$char_traits@D@std@@V?$allocator@D@2@@std@@VMaterial@@U?$less@V?$basic_string@DU?$char_traits@D@std@@V?$allocator@D@2@@std@@@2@V?$allocator@U?$pair@$$CBV?$basic_string@DU?$char_traits@D@std@@V?$allocator@D@2@@std@@VMaterial@@@std@@@2@$0A@@std@@@std@@@std@@_N@std@@QAE@$$QAV?$_Tree_iterator@V?$_Tree_val@V?$_Tmap_traits@V?$basic_string@DU?$char_traits@D@std@@V?$allocator@D@2@@std@@VMaterial@@U?$less@V?$basic_string@DU?$char_traits@D@std@@V?$allocator@D@2@@std@@@2@V?$allocator@U?$pair@$$CBV?$basic_string@DU?$char_traits@D@std@@V?$allocator@D@2@@std@@VMaterial@@@std@@@2@$0A@@std@@@std@@@1@$$QA_N@Z 004729b0 f i Parser.obj
 0001:00071a50       ??$_Move@AAN@std@@YA$$QANAAN@Z 00472a50 f i Parser.obj
 0001:00071a80       ??$forward@AAPAVTransformNode@@@std@@YAAAPAVTransformNode@@AAPAV1@@Z 00472a80 f i Parser.obj
 0001:00071ab0       ??$construct@AAPAVTransformNode@@@?$allocator@PAVTransformNode@@@std@@QAEXPAPAVTransformNode@@AAPAV2@@Z 00472ab0 f i Parser.obj
 0001:00071b80       ??$forward@ABQAVTransformNode@@@std@@YAABQAVTransformNode@@ABQAV1@@Z 00472b80 f i Parser.obj
 0001:00071bb0       ??$forward@AAPAVLight@@@std@@YAAAPAVLight@@AAPAV1@@Z 00472bb0 f i Parser.obj
 0001:00071be0       ??$construct@AAPAVLight@@@?$allocator@PAVLight@@@std@@QAEXPAPAVLight@@AAPAV2@@Z 00472be0 f i Parser.obj
 0001:00071cb0       ??$forward@ABQAVLight@@@std@@YAABQAVLight@@ABQAV1@@Z 00472cb0 f i Parser.obj
 0001:00071ce0       ??$forward@U?$pair@V?$basic_string@DU?$char_traits@D@std@@V?$allocator@D@2@@std@@VMaterial@@@std@@@std@@YA$$QAU?$pair@V?$basic_string@DU?$char_traits@D@std@@V?$allocator@D@2@@std@@VMaterial@@@0@AAU10@@Z 00472ce0 f i Parser.obj
 0001:00071d10       ??$_Buynode@U?$pair@V?$basic_string@DU?$char_traits@D@std@@V?$allocator@D@2@@std@@VMaterial@@@std@@@?$_Tree_val@V?$_Tmap_traits@V?$basic_string@DU?$char_traits@D@std@@V?$allocator@D@2@@std@@VMaterial@@U?$less@V?$basic_string@DU?$char_traits@D@std@@V?$allocator@D@2@@std@@@2@V?$allocator@U?$pair@$$CBV?$basic_string@DU?$char_traits@D@std@@V?$allocator@D@2@@std@@VMaterial@@@std@@@2@$0A@@std@@@std@@QAEPAU_Node@?$_Tree_nod@V?$_Tmap_traits@V?$basic_string@DU?$char_traits@D@std@@V?$allocator@D@2@@std@@VMaterial@@U?$less@V?$basic_string@DU?$char_traits@D@std@@V?$allocator@D@2@@std@@@2@V?$allocator@U?$pair@$$CBV?$basic_string@DU?$char_traits@D@std@@V?$allocator@D@2@@std@@VMaterial@@@std@@@2@$0A@@std@@@1@$$QAU?$pair@V?$basic_string@DU?$char_traits@D@std@@V?$allocator@D@2@@std@@VMaterial@@@1@@Z 00472d10 f i Parser.obj
 0001:00071e20       ??$forward@U?$pair@$$CBV?$basic_string@DU?$char_traits@D@std@@V?$allocator@D@2@@std@@VMaterial@@@std@@@std@@YA$$QAU?$pair@$$CBV?$basic_string@DU?$char_traits@D@std@@V?$allocator@D@2@@std@@VMaterial@@@0@AAU10@@Z 00472e20 f i Parser.obj
 0001:00071e50       ??$_Buynode@U?$pair@$$CBV?$basic_string@DU?$char_traits@D@std@@V?$allocator@D@2@@std@@VMaterial@@@std@@@?$_Tree_val@V?$_Tmap_traits@V?$basic_string@DU?$char_traits@D@std@@V?$allocator@D@2@@std@@VMaterial@@U?$less@V?$basic_string@DU?$char_traits@D@std@@V?$allocator@D@2@@std@@@2@V?$allocator@U?$pair@$$CBV?$basic_string@DU?$char_traits@D@std@@V?$allocator@D@2@@std@@VMaterial@@@std@@@2@$0A@@std@@@std@@QAEPAU_Node@?$_Tree_nod@V?$_Tmap_traits@V?$basic_string@DU?$char_traits@D@std@@V?$allocator@D@2@@std@@VMaterial@@U?$less@V?$basic_string@DU?$char_traits@D@std@@V?$allocator@D@2@@std@@@2@V?$allocator@U?$pair@$$CBV?$basic_string@DU?$char_traits@D@std@@V?$allocator@D@2@@std@@VMaterial@@@std@@@2@$0A@@std@@@1@$$QAU?$pair@$$CBV?$basic_string@DU?$char_traits@D@std@@V?$allocator@D@2@@std@@VMaterial@@@1@@Z 00472e50 f i Parser.obj
 0001:00071f60       ??$_Buynode@V?$Vec3@N@@@?$_List_val@V?$Vec3@N@@V?$allocator@V?$Vec3@N@@@std@@@std@@QAEPAU_Node@?$_List_nod@V?$Vec3@N@@V?$allocator@V?$Vec3@N@@@std@@@1@PAU231@0$$QAV?$Vec3@N@@@Z 00472f60 f i Parser.obj
 0001:000720b0       ??$_Buynode@N@?$_List_val@NV?$allocator@N@std@@@std@@QAEPAU_Node@?$_List_nod@NV?$allocator@N@std@@@1@PAU231@0$$QAN@Z 004730b0 f i Parser.obj
 0001:00072200       ??$_Uninitialized_move@PAPAVTransformNode@@PAPAV1@V?$allocator@PAVTransformNode@@@std@@@std@@YAPAPAVTransformNode@@PAPAV1@00AAV?$allocator@PAVTransformNode@@@0@@Z 00473200 f i Parser.obj
 0001:00072280       ??$_Uninitialized_move@PAPAVLight@@PAPAV1@V?$allocator@PAVLight@@@std@@@std@@YAPAPAVLight@@PAPAV1@00AAV?$allocator@PAVLight@@@0@@Z 00473280 f i Parser.obj
 0001:00072300       ??$emplace@N@?$list@NV?$allocator@N@std@@@std@@QAE?AV?$_List_iterator@V?$_List_val@NV?$allocator@N@std@@@std@@@1@V?$_List_const_iterator@V?$_List_val@NV?$allocator@N@std@@@std@@@1@$$QAN@Z 00473300 f i Parser.obj
 0001:00072400       ??$_Construct@PAVTransformNode@@ABQAV1@@std@@YAXPAPAVTransformNode@@ABQAV1@@Z 00473400 f i Parser.obj
 0001:000724d0       ??$_Construct@PAVLight@@ABQAV1@@std@@YAXPAPAVLight@@ABQAV1@@Z 004734d0 f i Parser.obj
 0001:000725a0       ??$_Destroy@U_Node@?$_List_nod@V?$Vec3@N@@V?$allocator@V?$Vec3@N@@@std@@@std@@@std@@YAXPAU_Node@?$_List_nod@V?$Vec3@N@@V?$allocator@V?$Vec3@N@@@std@@@0@@Z 004735a0 f i Parser.obj
 0001:000725d0       ??$_Destroy@U_Node@?$_List_nod@NV?$allocator@N@std@@@std@@@std@@YAXPAU_Node@?$_List_nod@NV?$allocator@N@std@@@0@@Z 004735d0 f i Parser.obj
 0001:00072600       ??$?0AAV?$_Tree_iterator@V?$_Tree_val@V?$_Tmap_traits@V?$basic_string@DU?$char_traits@D@std@@V?$allocator@D@2@@std@@VMaterial@@U?$less@V?$basic_string@DU?$char_traits@D@std@@V?$allocator@D@2@@std@@@2@V?$allocator@U?$pair@$$CBV?$basic_string@DU?$char_traits@D@std@@V?$allocator@D@2@@std@@VMaterial@@@std@@@2@$0A@@std@@@std@@@std@@_N@?$pair@V?$_Tree_iterator@V?$_Tree_val@V?$_Tmap_traits@V?$basic_string@DU?$char_traits@D@std@@V?$allocator@D@2@@std@@VMaterial@@U?$less@V?$basic_string@DU?$char_traits@D@std@@V?$allocator@D@2@@std@@@2@V?$allocator@U?$pair@$$CBV?$basic_string@DU?$char_traits@D@std@@V?$allocator@D@2@@std@@VMaterial@@@std@@@2@$0A@@std@@@std@@@std@@_N@std@@QAE@AAV?$_Tree_iterator@V?$_Tree_val@V?$_Tmap_traits@V?$basic_string@DU?$char_traits@D@std@@V?$allocator@D@2@@std@@VMaterial@@U?$less@V?$basic_string@DU?$char_traits@D@std@@V?$allocator@D@2@@std@@@2@V?$allocator@U?$pair@$$CBV?$basic_string@DU?$char_traits@D@std@@V?$allocator@D@2@@std@@VMaterial@@@std@@@2@$0A@@std@@@std@@@1@$$QA_N@Z 00473600 f i Parser.obj
 0001:00072660       ??$move@AAV?$_Tree_iterator@V?$_Tree_val@V?$_Tmap_traits@V?$basic_string@DU?$char_traits@D@std@@V?$allocator@D@2@@std@@VMaterial@@U?$less@V?$basic_string@DU?$char_traits@D@std@@V?$allocator@D@2@@std@@@2@V?$allocator@U?$pair@$$CBV?$basic_string@DU?$char_traits@D@std@@V?$allocator@D@2@@std@@VMaterial@@@std@@@2@$0A@@std@@@std@@@std@@@std@@YA$$QAV?$_Tree_iterator@V?$_Tree_val@V?$_Tmap_traits@V?$basic_string@DU?$char_traits@D@std@@V?$allocator@D@2@@std@@VMaterial@@U?$less@V?$basic_string@DU?$char_traits@D@std@@V?$allocator@D@2@@std@@@2@V?$allocator@U?$pair@$$CBV?$basic_string@DU?$char_traits@D@std@@V?$allocator@D@2@@std@@VMaterial@@@std@@@2@$0A@@std@@@std@@@0@AAV10@@Z 00473660 f i Parser.obj
 0001:00072690       ?_Buynode@?$_Tree_val@V?$_Tmap_traits@V?$basic_string@DU?$char_traits@D@std@@V?$allocator@D@2@@std@@VMaterial@@U?$less@V?$basic_string@DU?$char_traits@D@std@@V?$allocator@D@2@@std@@@2@V?$allocator@U?$pair@$$CBV?$basic_string@DU?$char_traits@D@std@@V?$allocator@D@2@@std@@VMaterial@@@std@@@2@$0A@@std@@@std@@QAEPAU_Node@?$_Tree_nod@V?$_Tmap_traits@V?$basic_string@DU?$char_traits@D@std@@V?$allocator@D@2@@std@@VMaterial@@U?$less@V?$basic_string@DU?$char_traits@D@std@@V?$allocator@D@2@@std@@@2@V?$allocator@U?$pair@$$CBV?$basic_string@DU?$char_traits@D@std@@V?$allocator@D@2@@std@@VMaterial@@@std@@@2@$0A@@std@@@2@XZ 00473690 f i Parser.obj
 0001:00072740       ??F?$_List_const_iterator@V?$_List_val@NV?$allocator@N@std@@@std@@@std@@QAEAAV01@XZ 00473740 f i Parser.obj
 0001:00072840       ??$_Cons_val@V?$allocator@U?$pair@$$CBV?$basic_string@DU?$char_traits@D@std@@V?$allocator@D@2@@std@@VMaterial@@@std@@@std@@U?$pair@$$CBV?$basic_string@DU?$char_traits@D@std@@V?$allocator@D@2@@std@@VMaterial@@@2@U?$pair@V?$basic_string@DU?$char_traits@D@std@@V?$allocator@D@2@@std@@VMaterial@@@2@@std@@YAXAAV?$allocator@U?$pair@$$CBV?$basic_string@DU?$char_traits@D@std@@V?$allocator@D@2@@std@@VMaterial@@@std@@@0@PAU?$pair@$$CBV?$basic_string@DU?$char_traits@D@std@@V?$allocator@D@2@@std@@VMaterial@@@0@$$QAU?$pair@V?$basic_string@DU?$char_traits@D@std@@V?$allocator@D@2@@std@@VMaterial@@@0@@Z 00473840 f i Parser.obj
 0001:00072890       ??$_Cons_val@V?$allocator@U?$pair@$$CBV?$basic_string@DU?$char_traits@D@std@@V?$allocator@D@2@@std@@VMaterial@@@std@@@std@@U?$pair@$$CBV?$basic_string@DU?$char_traits@D@std@@V?$allocator@D@2@@std@@VMaterial@@@2@U32@@std@@YAXAAV?$allocator@U?$pair@$$CBV?$basic_string@DU?$char_traits@D@std@@V?$allocator@D@2@@std@@VMaterial@@@std@@@0@PAU?$pair@$$CBV?$basic_string@DU?$char_traits@D@std@@V?$allocator@D@2@@std@@VMaterial@@@0@$$QAU20@@Z 00473890 f i Parser.obj
 0001:000728e0       ??$addressof@V?$Vec3@N@@@std@@YAPAV?$Vec3@N@@AAV1@@Z 004738e0 f i Parser.obj
 0001:00072910       ??$addressof@N@std@@YAPANAAN@Z 00473910 f i Parser.obj
 0001:00072940       ??$_Cons_val@V?$allocator@N@std@@NN@std@@YAXAAV?$allocator@N@0@PAN$$QAN@Z 00473940 f i Parser.obj
 0001:00072990       ??$_Val_type@PAPAVTransformNode@@@std@@YAPAPAVTransformNode@@PAPAV1@@Z 00473990 f i Parser.obj
 0001:000729c0       ??$_Uninit_move@PAVTransformNode@@PAV1@PAV1@@std@@YAPAPAVTransformNode@@PAPAV1@00AAV?$allocator@PAVTransformNode@@@0@0U_Scalar_ptr_iterator_tag@0@@Z 004739c0 f i Parser.obj
 0001:00072a60       ??$_Val_type@PAPAVLight@@@std@@YAPAPAVLight@@PAPAV1@@Z 00473a60 f i Parser.obj
 0001:00072a90       ??$_Uninit_move@PAVLight@@PAV1@PAV1@@std@@YAPAPAVLight@@PAPAV1@00AAV?$allocator@PAVLight@@@0@0U_Scalar_ptr_iterator_tag@0@@Z 00473a90 f i Parser.obj
 0001:00072b30       ??$forward@AAV?$_Tree_iterator@V?$_Tree_val@V?$_Tmap_traits@V?$basic_string@DU?$char_traits@D@std@@V?$allocator@D@2@@std@@VMaterial@@U?$less@V?$basic_string@DU?$char_traits@D@std@@V?$allocator@D@2@@std@@@2@V?$allocator@U?$pair@$$CBV?$basic_string@DU?$char_traits@D@std@@V?$allocator@D@2@@std@@VMaterial@@@std@@@2@$0A@@std@@@std@@@std@@@std@@YAAAV?$_Tree_iterator@V?$_Tree_val@V?$_Tmap_traits@V?$basic_string@DU?$char_traits@D@std@@V?$allocator@D@2@@std@@VMaterial@@U?$less@V?$basic_string@DU?$char_traits@D@std@@V?$allocator@D@2@@std@@@2@V?$allocator@U?$pair@$$CBV?$basic_string@DU?$char_traits@D@std@@V?$allocator@D@2@@std@@VMaterial@@@std@@@2@$0A@@std@@@std@@@0@AAV10@@Z 00473b30 f i Parser.obj
 0001:00072b60       ??$?0AAV?$_Tree_iterator@V?$_Tree_val@V?$_Tmap_traits@V?$basic_string@DU?$char_traits@D@std@@V?$allocator@D@2@@std@@VMaterial@@U?$less@V?$basic_string@DU?$char_traits@D@std@@V?$allocator@D@2@@std@@@2@V?$allocator@U?$pair@$$CBV?$basic_string@DU?$char_traits@D@std@@V?$allocator@D@2@@std@@VMaterial@@@std@@@2@$0A@@std@@@std@@@std@@_N@?$_Pair_base@V?$_Tree_iterator@V?$_Tree_val@V?$_Tmap_traits@V?$basic_string@DU?$char_traits@D@std@@V?$allocator@D@2@@std@@VMaterial@@U?$less@V?$basic_string@DU?$char_traits@D@std@@V?$allocator@D@2@@std@@@2@V?$allocator@U?$pair@$$CBV?$basic_string@DU?$char_traits@D@std@@V?$allocator@D@2@@std@@VMaterial@@@std@@@2@$0A@@std@@@std@@@std@@_N@std@@QAE@AAV?$_Tree_iterator@V?$_Tree_val@V?$_Tmap_traits@V?$basic_string@DU?$char_traits@D@std@@V?$allocator@D@2@@std@@VMaterial@@U?$less@V?$basic_string@DU?$char_traits@D@std@@V?$allocator@D@2@@std@@@2@V?$allocator@U?$pair@$$CBV?$basic_string@DU?$char_traits@D@std@@V?$allocator@D@2@@std@@VMaterial@@@std@@@2@$0A@@std@@@std@@@1@$$QA_N@Z 00473b60 f i Parser.obj
 0001:00072c00       ?construct@?$allocator@U?$pair@$$CBV?$basic_string@DU?$char_traits@D@std@@V?$allocator@D@2@@std@@VMaterial@@@std@@@std@@QAEXPAU?$pair@$$CBV?$basic_string@DU?$char_traits@D@std@@V?$allocator@D@2@@std@@VMaterial@@@2@$$QAU32@@Z 00473c00 f i Parser.obj
 0001:00072cd0       ?construct@?$allocator@N@std@@QAEXPAN$$QAN@Z 00473cd0 f i Parser.obj
 0001:00072da0       ??$construct@U?$pair@V?$basic_string@DU?$char_traits@D@std@@V?$allocator@D@2@@std@@VMaterial@@@std@@@?$allocator@U?$pair@$$CBV?$basic_string@DU?$char_traits@D@std@@V?$allocator@D@2@@std@@VMaterial@@@std@@@std@@QAEXPAU?$pair@$$CBV?$basic_string@DU?$char_traits@D@std@@V?$allocator@D@2@@std@@VMaterial@@@1@$$QAU?$pair@V?$basic_string@DU?$char_traits@D@std@@V?$allocator@D@2@@std@@VMaterial@@@1@@Z 00473da0 f i Parser.obj
 0001:00072e70       ??$_Debug_range@PAPAVTransformNode@@@std@@YAXPAPAVTransformNode@@0PB_WI@Z 00473e70 f i Parser.obj
 0001:00072ee0       ??$_Debug_pointer@PAVTransformNode@@@std@@YAXPAPAVTransformNode@@PB_WI@Z 00473ee0 f i Parser.obj
 0001:00072f40       ??$_Debug_range@PAPAVLight@@@std@@YAXPAPAVLight@@0PB_WI@Z 00473f40 f i Parser.obj
 0001:00072fb0       ??$_Debug_pointer@PAVLight@@@std@@YAXPAPAVLight@@PB_WI@Z 00473fb0 f i Parser.obj
 0001:00073010       ??$?0$$CBV?$basic_string@DU?$char_traits@D@std@@V?$allocator@D@2@@std@@VMaterial@@@?$pair@$$CBV?$basic_string@DU?$char_traits@D@std@@V?$allocator@D@2@@std@@VMaterial@@@std@@QAE@$$QAU01@@Z 00474010 f i Parser.obj
 0001:00073080       ??0?$_Pair_base@$$CBV?$basic_string@DU?$char_traits@D@std@@V?$allocator@D@2@@std@@VMaterial@@@std@@QAE@$$QBV?$basic_string@DU?$char_traits@D@std@@V?$allocator@D@2@@1@$$QAVMaterial@@@Z 00474080 f i Parser.obj
 0001:00073130       ??$?0V?$basic_string@DU?$char_traits@D@std@@V?$allocator@D@2@@std@@VMaterial@@@?$pair@$$CBV?$basic_string@DU?$char_traits@D@std@@V?$allocator@D@2@@std@@VMaterial@@@std@@QAE@$$QAU?$pair@V?$basic_string@DU?$char_traits@D@std@@V?$allocator@D@2@@std@@VMaterial@@@1@@Z 00474130 f i Parser.obj
 0001:000731a0       ??$_Iter_cat@PAPAVTransformNode@@@std@@YA?AUrandom_access_iterator_tag@0@ABQAPAVTransformNode@@@Z 004741a0 f i Parser.obj
 0001:00073200       ??$_Debug_range2@PAPAVTransformNode@@@std@@YAXPAPAVTransformNode@@0PB_WIUrandom_access_iterator_tag@0@@Z 00474200 f i Parser.obj
 0001:00073290       ??$_Iter_cat@PAPAVLight@@@std@@YA?AUrandom_access_iterator_tag@0@ABQAPAVLight@@@Z 00474290 f i Parser.obj
 0001:000732f0       ??$_Debug_range2@PAPAVLight@@@std@@YAXPAPAVLight@@0PB_WIUrandom_access_iterator_tag@0@@Z 004742f0 f i Parser.obj
 0001:00073380       ??$forward@VMaterial@@@std@@YA$$QAVMaterial@@AAV1@@Z 00474380 f i Parser.obj
 0001:000733b0       ??$?0V?$basic_string@DU?$char_traits@D@std@@V?$allocator@D@2@@std@@VMaterial@@@?$_Pair_base@$$CBV?$basic_string@DU?$char_traits@D@std@@V?$allocator@D@2@@std@@VMaterial@@@std@@QAE@$$QAV?$basic_string@DU?$char_traits@D@std@@V?$allocator@D@2@@1@$$QAVMaterial@@@Z 004743b0 f i Parser.obj
 0001:00073460       ??0SyntaxErrorException@@QAE@ABV?$basic_string@DU?$char_traits@D@std@@V?$allocator@D@2@@std@@ABVTokenizer@@@Z 00474460 f   ParserException.obj
 0001:00073690       ?PrintLine@Tokenizer@@QBEXAAV?$basic_ostream@DU?$char_traits@D@std@@@std@@@Z 00474690 f i ParserException.obj
 0001:000736e0       ?CurColumn@Tokenizer@@QBEHXZ 004746e0 f i ParserException.obj
 0001:00073710       ?CurLine@Tokenizer@@QBEHXZ 00474710 f i ParserException.obj
 0001:00073750       ?CurLine@Buffer@@QBEHXZ    00474750 f i ParserException.obj
 0001:00073780       ?getNameForToken@@YA?AV?$basic_string@DU?$char_traits@D@std@@V?$allocator@D@2@@std@@W4SYMBOL@@@Z 00474780 f   Token.obj
 0001:00074250       ??1?$map@HV?$basic_string@DU?$char_traits@D@std@@V?$allocator@D@2@@std@@U?$less@H@2@V?$allocator@U?$pair@$$CBHV?$basic_string@DU?$char_traits@D@std@@V?$allocator@D@2@@std@@@std@@@2@@std@@QAE@XZ 00475250 f i Token.obj
 0001:00074290       ??1?$_Tree_iterator@V?$_Tree_val@V?$_Tmap_traits@HV?$basic_string@DU?$char_traits@D@std@@V?$allocator@D@2@@std@@U?$less@H@2@V?$allocator@U?$pair@$$CBHV?$basic_string@DU?$char_traits@D@std@@V?$allocator@D@2@@std@@@std@@@2@$0A@@std@@@std@@@std@@QAE@XZ 00475290 f i Token.obj
 0001:000742d0       ??0?$_Tree_const_iterator@V?$_Tree_val@V?$_Tmap_traits@HV?$basic_string@DU?$char_traits@D@std@@V?$allocator@D@2@@std@@U?$less@H@2@V?$allocator@U?$pair@$$CBHV?$basic_string@DU?$char_traits@D@std@@V?$allocator@D@2@@std@@@std@@@2@$0A@@std@@@std@@@std@@QAE@ABV01@@Z 004752d0 f i Token.obj
 0001:00074320       ??1?$_Tree_const_iterator@V?$_Tree_val@V?$_Tmap_traits@HV?$basic_string@DU?$char_traits@D@std@@V?$allocator@D@2@@std@@U?$less@H@2@V?$allocator@U?$pair@$$CBHV?$basic_string@DU?$char_traits@D@std@@V?$allocator@D@2@@std@@@std@@@2@$0A@@std@@@std@@@std@@QAE@XZ 00475320 f i Token.obj
 0001:00074360       ??0?$_Tree_unchecked_const_iterator@V?$_Tree_val@V?$_Tmap_traits@HV?$basic_string@DU?$char_traits@D@std@@V?$allocator@D@2@@std@@U?$less@H@2@V?$allocator@U?$pair@$$CBHV?$basic_string@DU?$char_traits@D@std@@V?$allocator@D@2@@std@@@std@@@2@$0A@@std@@@std@@U_Iterator_base12@2@@std@@QAE@ABV01@@Z 00475360 f i Token.obj
 0001:000743c0       ??1?$_Tree_unchecked_const_iterator@V?$_Tree_val@V?$_Tmap_traits@HV?$basic_string@DU?$char_traits@D@std@@V?$allocator@D@2@@std@@U?$less@H@2@V?$allocator@U?$pair@$$CBHV?$basic_string@DU?$char_traits@D@std@@V?$allocator@D@2@@std@@@std@@@2@$0A@@std@@@std@@U_Iterator_base12@2@@std@@QAE@XZ 004753c0 f i Token.obj
 0001:00074400       ??0?$_Iterator012@Ubidirectional_iterator_tag@std@@U?$pair@$$CBHV?$basic_string@DU?$char_traits@D@std@@V?$allocator@D@2@@std@@@2@HPBU32@ABU32@U_Iterator_base12@2@@std@@QAE@ABU01@@Z 00475400 f i Token.obj
 0001:00074450       ??1?$_Iterator012@Ubidirectional_iterator_tag@std@@U?$pair@$$CBHV?$basic_string@DU?$char_traits@D@std@@V?$allocator@D@2@@std@@@2@HPBU32@ABU32@U_Iterator_base12@2@@std@@QAE@XZ 00475450 f i Token.obj
 0001:00074490       ?lookupReservedWord@@YA?AW4SYMBOL@@ABV?$basic_string@DU?$char_traits@D@std@@V?$allocator@D@2@@std@@@Z 00475490 f   Token.obj
 0001:00075330       ??1?$map@V?$basic_string@DU?$char_traits@D@std@@V?$allocator@D@2@@std@@W4SYMBOL@@U?$less@V?$basic_string@DU?$char_traits@D@std@@V?$allocator@D@2@@std@@@2@V?$allocator@U?$pair@$$CBV?$basic_string@DU?$char_traits@D@std@@V?$allocator@D@2@@std@@W4SYMBOL@@@std@@@2@@std@@QAE@XZ 00476330 f i Token.obj
 0001:00075370       ??1?$_Tree_iterator@V?$_Tree_val@V?$_Tmap_traits@V?$basic_string@DU?$char_traits@D@std@@V?$allocator@D@2@@std@@W4SYMBOL@@U?$less@V?$basic_string@DU?$char_traits@D@std@@V?$allocator@D@2@@std@@@2@V?$allocator@U?$pair@$$CBV?$basic_string@DU?$char_traits@D@std@@V?$allocator@D@2@@std@@W4SYMBOL@@@std@@@2@$0A@@std@@@std@@@std@@QAE@XZ 00476370 f i Token.obj
 0001:000753b0       ??0?$_Tree_const_iterator@V?$_Tree_val@V?$_Tmap_traits@V?$basic_string@DU?$char_traits@D@std@@V?$allocator@D@2@@std@@W4SYMBOL@@U?$less@V?$basic_string@DU?$char_traits@D@std@@V?$allocator@D@2@@std@@@2@V?$allocator@U?$pair@$$CBV?$basic_string@DU?$char_traits@D@std@@V?$allocator@D@2@@std@@W4SYMBOL@@@std@@@2@$0A@@std@@@std@@@std@@QAE@ABV01@@Z 004763b0 f i Token.obj
 0001:00075400       ??1?$_Tree_const_iterator@V?$_Tree_val@V?$_Tmap_traits@V?$basic_string@DU?$char_traits@D@std@@V?$allocator@D@2@@std@@W4SYMBOL@@U?$less@V?$basic_string@DU?$char_traits@D@std@@V?$allocator@D@2@@std@@@2@V?$allocator@U?$pair@$$CBV?$basic_string@DU?$char_traits@D@std@@V?$allocator@D@2@@std@@W4SYMBOL@@@std@@@2@$0A@@std@@@std@@@std@@QAE@XZ 00476400 f i Token.obj
 0001:00075440       ??0?$_Tree_unchecked_const_iterator@V?$_Tree_val@V?$_Tmap_traits@V?$basic_string@DU?$char_traits@D@std@@V?$allocator@D@2@@std@@W4SYMBOL@@U?$less@V?$basic_string@DU?$char_traits@D@std@@V?$allocator@D@2@@std@@@2@V?$allocator@U?$pair@$$CBV?$basic_string@DU?$char_traits@D@std@@V?$allocator@D@2@@std@@W4SYMBOL@@@std@@@2@$0A@@std@@@std@@U_Iterator_base12@2@@std@@QAE@ABV01@@Z 00476440 f i Token.obj
 0001:000754a0       ??1?$_Tree_unchecked_const_iterator@V?$_Tree_val@V?$_Tmap_traits@V?$basic_string@DU?$char_traits@D@std@@V?$allocator@D@2@@std@@W4SYMBOL@@U?$less@V?$basic_string@DU?$char_traits@D@std@@V?$allocator@D@2@@std@@@2@V?$allocator@U?$pair@$$CBV?$basic_string@DU?$char_traits@D@std@@V?$allocator@D@2@@std@@W4SYMBOL@@@std@@@2@$0A@@std@@@std@@U_Iterator_base12@2@@std@@QAE@XZ 004764a0 f i Token.obj
 0001:000754e0       ??0?$_Iterator012@Ubidirectional_iterator_tag@std@@U?$pair@$$CBV?$basic_string@DU?$char_traits@D@std@@V?$allocator@D@2@@std@@W4SYMBOL@@@2@HPBU32@ABU32@U_Iterator_base12@2@@std@@QAE@ABU01@@Z 004764e0 f i Token.obj
 0001:00075530       ??1?$_Iterator012@Ubidirectional_iterator_tag@std@@U?$pair@$$CBV?$basic_string@DU?$char_traits@D@std@@V?$allocator@D@2@@std@@W4SYMBOL@@@2@HPBU32@ABU32@U_Iterator_base12@2@@std@@QAE@XZ 00476530 f i Token.obj
 0001:00075570       ?toString@Token@@UBE?AV?$basic_string@DU?$char_traits@D@std@@V?$allocator@D@2@@std@@XZ 00476570 f   Token.obj
 0001:000755e0       ?Print@Token@@UBEXAAV?$basic_ostream@DU?$char_traits@D@std@@@std@@@Z 004765e0 f   Token.obj
 0001:000756b0       ?Print@Token@@UBEXXZ       004766b0 f   Token.obj
 0001:00075710       ?toString@IdentToken@@UBE?AV?$basic_string@DU?$char_traits@D@std@@V?$allocator@D@2@@std@@XZ 00476710 f   Token.obj
 0001:00075870       ?toString@ScalarToken@@UBE?AV?$basic_string@DU?$char_traits@D@std@@V?$allocator@D@2@@std@@XZ 00476870 f   Token.obj
 0001:000759d0       ??0?$map@HV?$basic_string@DU?$char_traits@D@std@@V?$allocator@D@2@@std@@U?$less@H@2@V?$allocator@U?$pair@$$CBHV?$basic_string@DU?$char_traits@D@std@@V?$allocator@D@2@@std@@@std@@@2@@std@@QAE@XZ 004769d0 f i Token.obj
 0001:00075a30       ??A?$map@HV?$basic_string@DU?$char_traits@D@std@@V?$allocator@D@2@@std@@U?$less@H@2@V?$allocator@U?$pair@$$CBHV?$basic_string@DU?$char_traits@D@std@@V?$allocator@D@2@@std@@@std@@@2@@std@@QAEAAV?$basic_string@DU?$char_traits@D@std@@V?$allocator@D@2@@1@$$QAH@Z 00476a30 f i Token.obj
 0001:00075cd0       ??1?$_Tree@V?$_Tmap_traits@HV?$basic_string@DU?$char_traits@D@std@@V?$allocator@D@2@@std@@U?$less@H@2@V?$allocator@U?$pair@$$CBHV?$basic_string@DU?$char_traits@D@std@@V?$allocator@D@2@@std@@@std@@@2@$0A@@std@@@std@@QAE@XZ 00476cd0 f i Token.obj
 0001:00075d50       ?end@?$_Tree@V?$_Tmap_traits@HV?$basic_string@DU?$char_traits@D@std@@V?$allocator@D@2@@std@@U?$less@H@2@V?$allocator@U?$pair@$$CBHV?$basic_string@DU?$char_traits@D@std@@V?$allocator@D@2@@std@@@std@@@2@$0A@@std@@@std@@QAE?AV?$_Tree_iterator@V?$_Tree_val@V?$_Tmap_traits@HV?$basic_string@DU?$char_traits@D@std@@V?$allocator@D@2@@std@@U?$less@H@2@V?$allocator@U?$pair@$$CBHV?$basic_string@DU?$char_traits@D@std@@V?$allocator@D@2@@std@@@std@@@2@$0A@@std@@@std@@@2@XZ 00476d50 f i Token.obj
 0001:00075dc0       ?empty@?$_Tree@V?$_Tmap_traits@HV?$basic_string@DU?$char_traits@D@std@@V?$allocator@D@2@@std@@U?$less@H@2@V?$allocator@U?$pair@$$CBHV?$basic_string@DU?$char_traits@D@std@@V?$allocator@D@2@@std@@@std@@@2@$0A@@std@@@std@@QBE_NXZ 00476dc0 f i Token.obj
 0001:00075e10       ?find@?$_Tree@V?$_Tmap_traits@HV?$basic_string@DU?$char_traits@D@std@@V?$allocator@D@2@@std@@U?$less@H@2@V?$allocator@U?$pair@$$CBHV?$basic_string@DU?$char_traits@D@std@@V?$allocator@D@2@@std@@@std@@@2@$0A@@std@@@std@@QAE?AV?$_Tree_iterator@V?$_Tree_val@V?$_Tmap_traits@HV?$basic_string@DU?$char_traits@D@std@@V?$allocator@D@2@@std@@U?$less@H@2@V?$allocator@U?$pair@$$CBHV?$basic_string@DU?$char_traits@D@std@@V?$allocator@D@2@@std@@@std@@@2@$0A@@std@@@std@@@2@ABH@Z 00476e10 f i Token.obj
 0001:00076070       ??D?$_Tree_const_iterator@V?$_Tree_val@V?$_Tmap_traits@HV?$basic_string@DU?$char_traits@D@std@@V?$allocator@D@2@@std@@U?$less@H@2@V?$allocator@U?$pair@$$CBHV?$basic_string@DU?$char_traits@D@std@@V?$allocator@D@2@@std@@@std@@@2@$0A@@std@@@std@@@std@@QBEABU?$pair@$$CBHV?$basic_string@DU?$char_traits@D@std@@V?$allocator@D@2@@std@@@1@XZ 00477070 f i Token.obj
 0001:00076170       ??8?$_Tree_const_iterator@V?$_Tree_val@V?$_Tmap_traits@HV?$basic_string@DU?$char_traits@D@std@@V?$allocator@D@2@@std@@U?$less@H@2@V?$allocator@U?$pair@$$CBHV?$basic_string@DU?$char_traits@D@std@@V?$allocator@D@2@@std@@@std@@@2@$0A@@std@@@std@@@std@@QBE_NABV01@@Z 00477170 f i Token.obj
 0001:00076270       ??0?$map@V?$basic_string@DU?$char_traits@D@std@@V?$allocator@D@2@@std@@W4SYMBOL@@U?$less@V?$basic_string@DU?$char_traits@D@std@@V?$allocator@D@2@@std@@@2@V?$allocator@U?$pair@$$CBV?$basic_string@DU?$char_traits@D@std@@V?$allocator@D@2@@std@@W4SYMBOL@@@std@@@2@@std@@QAE@XZ 00477270 f i Token.obj
 0001:000762d0       ??A?$map@V?$basic_string@DU?$char_traits@D@std@@V?$allocator@D@2@@std@@W4SYMBOL@@U?$less@V?$basic_string@DU?$char_traits@D@std@@V?$allocator@D@2@@std@@@2@V?$allocator@U?$pair@$$CBV?$basic_string@DU?$char_traits@D@std@@V?$allocator@D@2@@std@@W4SYMBOL@@@std@@@2@@std@@QAEAAW4SYMBOL@@ABV?$basic_string@DU?$char_traits@D@std@@V?$allocator@D@2@@1@@Z 004772d0 f i Token.obj
 0001:00076530       ??1?$_Tree@V?$_Tmap_traits@V?$basic_string@DU?$char_traits@D@std@@V?$allocator@D@2@@std@@W4SYMBOL@@U?$less@V?$basic_string@DU?$char_traits@D@std@@V?$allocator@D@2@@std@@@2@V?$allocator@U?$pair@$$CBV?$basic_string@DU?$char_traits@D@std@@V?$allocator@D@2@@std@@W4SYMBOL@@@std@@@2@$0A@@std@@@std@@QAE@XZ 00477530 f i Token.obj
 0001:000765b0       ?end@?$_Tree@V?$_Tmap_traits@V?$basic_string@DU?$char_traits@D@std@@V?$allocator@D@2@@std@@W4SYMBOL@@U?$less@V?$basic_string@DU?$char_traits@D@std@@V?$allocator@D@2@@std@@@2@V?$allocator@U?$pair@$$CBV?$basic_string@DU?$char_traits@D@std@@V?$allocator@D@2@@std@@W4SYMBOL@@@std@@@2@$0A@@std@@@std@@QAE?AV?$_Tree_iterator@V?$_Tree_val@V?$_Tmap_traits@V?$basic_string@DU?$char_traits@D@std@@V?$allocator@D@2@@std@@W4SYMBOL@@U?$less@V?$basic_string@DU?$char_traits@D@std@@V?$allocator@D@2@@std@@@2@V?$allocator@U?$pair@$$CBV?$basic_string@DU?$char_traits@D@std@@V?$allocator@D@2@@std@@W4SYMBOL@@@std@@@2@$0A@@std@@@std@@@2@XZ 004775b0 f i Token.obj
 0001:00076620       ?empty@?$_Tree@V?$_Tmap_traits@V?$basic_string@DU?$char_traits@D@std@@V?$allocator@D@2@@std@@W4SYMBOL@@U?$less@V?$basic_string@DU?$char_traits@D@std@@V?$allocator@D@2@@std@@@2@V?$allocator@U?$pair@$$CBV?$basic_string@DU?$char_traits@D@std@@V?$allocator@D@2@@std@@W4SYMBOL@@@std@@@2@$0A@@std@@@std@@QBE_NXZ 00477620 f i Token.obj
 0001:00076670       ?find@?$_Tree@V?$_Tmap_traits@V?$basic_string@DU?$char_traits@D@std@@V?$allocator@D@2@@std@@W4SYMBOL@@U?$less@V?$basic_string@DU?$char_traits@D@std@@V?$allocator@D@2@@std@@@2@V?$allocator@U?$pair@$$CBV?$basic_string@DU?$char_traits@D@std@@V?$allocator@D@2@@std@@W4SYMBOL@@@std@@@2@$0A@@std@@@std@@QAE?AV?$_Tree_iterator@V?$_Tree_val@V?$_Tmap_traits@V?$basic_string@DU?$char_traits@D@std@@V?$allocator@D@2@@std@@W4SYMBOL@@U?$less@V?$basic_string@DU?$char_traits@D@std@@V?$allocator@D@2@@std@@@2@V?$allocator@U?$pair@$$CBV?$basic_string@DU?$char_traits@D@std@@V?$allocator@D@2@@std@@W4SYMBOL@@@std@@@2@$0A@@std@@@std@@@2@ABV?$basic_string@DU?$char_traits@D@std@@V?$allocator@D@2@@2@@Z 00477670 f i Token.obj
 0001:000768d0       ??D?$_Tree_const_iterator@V?$_Tree_val@V?$_Tmap_traits@V?$basic_string@DU?$char_traits@D@std@@V?$allocator@D@2@@std@@W4SYMBOL@@U?$less@V?$basic_string@DU?$char_traits@D@std@@V?$allocator@D@2@@std@@@2@V?$allocator@U?$pair@$$CBV?$basic_string@DU?$char_traits@D@std@@V?$allocator@D@2@@std@@W4SYMBOL@@@std@@@2@$0A@@std@@@std@@@std@@QBEABU?$pair@$$CBV?$basic_string@DU?$char_traits@D@std@@V?$allocator@D@2@@std@@W4SYMBOL@@@1@XZ 004778d0 f i Token.obj
 0001:000769d0       ??8?$_Tree_const_iterator@V?$_Tree_val@V?$_Tmap_traits@V?$basic_string@DU?$char_traits@D@std@@V?$allocator@D@2@@std@@W4SYMBOL@@U?$less@V?$basic_string@DU?$char_traits@D@std@@V?$allocator@D@2@@std@@@2@V?$allocator@U?$pair@$$CBV?$basic_string@DU?$char_traits@D@std@@V?$allocator@D@2@@std@@W4SYMBOL@@@std@@@2@$0A@@std@@@std@@@std@@QBE_NABV01@@Z 004779d0 f i Token.obj
 0001:00076ad0       ??0?$basic_ostringstream@DU?$char_traits@D@std@@V?$allocator@D@2@@std@@QAE@ABV?$basic_string@DU?$char_traits@D@std@@V?$allocator@D@2@@1@H@Z 00477ad0 f i Token.obj
 0001:00076bd0       ??1?$pair@HV?$basic_string@DU?$char_traits@D@std@@V?$allocator@D@2@@std@@@std@@QAE@XZ 00477bd0 f i Token.obj
 0001:00076c10       ??4?$_Tree_iterator@V?$_Tree_val@V?$_Tmap_traits@HV?$basic_string@DU?$char_traits@D@std@@V?$allocator@D@2@@std@@U?$less@H@2@V?$allocator@U?$pair@$$CBHV?$basic_string@DU?$char_traits@D@std@@V?$allocator@D@2@@std@@@std@@@2@$0A@@std@@@std@@@std@@QAEAAV01@ABV01@@Z 00477c10 f i Token.obj
 0001:00076c60       ??0?$_Tree_iterator@V?$_Tree_val@V?$_Tmap_traits@HV?$basic_string@DU?$char_traits@D@std@@V?$allocator@D@2@@std@@U?$less@H@2@V?$allocator@U?$pair@$$CBHV?$basic_string@DU?$char_traits@D@std@@V?$allocator@D@2@@std@@@std@@@2@$0A@@std@@@std@@@std@@QAE@ABV01@@Z 00477c60 f i Token.obj
 0001:00076cb0       ??1?$pair@$$CBV?$basic_string@DU?$char_traits@D@std@@V?$allocator@D@2@@std@@W4SYMBOL@@@std@@QAE@XZ 00477cb0 f i Token.obj
 0001:00076cf0       ??4?$_Tree_iterator@V?$_Tree_val@V?$_Tmap_traits@V?$basic_string@DU?$char_traits@D@std@@V?$allocator@D@2@@std@@W4SYMBOL@@U?$less@V?$basic_string@DU?$char_traits@D@std@@V?$allocator@D@2@@std@@@2@V?$allocator@U?$pair@$$CBV?$basic_string@DU?$char_traits@D@std@@V?$allocator@D@2@@std@@W4SYMBOL@@@std@@@2@$0A@@std@@@std@@@std@@QAEAAV01@ABV01@@Z 00477cf0 f i Token.obj
 0001:00076d40       ??0?$_Tree_iterator@V?$_Tree_val@V?$_Tmap_traits@V?$basic_string@DU?$char_traits@D@std@@V?$allocator@D@2@@std@@W4SYMBOL@@U?$less@V?$basic_string@DU?$char_traits@D@std@@V?$allocator@D@2@@std@@@2@V?$allocator@U?$pair@$$CBV?$basic_string@DU?$char_traits@D@std@@V?$allocator@D@2@@std@@W4SYMBOL@@@std@@@2@$0A@@std@@@std@@@std@@QAE@ABV01@@Z 00477d40 f i Token.obj
 0001:00076d90       ??1?$_Pair_base@HV?$basic_string@DU?$char_traits@D@std@@V?$allocator@D@2@@std@@@std@@QAE@XZ 00477d90 f i Token.obj
 0001:00076de0       ??4?$_Tree_const_iterator@V?$_Tree_val@V?$_Tmap_traits@HV?$basic_string@DU?$char_traits@D@std@@V?$allocator@D@2@@std@@U?$less@H@2@V?$allocator@U?$pair@$$CBHV?$basic_string@DU?$char_traits@D@std@@V?$allocator@D@2@@std@@@std@@@2@$0A@@std@@@std@@@std@@QAEAAV01@ABV01@@Z 00477de0 f i Token.obj
 0001:00076e30       ??1?$_Pair_base@$$CBV?$basic_string@DU?$char_traits@D@std@@V?$allocator@D@2@@std@@W4SYMBOL@@@std@@QAE@XZ 00477e30 f i Token.obj
 0001:00076e70       ??4?$_Tree_const_iterator@V?$_Tree_val@V?$_Tmap_traits@V?$basic_string@DU?$char_traits@D@std@@V?$allocator@D@2@@std@@W4SYMBOL@@U?$less@V?$basic_string@DU?$char_traits@D@std@@V?$allocator@D@2@@std@@@2@V?$allocator@U?$pair@$$CBV?$basic_string@DU?$char_traits@D@std@@V?$allocator@D@2@@std@@W4SYMBOL@@@std@@@2@$0A@@std@@@std@@@std@@QAEAAV01@ABV01@@Z 00477e70 f i Token.obj
 0001:00076ec0       ??4?$_Tree_unchecked_const_iterator@V?$_Tree_val@V?$_Tmap_traits@HV?$basic_string@DU?$char_traits@D@std@@V?$allocator@D@2@@std@@U?$less@H@2@V?$allocator@U?$pair@$$CBHV?$basic_string@DU?$char_traits@D@std@@V?$allocator@D@2@@std@@@std@@@2@$0A@@std@@@std@@U_Iterator_base12@2@@std@@QAEAAV01@ABV01@@Z 00477ec0 f i Token.obj
 0001:00076f20       ??4?$_Tree_unchecked_const_iterator@V?$_Tree_val@V?$_Tmap_traits@V?$basic_string@DU?$char_traits@D@std@@V?$allocator@D@2@@std@@W4SYMBOL@@U?$less@V?$basic_string@DU?$char_traits@D@std@@V?$allocator@D@2@@std@@@2@V?$allocator@U?$pair@$$CBV?$basic_string@DU?$char_traits@D@std@@V?$allocator@D@2@@std@@W4SYMBOL@@@std@@@2@$0A@@std@@@std@@U_Iterator_base12@2@@std@@QAEAAV01@ABV01@@Z 00477f20 f i Token.obj
 0001:00076f80       ??4?$_Iterator012@Ubidirectional_iterator_tag@std@@U?$pair@$$CBHV?$basic_string@DU?$char_traits@D@std@@V?$allocator@D@2@@std@@@2@HPBU32@ABU32@U_Iterator_base12@2@@std@@QAEAAU01@ABU01@@Z 00477f80 f i Token.obj
 0001:00076fd0       ??4?$_Iterator012@Ubidirectional_iterator_tag@std@@U?$pair@$$CBV?$basic_string@DU?$char_traits@D@std@@V?$allocator@D@2@@std@@W4SYMBOL@@@2@HPBU32@ABU32@U_Iterator_base12@2@@std@@QAEAAU01@ABU01@@Z 00477fd0 f i Token.obj
 0001:00077020       ??0?$_Tree@V?$_Tmap_traits@HV?$basic_string@DU?$char_traits@D@std@@V?$allocator@D@2@@std@@U?$less@H@2@V?$allocator@U?$pair@$$CBHV?$basic_string@DU?$char_traits@D@std@@V?$allocator@D@2@@std@@@std@@@2@$0A@@std@@@std@@QAE@ABU?$less@H@1@ABV?$allocator@U?$pair@$$CBHV?$basic_string@DU?$char_traits@D@std@@V?$allocator@D@2@@std@@@std@@@1@@Z 00478020 f i Token.obj
 0001:00077080       ?size@?$_Tree@V?$_Tmap_traits@HV?$basic_string@DU?$char_traits@D@std@@V?$allocator@D@2@@std@@U?$less@H@2@V?$allocator@U?$pair@$$CBHV?$basic_string@DU?$char_traits@D@std@@V?$allocator@D@2@@std@@@std@@@2@$0A@@std@@@std@@QBEIXZ 00478080 f i Token.obj
 0001:000770b0       ?lower_bound@?$_Tree@V?$_Tmap_traits@HV?$basic_string@DU?$char_traits@D@std@@V?$allocator@D@2@@std@@U?$less@H@2@V?$allocator@U?$pair@$$CBHV?$basic_string@DU?$char_traits@D@std@@V?$allocator@D@2@@std@@@std@@@2@$0A@@std@@@std@@QAE?AV?$_Tree_iterator@V?$_Tree_val@V?$_Tmap_traits@HV?$basic_string@DU?$char_traits@D@std@@V?$allocator@D@2@@std@@U?$less@H@2@V?$allocator@U?$pair@$$CBHV?$basic_string@DU?$char_traits@D@std@@V?$allocator@D@2@@std@@@std@@@2@$0A@@std@@@std@@@2@ABH@Z 004780b0 f i Token.obj
 0001:00077120       ?_Tidy@?$_Tree@V?$_Tmap_traits@HV?$basic_string@DU?$char_traits@D@std@@V?$allocator@D@2@@std@@U?$less@H@2@V?$allocator@U?$pair@$$CBHV?$basic_string@DU?$char_traits@D@std@@V?$allocator@D@2@@std@@@std@@@2@$0A@@std@@@std@@IAEXXZ 00478120 f i Token.obj
 0001:00077260       ??1?$_Tree_val@V?$_Tmap_traits@HV?$basic_string@DU?$char_traits@D@std@@V?$allocator@D@2@@std@@U?$less@H@2@V?$allocator@U?$pair@$$CBHV?$basic_string@DU?$char_traits@D@std@@V?$allocator@D@2@@std@@@std@@@2@$0A@@std@@@std@@QAE@XZ 00478260 f i Token.obj
 0001:000772f0       ?_Key@?$_Tree_val@V?$_Tmap_traits@HV?$basic_string@DU?$char_traits@D@std@@V?$allocator@D@2@@std@@U?$less@H@2@V?$allocator@U?$pair@$$CBHV?$basic_string@DU?$char_traits@D@std@@V?$allocator@D@2@@std@@@std@@@2@$0A@@std@@@std@@SAAAHPAU_Node@?$_Tree_nod@V?$_Tmap_traits@HV?$basic_string@DU?$char_traits@D@std@@V?$allocator@D@2@@std@@U?$less@H@2@V?$allocator@U?$pair@$$CBHV?$basic_string@DU?$char_traits@D@std@@V?$allocator@D@2@@std@@@std@@@2@$0A@@std@@@2@@Z 004782f0 f i Token.obj
 0001:00077340       ?_Myval@?$_Tree_val@V?$_Tmap_traits@HV?$basic_string@DU?$char_traits@D@std@@V?$allocator@D@2@@std@@U?$less@H@2@V?$allocator@U?$pair@$$CBHV?$basic_string@DU?$char_traits@D@std@@V?$allocator@D@2@@std@@@std@@@2@$0A@@std@@@std@@SAAAU?$pair@$$CBHV?$basic_string@DU?$char_traits@D@std@@V?$allocator@D@2@@std@@@2@PAU_Node@?$_Tree_nod@V?$_Tmap_traits@HV?$basic_string@DU?$char_traits@D@std@@V?$allocator@D@2@@std@@U?$less@H@2@V?$allocator@U?$pair@$$CBHV?$basic_string@DU?$char_traits@D@std@@V?$allocator@D@2@@std@@@std@@@2@$0A@@std@@@2@@Z 00478340 f i Token.obj
 0001:00077370       ??0?$allocator@U?$pair@$$CBHV?$basic_string@DU?$char_traits@D@std@@V?$allocator@D@2@@std@@@std@@@std@@QAE@XZ 00478370 f i Token.obj
 0001:000773a0       ?_Mynode@?$_Tree_unchecked_const_iterator@V?$_Tree_val@V?$_Tmap_traits@HV?$basic_string@DU?$char_traits@D@std@@V?$allocator@D@2@@std@@U?$less@H@2@V?$allocator@U?$pair@$$CBHV?$basic_string@DU?$char_traits@D@std@@V?$allocator@D@2@@std@@@std@@@2@$0A@@std@@@std@@U_Iterator_base12@2@@std@@QBEPAU_Node@?$_Tree_nod@V?$_Tmap_traits@HV?$basic_string@DU?$char_traits@D@std@@V?$allocator@D@2@@std@@U?$less@H@2@V?$allocator@U?$pair@$$CBHV?$basic_string@DU?$char_traits@D@std@@V?$allocator@D@2@@std@@@std@@@2@$0A@@std@@@2@XZ 004783a0 f i Token.obj
 0001:000773d0       ??0?$_Tree_iterator@V?$_Tree_val@V?$_Tmap_traits@HV?$basic_string@DU?$char_traits@D@std@@V?$allocator@D@2@@std@@U?$less@H@2@V?$allocator@U?$pair@$$CBHV?$basic_string@DU?$char_traits@D@std@@V?$allocator@D@2@@std@@@std@@@2@$0A@@std@@@std@@@std@@QAE@PAU_Node@?$_Tree_nod@V?$_Tmap_traits@HV?$basic_string@DU?$char_traits@D@std@@V?$allocator@D@2@@std@@U?$less@H@2@V?$allocator@U?$pair@$$CBHV?$basic_string@DU?$char_traits@D@std@@V?$allocator@D@2@@std@@@std@@@2@$0A@@std@@@1@PBV?$_Tree_val@V?$_Tmap_traits@HV?$basic_string@DU?$char_traits@D@std@@V?$allocator@D@2@@std@@U?$less@H@2@V?$allocator@U?$pair@$$CBHV?$basic_string@DU?$char_traits@D@std@@V?$allocator@D@2@@std@@@std@@@2@$0A@@std@@@1@@Z 004783d0 f i Token.obj
 0001:00077420       ??D?$_Tree_iterator@V?$_Tree_val@V?$_Tmap_traits@HV?$basic_string@DU?$char_traits@D@std@@V?$allocator@D@2@@std@@U?$less@H@2@V?$allocator@U?$pair@$$CBHV?$basic_string@DU?$char_traits@D@std@@V?$allocator@D@2@@std@@@std@@@2@$0A@@std@@@std@@@std@@QBEAAU?$pair@$$CBHV?$basic_string@DU?$char_traits@D@std@@V?$allocator@D@2@@std@@@1@XZ 00478420 f i Token.obj
 0001:00077460       ??0?$_Tree@V?$_Tmap_traits@V?$basic_string@DU?$char_traits@D@std@@V?$allocator@D@2@@std@@W4SYMBOL@@U?$less@V?$basic_string@DU?$char_traits@D@std@@V?$allocator@D@2@@std@@@2@V?$allocator@U?$pair@$$CBV?$basic_string@DU?$char_traits@D@std@@V?$allocator@D@2@@std@@W4SYMBOL@@@std@@@2@$0A@@std@@@std@@QAE@ABU?$less@V?$basic_string@DU?$char_traits@D@std@@V?$allocator@D@2@@std@@@1@ABV?$allocator@U?$pair@$$CBV?$basic_string@DU?$char_traits@D@std@@V?$allocator@D@2@@std@@W4SYMBOL@@@std@@@1@@Z 00478460 f i Token.obj
 0001:000774c0       ?size@?$_Tree@V?$_Tmap_traits@V?$basic_string@DU?$char_traits@D@std@@V?$allocator@D@2@@std@@W4SYMBOL@@U?$less@V?$basic_string@DU?$char_traits@D@std@@V?$allocator@D@2@@std@@@2@V?$allocator@U?$pair@$$CBV?$basic_string@DU?$char_traits@D@std@@V?$allocator@D@2@@std@@W4SYMBOL@@@std@@@2@$0A@@std@@@std@@QBEIXZ 004784c0 f i Token.obj
 0001:000774f0       ?lower_bound@?$_Tree@V?$_Tmap_traits@V?$basic_string@DU?$char_traits@D@std@@V?$allocator@D@2@@std@@W4SYMBOL@@U?$less@V?$basic_string@DU?$char_traits@D@std@@V?$allocator@D@2@@std@@@2@V?$allocator@U?$pair@$$CBV?$basic_string@DU?$char_traits@D@std@@V?$allocator@D@2@@std@@W4SYMBOL@@@std@@@2@$0A@@std@@@std@@QAE?AV?$_Tree_iterator@V?$_Tree_val@V?$_Tmap_traits@V?$basic_string@DU?$char_traits@D@std@@V?$allocator@D@2@@std@@W4SYMBOL@@U?$less@V?$basic_string@DU?$char_traits@D@std@@V?$allocator@D@2@@std@@@2@V?$allocator@U?$pair@$$CBV?$basic_string@DU?$char_traits@D@std@@V?$allocator@D@2@@std@@W4SYMBOL@@@std@@@2@$0A@@std@@@std@@@2@ABV?$basic_string@DU?$char_traits@D@std@@V?$allocator@D@2@@2@@Z 004784f0 f i Token.obj
 0001:00077560       ?_Tidy@?$_Tree@V?$_Tmap_traits@V?$basic_string@DU?$char_traits@D@std@@V?$allocator@D@2@@std@@W4SYMBOL@@U?$less@V?$basic_string@DU?$char_traits@D@std@@V?$allocator@D@2@@std@@@2@V?$allocator@U?$pair@$$CBV?$basic_string@DU?$char_traits@D@std@@V?$allocator@D@2@@std@@W4SYMBOL@@@std@@@2@$0A@@std@@@std@@IAEXXZ 00478560 f i Token.obj
 0001:000776a0       ??1?$_Tree_val@V?$_Tmap_traits@V?$basic_string@DU?$char_traits@D@std@@V?$allocator@D@2@@std@@W4SYMBOL@@U?$less@V?$basic_string@DU?$char_traits@D@std@@V?$allocator@D@2@@std@@@2@V?$allocator@U?$pair@$$CBV?$basic_string@DU?$char_traits@D@std@@V?$allocator@D@2@@std@@W4SYMBOL@@@std@@@2@$0A@@std@@@std@@QAE@XZ 004786a0 f i Token.obj
 0001:00077730       ?_Key@?$_Tree_val@V?$_Tmap_traits@V?$basic_string@DU?$char_traits@D@std@@V?$allocator@D@2@@std@@W4SYMBOL@@U?$less@V?$basic_string@DU?$char_traits@D@std@@V?$allocator@D@2@@std@@@2@V?$allocator@U?$pair@$$CBV?$basic_string@DU?$char_traits@D@std@@V?$allocator@D@2@@std@@W4SYMBOL@@@std@@@2@$0A@@std@@@std@@SAAAV?$basic_string@DU?$char_traits@D@std@@V?$allocator@D@2@@2@PAU_Node@?$_Tree_nod@V?$_Tmap_traits@V?$basic_string@DU?$char_traits@D@std@@V?$allocator@D@2@@std@@W4SYMBOL@@U?$less@V?$basic_string@DU?$char_traits@D@std@@V?$allocator@D@2@@std@@@2@V?$allocator@U?$pair@$$CBV?$basic_string@DU?$char_traits@D@std@@V?$allocator@D@2@@std@@W4SYMBOL@@@std@@@2@$0A@@std@@@2@@Z 00478730 f i Token.obj
 0001:00077780       ?_Myval@?$_Tree_val@V?$_Tmap_traits@V?$basic_string@DU?$char_traits@D@std@@V?$allocator@D@2@@std@@W4SYMBOL@@U?$less@V?$basic_string@DU?$char_traits@D@std@@V?$allocator@D@2@@std@@@2@V?$allocator@U?$pair@$$CBV?$basic_string@DU?$char_traits@D@std@@V?$allocator@D@2@@std@@W4SYMBOL@@@std@@@2@$0A@@std@@@std@@SAAAU?$pair@$$CBV?$basic_string@DU?$char_traits@D@std@@V?$allocator@D@2@@std@@W4SYMBOL@@@2@PAU_Node@?$_Tree_nod@V?$_Tmap_traits@V?$basic_string@DU?$char_traits@D@std@@V?$allocator@D@2@@std@@W4SYMBOL@@U?$less@V?$basic_string@DU?$char_traits@D@std@@V?$allocator@D@2@@std@@@2@V?$allocator@U?$pair@$$CBV?$basic_string@DU?$char_traits@D@std@@V?$allocator@D@2@@std@@W4SYMBOL@@@std@@@2@$0A@@std@@@2@@Z 00478780 f i Token.obj
 0001:000777b0       ??0?$allocator@U?$pair@$$CBV?$basic_string@DU?$char_traits@D@std@@V?$allocator@D@2@@std@@W4SYMBOL@@@std@@@std@@QAE@XZ 004787b0 f i Token.obj
 0001:000777e0       ?_Mynode@?$_Tree_unchecked_const_iterator@V?$_Tree_val@V?$_Tmap_traits@V?$basic_string@DU?$char_traits@D@std@@V?$allocator@D@2@@std@@W4SYMBOL@@U?$less@V?$basic_string@DU?$char_traits@D@std@@V?$allocator@D@2@@std@@@2@V?$allocator@U?$pair@$$CBV?$basic_string@DU?$char_traits@D@std@@V?$allocator@D@2@@std@@W4SYMBOL@@@std@@@2@$0A@@std@@@std@@U_Iterator_base12@2@@std@@QBEPAU_Node@?$_Tree_nod@V?$_Tmap_traits@V?$basic_string@DU?$char_traits@D@std@@V?$allocator@D@2@@std@@W4SYMBOL@@U?$less@V?$basic_string@DU?$char_traits@D@std@@V?$allocator@D@2@@std@@@2@V?$allocator@U?$pair@$$CBV?$basic_string@DU?$char_traits@D@std@@V?$allocator@D@2@@std@@W4SYMBOL@@@std@@@2@$0A@@std@@@2@XZ 004787e0 f i Token.obj
 0001:00077810       ??0?$_Tree_iterator@V?$_Tree_val@V?$_Tmap_traits@V?$basic_string@DU?$char_traits@D@std@@V?$allocator@D@2@@std@@W4SYMBOL@@U?$less@V?$basic_string@DU?$char_traits@D@std@@V?$allocator@D@2@@std@@@2@V?$allocator@U?$pair@$$CBV?$basic_string@DU?$char_traits@D@std@@V?$allocator@D@2@@std@@W4SYMBOL@@@std@@@2@$0A@@std@@@std@@@std@@QAE@PAU_Node@?$_Tree_nod@V?$_Tmap_traits@V?$basic_string@DU?$char_traits@D@std@@V?$allocator@D@2@@std@@W4SYMBOL@@U?$less@V?$basic_string@DU?$char_traits@D@std@@V?$allocator@D@2@@std@@@2@V?$allocator@U?$pair@$$CBV?$basic_string@DU?$char_traits@D@std@@V?$allocator@D@2@@std@@W4SYMBOL@@@std@@@2@$0A@@std@@@1@PBV?$_Tree_val@V?$_Tmap_traits@V?$basic_string@DU?$char_traits@D@std@@V?$allocator@D@2@@std@@W4SYMBOL@@U?$less@V?$basic_string@DU?$char_traits@D@std@@V?$allocator@D@2@@std@@@2@V?$allocator@U?$pair@$$CBV?$basic_string@DU?$char_traits@D@std@@V?$allocator@D@2@@std@@W4SYMBOL@@@std@@@2@$0A@@std@@@1@@Z 00478810 f i Token.obj
 0001:00077860       ??D?$_Tree_iterator@V?$_Tree_val@V?$_Tmap_traits@V?$basic_string@DU?$char_traits@D@std@@V?$allocator@D@2@@std@@W4SYMBOL@@U?$less@V?$basic_string@DU?$char_traits@D@std@@V?$allocator@D@2@@std@@@2@V?$allocator@U?$pair@$$CBV?$basic_string@DU?$char_traits@D@std@@V?$allocator@D@2@@std@@W4SYMBOL@@@std@@@2@$0A@@std@@@std@@@std@@QBEAAU?$pair@$$CBV?$basic_string@DU?$char_traits@D@std@@V?$allocator@D@2@@std@@W4SYMBOL@@@1@XZ 00478860 f i Token.obj
 0001:000778a0       ??0?$pair@$$CBV?$basic_string@DU?$char_traits@D@std@@V?$allocator@D@2@@std@@W4SYMBOL@@@std@@QAE@ABV?$basic_string@DU?$char_traits@D@std@@V?$allocator@D@2@@1@$$QAW4SYMBOL@@@Z 004788a0 f i Token.obj
 0001:00077900       ??0?$basic_stringbuf@DU?$char_traits@D@std@@V?$allocator@D@2@@std@@QAE@ABV?$basic_string@DU?$char_traits@D@std@@V?$allocator@D@2@@1@H@Z 00478900 f i Token.obj
 0001:000779d0       ??0?$pair@HV?$basic_string@DU?$char_traits@D@std@@V?$allocator@D@2@@std@@@std@@QAE@$$QAH$$QAV?$basic_string@DU?$char_traits@D@std@@V?$allocator@D@2@@1@@Z 004789d0 f i Token.obj
 0001:00077a30       ?begin@?$_Tree@V?$_Tmap_traits@HV?$basic_string@DU?$char_traits@D@std@@V?$allocator@D@2@@std@@U?$less@H@2@V?$allocator@U?$pair@$$CBHV?$basic_string@DU?$char_traits@D@std@@V?$allocator@D@2@@std@@@std@@@2@$0A@@std@@@std@@QAE?AV?$_Tree_iterator@V?$_Tree_val@V?$_Tmap_traits@HV?$basic_string@DU?$char_traits@D@std@@V?$allocator@D@2@@std@@U?$less@H@2@V?$allocator@U?$pair@$$CBHV?$basic_string@DU?$char_traits@D@std@@V?$allocator@D@2@@std@@@std@@@2@$0A@@std@@@std@@@2@XZ 00478a30 f i Token.obj
 0001:00077aa0       ?erase@?$_Tree@V?$_Tmap_traits@HV?$basic_string@DU?$char_traits@D@std@@V?$allocator@D@2@@std@@U?$less@H@2@V?$allocator@U?$pair@$$CBHV?$basic_string@DU?$char_traits@D@std@@V?$allocator@D@2@@std@@@std@@@2@$0A@@std@@@std@@QAE?AV?$_Tree_iterator@V?$_Tree_val@V?$_Tmap_traits@HV?$basic_string@DU?$char_traits@D@std@@V?$allocator@D@2@@std@@U?$less@H@2@V?$allocator@U?$pair@$$CBHV?$basic_string@DU?$char_traits@D@std@@V?$allocator@D@2@@std@@@std@@@2@$0A@@std@@@std@@@2@V?$_Tree_const_iterator@V?$_Tree_val@V?$_Tmap_traits@HV?$basic_string@DU?$char_traits@D@std@@V?$allocator@D@2@@std@@U?$less@H@2@V?$allocator@U?$pair@$$CBHV?$basic_string@DU?$char_traits@D@std@@V?$allocator@D@2@@std@@@std@@@2@$0A@@std@@@std@@@2@0@Z 00478aa0 f i Token.obj
 0001:00077d10       ?_Lbound@?$_Tree@V?$_Tmap_traits@HV?$basic_string@DU?$char_traits@D@std@@V?$allocator@D@2@@std@@U?$less@H@2@V?$allocator@U?$pair@$$CBHV?$basic_string@DU?$char_traits@D@std@@V?$allocator@D@2@@std@@@std@@@2@$0A@@std@@@std@@IAEPAU_Node@?$_Tree_nod@V?$_Tmap_traits@HV?$basic_string@DU?$char_traits@D@std@@V?$allocator@D@2@@std@@U?$less@H@2@V?$allocator@U?$pair@$$CBHV?$basic_string@DU?$char_traits@D@std@@V?$allocator@D@2@@std@@@std@@@2@$0A@@std@@@2@ABH@Z 00478d10 f i Token.obj
 0001:00077de0       ??0?$_Tree_val@V?$_Tmap_traits@HV?$basic_string@DU?$char_traits@D@std@@V?$allocator@D@2@@std@@U?$less@H@2@V?$allocator@U?$pair@$$CBHV?$basic_string@DU?$char_traits@D@std@@V?$allocator@D@2@@std@@@std@@@2@$0A@@std@@@std@@QAE@ABU?$less@H@1@V?$allocator@U?$pair@$$CBHV?$basic_string@DU?$char_traits@D@std@@V?$allocator@D@2@@std@@@std@@@1@@Z 00478de0 f i Token.obj
 0001:00077f00       ??1?$_Tree_nod@V?$_Tmap_traits@HV?$basic_string@DU?$char_traits@D@std@@V?$allocator@D@2@@std@@U?$less@H@2@V?$allocator@U?$pair@$$CBHV?$basic_string@DU?$char_traits@D@std@@V?$allocator@D@2@@std@@@std@@@2@$0A@@std@@@std@@QAE@XZ 00478f00 f i Token.obj
 0001:00078000       ??0?$allocator@U?$pair@$$CBHV?$basic_string@DU?$char_traits@D@std@@V?$allocator@D@2@@std@@@std@@@std@@QAE@ABV01@@Z 00479000 f i Token.obj
 0001:00078030       ?deallocate@?$allocator@U_Node@?$_Tree_nod@V?$_Tmap_traits@HV?$basic_string@DU?$char_traits@D@std@@V?$allocator@D@2@@std@@U?$less@H@2@V?$allocator@U?$pair@$$CBHV?$basic_string@DU?$char_traits@D@std@@V?$allocator@D@2@@std@@@std@@@2@$0A@@std@@@std@@@std@@QAEXPAU_Node@?$_Tree_nod@V?$_Tmap_traits@HV?$basic_string@DU?$char_traits@D@std@@V?$allocator@D@2@@std@@U?$less@H@2@V?$allocator@U?$pair@$$CBHV?$basic_string@DU?$char_traits@D@std@@V?$allocator@D@2@@std@@@std@@@2@$0A@@std@@@2@I@Z 00479030 f i Token.obj
 0001:00078080       ??0?$_Tree_const_iterator@V?$_Tree_val@V?$_Tmap_traits@HV?$basic_string@DU?$char_traits@D@std@@V?$allocator@D@2@@std@@U?$less@H@2@V?$allocator@U?$pair@$$CBHV?$basic_string@DU?$char_traits@D@std@@V?$allocator@D@2@@std@@@std@@@2@$0A@@std@@@std@@@std@@QAE@PAU_Node@?$_Tree_nod@V?$_Tmap_traits@HV?$basic_string@DU?$char_traits@D@std@@V?$allocator@D@2@@std@@U?$less@H@2@V?$allocator@U?$pair@$$CBHV?$basic_string@DU?$char_traits@D@std@@V?$allocator@D@2@@std@@@std@@@2@$0A@@std@@@1@PBV?$_Tree_val@V?$_Tmap_traits@HV?$basic_string@DU?$char_traits@D@std@@V?$allocator@D@2@@std@@U?$less@H@2@V?$allocator@U?$pair@$$CBHV?$basic_string@DU?$char_traits@D@std@@V?$allocator@D@2@@std@@@std@@@2@$0A@@std@@@1@@Z 00479080 f i Token.obj
 0001:000780d0       ?begin@?$_Tree@V?$_Tmap_traits@V?$basic_string@DU?$char_traits@D@std@@V?$allocator@D@2@@std@@W4SYMBOL@@U?$less@V?$basic_string@DU?$char_traits@D@std@@V?$allocator@D@2@@std@@@2@V?$allocator@U?$pair@$$CBV?$basic_string@DU?$char_traits@D@std@@V?$allocator@D@2@@std@@W4SYMBOL@@@std@@@2@$0A@@std@@@std@@QAE?AV?$_Tree_iterator@V?$_Tree_val@V?$_Tmap_traits@V?$basic_string@DU?$char_traits@D@std@@V?$allocator@D@2@@std@@W4SYMBOL@@U?$less@V?$basic_string@DU?$char_traits@D@std@@V?$allocator@D@2@@std@@@2@V?$allocator@U?$pair@$$CBV?$basic_string@DU?$char_traits@D@std@@V?$allocator@D@2@@std@@W4SYMBOL@@@std@@@2@$0A@@std@@@std@@@2@XZ 004790d0 f i Token.obj
 0001:00078140       ?erase@?$_Tree@V?$_Tmap_traits@V?$basic_string@DU?$char_traits@D@std@@V?$allocator@D@2@@std@@W4SYMBOL@@U?$less@V?$basic_string@DU?$char_traits@D@std@@V?$allocator@D@2@@std@@@2@V?$allocator@U?$pair@$$CBV?$basic_string@DU?$char_traits@D@std@@V?$allocator@D@2@@std@@W4SYMBOL@@@std@@@2@$0A@@std@@@std@@QAE?AV?$_Tree_iterator@V?$_Tree_val@V?$_Tmap_traits@V?$basic_string@DU?$char_traits@D@std@@V?$allocator@D@2@@std@@W4SYMBOL@@U?$less@V?$basic_string@DU?$char_traits@D@std@@V?$allocator@D@2@@std@@@2@V?$allocator@U?$pair@$$CBV?$basic_string@DU?$char_traits@D@std@@V?$allocator@D@2@@std@@W4SYMBOL@@@std@@@2@$0A@@std@@@std@@@2@V?$_Tree_const_iterator@V?$_Tree_val@V?$_Tmap_traits@V?$basic_string@DU?$char_traits@D@std@@V?$allocator@D@2@@std@@W4SYMBOL@@U?$less@V?$basic_string@DU?$char_traits@D@std@@V?$allocator@D@2@@std@@@2@V?$allocator@U?$pair@$$CBV?$basic_string@DU?$char_traits@D@std@@V?$allocator@D@2@@std@@W4SYMBOL@@@std@@@2@$0A@@std@@@std@@@2@0@Z 00479140 f i Token.obj
 0001:000783b0       ?_Lbound@?$_Tree@V?$_Tmap_traits@V?$basic_string@DU?$char_traits@D@std@@V?$allocator@D@2@@std@@W4SYMBOL@@U?$less@V?$basic_string@DU?$char_traits@D@std@@V?$allocator@D@2@@std@@@2@V?$allocator@U?$pair@$$CBV?$basic_string@DU?$char_traits@D@std@@V?$allocator@D@2@@std@@W4SYMBOL@@@std@@@2@$0A@@std@@@std@@IAEPAU_Node@?$_Tree_nod@V?$_Tmap_traits@V?$basic_string@DU?$char_traits@D@std@@V?$allocator@D@2@@std@@W4SYMBOL@@U?$less@V?$basic_string@DU?$char_traits@D@std@@V?$allocator@D@2@@std@@@2@V?$allocator@U?$pair@$$CBV?$basic_string@DU?$char_traits@D@std@@V?$allocator@D@2@@std@@W4SYMBOL@@@std@@@2@$0A@@std@@@2@ABV?$basic_string@DU?$char_traits@D@std@@V?$allocator@D@2@@2@@Z 004793b0 f i Token.obj
 0001:00078480       ??0?$_Tree_val@V?$_Tmap_traits@V?$basic_string@DU?$char_traits@D@std@@V?$allocator@D@2@@std@@W4SYMBOL@@U?$less@V?$basic_string@DU?$char_traits@D@std@@V?$allocator@D@2@@std@@@2@V?$allocator@U?$pair@$$CBV?$basic_string@DU?$char_traits@D@std@@V?$allocator@D@2@@std@@W4SYMBOL@@@std@@@2@$0A@@std@@@std@@QAE@ABU?$less@V?$basic_string@DU?$char_traits@D@std@@V?$allocator@D@2@@std@@@1@V?$allocator@U?$pair@$$CBV?$basic_string@DU?$char_traits@D@std@@V?$allocator@D@2@@std@@W4SYMBOL@@@std@@@1@@Z 00479480 f i Token.obj
 0001:000785a0       ??1?$_Tree_nod@V?$_Tmap_traits@V?$basic_string@DU?$char_traits@D@std@@V?$allocator@D@2@@std@@W4SYMBOL@@U?$less@V?$basic_string@DU?$char_traits@D@std@@V?$allocator@D@2@@std@@@2@V?$allocator@U?$pair@$$CBV?$basic_string@DU?$char_traits@D@std@@V?$allocator@D@2@@std@@W4SYMBOL@@@std@@@2@$0A@@std@@@std@@QAE@XZ 004795a0 f i Token.obj
 0001:000786a0       ??0?$allocator@U?$pair@$$CBV?$basic_string@DU?$char_traits@D@std@@V?$allocator@D@2@@std@@W4SYMBOL@@@std@@@std@@QAE@ABV01@@Z 004796a0 f i Token.obj
 0001:000786d0       ?deallocate@?$allocator@U_Node@?$_Tree_nod@V?$_Tmap_traits@V?$basic_string@DU?$char_traits@D@std@@V?$allocator@D@2@@std@@W4SYMBOL@@U?$less@V?$basic_string@DU?$char_traits@D@std@@V?$allocator@D@2@@std@@@2@V?$allocator@U?$pair@$$CBV?$basic_string@DU?$char_traits@D@std@@V?$allocator@D@2@@std@@W4SYMBOL@@@std@@@2@$0A@@std@@@std@@@std@@QAEXPAU_Node@?$_Tree_nod@V?$_Tmap_traits@V?$basic_string@DU?$char_traits@D@std@@V?$allocator@D@2@@std@@W4SYMBOL@@U?$less@V?$basic_string@DU?$char_traits@D@std@@V?$allocator@D@2@@std@@@2@V?$allocator@U?$pair@$$CBV?$basic_string@DU?$char_traits@D@std@@V?$allocator@D@2@@std@@W4SYMBOL@@@std@@@2@$0A@@std@@@2@I@Z 004796d0 f i Token.obj
 0001:00078720       ??0?$_Tree_const_iterator@V?$_Tree_val@V?$_Tmap_traits@V?$basic_string@DU?$char_traits@D@std@@V?$allocator@D@2@@std@@W4SYMBOL@@U?$less@V?$basic_string@DU?$char_traits@D@std@@V?$allocator@D@2@@std@@@2@V?$allocator@U?$pair@$$CBV?$basic_string@DU?$char_traits@D@std@@V?$allocator@D@2@@std@@W4SYMBOL@@@std@@@2@$0A@@std@@@std@@@std@@QAE@PAU_Node@?$_Tree_nod@V?$_Tmap_traits@V?$basic_string@DU?$char_traits@D@std@@V?$allocator@D@2@@std@@W4SYMBOL@@U?$less@V?$basic_string@DU?$char_traits@D@std@@V?$allocator@D@2@@std@@@2@V?$allocator@U?$pair@$$CBV?$basic_string@DU?$char_traits@D@std@@V?$allocator@D@2@@std@@W4SYMBOL@@@std@@@2@$0A@@std@@@1@PBV?$_Tree_val@V?$_Tmap_traits@V?$basic_string@DU?$char_traits@D@std@@V?$allocator@D@2@@std@@W4SYMBOL@@U?$less@V?$basic_string@DU?$char_traits@D@std@@V?$allocator@D@2@@std@@@2@V?$allocator@U?$pair@$$CBV?$basic_string@DU?$char_traits@D@std@@V?$allocator@D@2@@std@@W4SYMBOL@@@std@@@2@$0A@@std@@@1@@Z 00479720 f i Token.obj
 0001:00078770       ??0?$_Pair_base@$$CBV?$basic_string@DU?$char_traits@D@std@@V?$allocator@D@2@@std@@W4SYMBOL@@@std@@QAE@ABV?$basic_string@DU?$char_traits@D@std@@V?$allocator@D@2@@1@$$QAW4SYMBOL@@@Z 00479770 f i Token.obj
 0001:00078810       ??0?$_Pair_base@HV?$basic_string@DU?$char_traits@D@std@@V?$allocator@D@2@@std@@@std@@QAE@$$QAH$$QAV?$basic_string@DU?$char_traits@D@std@@V?$allocator@D@2@@1@@Z 00479810 f i Token.obj
 0001:00078880       ??1?$_Tmap_traits@HV?$basic_string@DU?$char_traits@D@std@@V?$allocator@D@2@@std@@U?$less@H@2@V?$allocator@U?$pair@$$CBHV?$basic_string@DU?$char_traits@D@std@@V?$allocator@D@2@@std@@@std@@@2@$0A@@std@@QAE@XZ 00479880 f i Token.obj
 0001:000788d0       ??1?$_Tmap_traits@V?$basic_string@DU?$char_traits@D@std@@V?$allocator@D@2@@std@@W4SYMBOL@@U?$less@V?$basic_string@DU?$char_traits@D@std@@V?$allocator@D@2@@std@@@2@V?$allocator@U?$pair@$$CBV?$basic_string@DU?$char_traits@D@std@@V?$allocator@D@2@@std@@W4SYMBOL@@@std@@@2@$0A@@std@@QAE@XZ 004798d0 f i Token.obj
 0001:00078920       ?erase@?$_Tree@V?$_Tmap_traits@HV?$basic_string@DU?$char_traits@D@std@@V?$allocator@D@2@@std@@U?$less@H@2@V?$allocator@U?$pair@$$CBHV?$basic_string@DU?$char_traits@D@std@@V?$allocator@D@2@@std@@@std@@@2@$0A@@std@@@std@@QAE?AV?$_Tree_iterator@V?$_Tree_val@V?$_Tmap_traits@HV?$basic_string@DU?$char_traits@D@std@@V?$allocator@D@2@@std@@U?$less@H@2@V?$allocator@U?$pair@$$CBHV?$basic_string@DU?$char_traits@D@std@@V?$allocator@D@2@@std@@@std@@@2@$0A@@std@@@std@@@2@V?$_Tree_const_iterator@V?$_Tree_val@V?$_Tmap_traits@HV?$basic_string@DU?$char_traits@D@std@@V?$allocator@D@2@@std@@U?$less@H@2@V?$allocator@U?$pair@$$CBHV?$basic_string@DU?$char_traits@D@std@@V?$allocator@D@2@@std@@@std@@@2@$0A@@std@@@std@@@2@@Z 00479920 f i Token.obj
 0001:00079170       ?clear@?$_Tree@V?$_Tmap_traits@HV?$basic_string@DU?$char_traits@D@std@@V?$allocator@D@2@@std@@U?$less@H@2@V?$allocator@U?$pair@$$CBHV?$basic_string@DU?$char_traits@D@std@@V?$allocator@D@2@@std@@@std@@@2@$0A@@std@@@std@@QAEXXZ 0047a170 f i Token.obj
 0001:00079210       ?_Lmost@?$_Tree@V?$_Tmap_traits@HV?$basic_string@DU?$char_traits@D@std@@V?$allocator@D@2@@std@@U?$less@H@2@V?$allocator@U?$pair@$$CBHV?$basic_string@DU?$char_traits@D@std@@V?$allocator@D@2@@std@@@std@@@2@$0A@@std@@@std@@IBEAAPAU_Node@?$_Tree_nod@V?$_Tmap_traits@HV?$basic_string@DU?$char_traits@D@std@@V?$allocator@D@2@@std@@U?$less@H@2@V?$allocator@U?$pair@$$CBHV?$basic_string@DU?$char_traits@D@std@@V?$allocator@D@2@@std@@@std@@@2@$0A@@std@@@2@XZ 0047a210 f i Token.obj
 0001:00079260       ?_Root@?$_Tree@V?$_Tmap_traits@HV?$basic_string@DU?$char_traits@D@std@@V?$allocator@D@2@@std@@U?$less@H@2@V?$allocator@U?$pair@$$CBHV?$basic_string@DU?$char_traits@D@std@@V?$allocator@D@2@@std@@@std@@@2@$0A@@std@@@std@@IBEAAPAU_Node@?$_Tree_nod@V?$_Tmap_traits@HV?$basic_string@DU?$char_traits@D@std@@V?$allocator@D@2@@std@@U?$less@H@2@V?$allocator@U?$pair@$$CBHV?$basic_string@DU?$char_traits@D@std@@V?$allocator@D@2@@std@@@std@@@2@$0A@@std@@@2@XZ 0047a260 f i Token.obj
 0001:000792b0       ?_Color@?$_Tree_val@V?$_Tmap_traits@HV?$basic_string@DU?$char_traits@D@std@@V?$allocator@D@2@@std@@U?$less@H@2@V?$allocator@U?$pair@$$CBHV?$basic_string@DU?$char_traits@D@std@@V?$allocator@D@2@@std@@@std@@@2@$0A@@std@@@std@@SAAADPAU_Node@?$_Tree_nod@V?$_Tmap_traits@HV?$basic_string@DU?$char_traits@D@std@@V?$allocator@D@2@@std@@U?$less@H@2@V?$allocator@U?$pair@$$CBHV?$basic_string@DU?$char_traits@D@std@@V?$allocator@D@2@@std@@@std@@@2@$0A@@std@@@2@@Z 0047a2b0 f i Token.obj
 0001:000792e0       ?_Isnil@?$_Tree_val@V?$_Tmap_traits@HV?$basic_string@DU?$char_traits@D@std@@V?$allocator@D@2@@std@@U?$less@H@2@V?$allocator@U?$pair@$$CBHV?$basic_string@DU?$char_traits@D@std@@V?$allocator@D@2@@std@@@std@@@2@$0A@@std@@@std@@SAAADPAU_Node@?$_Tree_nod@V?$_Tmap_traits@HV?$basic_string@DU?$char_traits@D@std@@V?$allocator@D@2@@std@@U?$less@H@2@V?$allocator@U?$pair@$$CBHV?$basic_string@DU?$char_traits@D@std@@V?$allocator@D@2@@std@@@std@@@2@$0A@@std@@@2@@Z 0047a2e0 f i Token.obj
 0001:00079310       ?_Left@?$_Tree_val@V?$_Tmap_traits@HV?$basic_string@DU?$char_traits@D@std@@V?$allocator@D@2@@std@@U?$less@H@2@V?$allocator@U?$pair@$$CBHV?$basic_string@DU?$char_traits@D@std@@V?$allocator@D@2@@std@@@std@@@2@$0A@@std@@@std@@SAAAPAU_Node@?$_Tree_nod@V?$_Tmap_traits@HV?$basic_string@DU?$char_traits@D@std@@V?$allocator@D@2@@std@@U?$less@H@2@V?$allocator@U?$pair@$$CBHV?$basic_string@DU?$char_traits@D@std@@V?$allocator@D@2@@std@@@std@@@2@$0A@@std@@@2@PAU342@@Z 0047a310 f i Token.obj
 0001:00079340       ?_Parent@?$_Tree_val@V?$_Tmap_traits@HV?$basic_string@DU?$char_traits@D@std@@V?$allocator@D@2@@std@@U?$less@H@2@V?$allocator@U?$pair@$$CBHV?$basic_string@DU?$char_traits@D@std@@V?$allocator@D@2@@std@@@std@@@2@$0A@@std@@@std@@SAAAPAU_Node@?$_Tree_nod@V?$_Tmap_traits@HV?$basic_string@DU?$char_traits@D@std@@V?$allocator@D@2@@std@@U?$less@H@2@V?$allocator@U?$pair@$$CBHV?$basic_string@DU?$char_traits@D@std@@V?$allocator@D@2@@std@@@std@@@2@$0A@@std@@@2@PAU342@@Z 0047a340 f i Token.obj
 0001:00079370       ?_Right@?$_Tree_val@V?$_Tmap_traits@HV?$basic_string@DU?$char_traits@D@std@@V?$allocator@D@2@@std@@U?$less@H@2@V?$allocator@U?$pair@$$CBHV?$basic_string@DU?$char_traits@D@std@@V?$allocator@D@2@@std@@@std@@@2@$0A@@std@@@std@@SAAAPAU_Node@?$_Tree_nod@V?$_Tmap_traits@HV?$basic_string@DU?$char_traits@D@std@@V?$allocator@D@2@@std@@U?$less@H@2@V?$allocator@U?$pair@$$CBHV?$basic_string@DU?$char_traits@D@std@@V?$allocator@D@2@@std@@@std@@@2@$0A@@std@@@2@PAU342@@Z 0047a370 f i Token.obj
 0001:000793a0       ??0?$_Tree_nod@V?$_Tmap_traits@HV?$basic_string@DU?$char_traits@D@std@@V?$allocator@D@2@@std@@U?$less@H@2@V?$allocator@U?$pair@$$CBHV?$basic_string@DU?$char_traits@D@std@@V?$allocator@D@2@@std@@@std@@@2@$0A@@std@@@std@@QAE@ABU?$less@H@1@V?$allocator@U?$pair@$$CBHV?$basic_string@DU?$char_traits@D@std@@V?$allocator@D@2@@std@@@std@@@1@@Z 0047a3a0 f i Token.obj
 0001:000794c0       ?allocate@?$allocator@U_Node@?$_Tree_nod@V?$_Tmap_traits@HV?$basic_string@DU?$char_traits@D@std@@V?$allocator@D@2@@std@@U?$less@H@2@V?$allocator@U?$pair@$$CBHV?$basic_string@DU?$char_traits@D@std@@V?$allocator@D@2@@std@@@std@@@2@$0A@@std@@@std@@@std@@QAEPAU_Node@?$_Tree_nod@V?$_Tmap_traits@HV?$basic_string@DU?$char_traits@D@std@@V?$allocator@D@2@@std@@U?$less@H@2@V?$allocator@U?$pair@$$CBHV?$basic_string@DU?$char_traits@D@std@@V?$allocator@D@2@@std@@@std@@@2@$0A@@std@@@2@I@Z 0047a4c0 f i Token.obj
 0001:00079510       ??E?$_Tree_const_iterator@V?$_Tree_val@V?$_Tmap_traits@HV?$basic_string@DU?$char_traits@D@std@@V?$allocator@D@2@@std@@U?$less@H@2@V?$allocator@U?$pair@$$CBHV?$basic_string@DU?$char_traits@D@std@@V?$allocator@D@2@@std@@@std@@@2@$0A@@std@@@std@@@std@@QAE?AV01@H@Z 0047a510 f i Token.obj
 0001:000795f0       ??9?$_Tree_const_iterator@V?$_Tree_val@V?$_Tmap_traits@HV?$basic_string@DU?$char_traits@D@std@@V?$allocator@D@2@@std@@U?$less@H@2@V?$allocator@U?$pair@$$CBHV?$basic_string@DU?$char_traits@D@std@@V?$allocator@D@2@@std@@@std@@@2@$0A@@std@@@std@@@std@@QBE_NABV01@@Z 0047a5f0 f i Token.obj
 0001:00079640       ??0?$_Tree_unchecked_const_iterator@V?$_Tree_val@V?$_Tmap_traits@HV?$basic_string@DU?$char_traits@D@std@@V?$allocator@D@2@@std@@U?$less@H@2@V?$allocator@U?$pair@$$CBHV?$basic_string@DU?$char_traits@D@std@@V?$allocator@D@2@@std@@@std@@@2@$0A@@std@@@std@@U_Iterator_base12@2@@std@@QAE@PAU_Node@?$_Tree_nod@V?$_Tmap_traits@HV?$basic_string@DU?$char_traits@D@std@@V?$allocator@D@2@@std@@U?$less@H@2@V?$allocator@U?$pair@$$CBHV?$basic_string@DU?$char_traits@D@std@@V?$allocator@D@2@@std@@@std@@@2@$0A@@std@@@1@PBV?$_Tree_val@V?$_Tmap_traits@HV?$basic_string@DU?$char_traits@D@std@@V?$allocator@D@2@@std@@U?$less@H@2@V?$allocator@U?$pair@$$CBHV?$basic_string@DU?$char_traits@D@std@@V?$allocator@D@2@@std@@@std@@@2@$0A@@std@@@1@@Z 0047a640 f i Token.obj
 0001:000796e0       ?erase@?$_Tree@V?$_Tmap_traits@V?$basic_string@DU?$char_traits@D@std@@V?$allocator@D@2@@std@@W4SYMBOL@@U?$less@V?$basic_string@DU?$char_traits@D@std@@V?$allocator@D@2@@std@@@2@V?$allocator@U?$pair@$$CBV?$basic_string@DU?$char_traits@D@std@@V?$allocator@D@2@@std@@W4SYMBOL@@@std@@@2@$0A@@std@@@std@@QAE?AV?$_Tree_iterator@V?$_Tree_val@V?$_Tmap_traits@V?$basic_string@DU?$char_traits@D@std@@V?$allocator@D@2@@std@@W4SYMBOL@@U?$less@V?$basic_string@DU?$char_traits@D@std@@V?$allocator@D@2@@std@@@2@V?$allocator@U?$pair@$$CBV?$basic_string@DU?$char_traits@D@std@@V?$allocator@D@2@@std@@W4SYMBOL@@@std@@@2@$0A@@std@@@std@@@2@V?$_Tree_const_iterator@V?$_Tree_val@V?$_Tmap_traits@V?$basic_string@DU?$char_traits@D@std@@V?$allocator@D@2@@std@@W4SYMBOL@@U?$less@V?$basic_string@DU?$char_traits@D@std@@V?$allocator@D@2@@std@@@2@V?$allocator@U?$pair@$$CBV?$basic_string@DU?$char_traits@D@std@@V?$allocator@D@2@@std@@W4SYMBOL@@@std@@@2@$0A@@std@@@std@@@2@@Z 0047a6e0 f i Token.obj
 0001:00079f30       ?clear@?$_Tree@V?$_Tmap_traits@V?$basic_string@DU?$char_traits@D@std@@V?$allocator@D@2@@std@@W4SYMBOL@@U?$less@V?$basic_string@DU?$char_traits@D@std@@V?$allocator@D@2@@std@@@2@V?$allocator@U?$pair@$$CBV?$basic_string@DU?$char_traits@D@std@@V?$allocator@D@2@@std@@W4SYMBOL@@@std@@@2@$0A@@std@@@std@@QAEXXZ 0047af30 f i Token.obj
 0001:00079fd0       ?_Lmost@?$_Tree@V?$_Tmap_traits@V?$basic_string@DU?$char_traits@D@std@@V?$allocator@D@2@@std@@W4SYMBOL@@U?$less@V?$basic_string@DU?$char_traits@D@std@@V?$allocator@D@2@@std@@@2@V?$allocator@U?$pair@$$CBV?$basic_string@DU?$char_traits@D@std@@V?$allocator@D@2@@std@@W4SYMBOL@@@std@@@2@$0A@@std@@@std@@IBEAAPAU_Node@?$_Tree_nod@V?$_Tmap_traits@V?$basic_string@DU?$char_traits@D@std@@V?$allocator@D@2@@std@@W4SYMBOL@@U?$less@V?$basic_string@DU?$char_traits@D@std@@V?$allocator@D@2@@std@@@2@V?$allocator@U?$pair@$$CBV?$basic_string@DU?$char_traits@D@std@@V?$allocator@D@2@@std@@W4SYMBOL@@@std@@@2@$0A@@std@@@2@XZ 0047afd0 f i Token.obj
 0001:0007a020       ?_Root@?$_Tree@V?$_Tmap_traits@V?$basic_string@DU?$char_traits@D@std@@V?$allocator@D@2@@std@@W4SYMBOL@@U?$less@V?$basic_string@DU?$char_traits@D@std@@V?$allocator@D@2@@std@@@2@V?$allocator@U?$pair@$$CBV?$basic_string@DU?$char_traits@D@std@@V?$allocator@D@2@@std@@W4SYMBOL@@@std@@@2@$0A@@std@@@std@@IBEAAPAU_Node@?$_Tree_nod@V?$_Tmap_traits@V?$basic_string@DU?$char_traits@D@std@@V?$allocator@D@2@@std@@W4SYMBOL@@U?$less@V?$basic_string@DU?$char_traits@D@std@@V?$allocator@D@2@@std@@@2@V?$allocator@U?$pair@$$CBV?$basic_string@DU?$char_traits@D@std@@V?$allocator@D@2@@std@@W4SYMBOL@@@std@@@2@$0A@@std@@@2@XZ 0047b020 f i Token.obj
 0001:0007a070       ?_Color@?$_Tree_val@V?$_Tmap_traits@V?$basic_string@DU?$char_traits@D@std@@V?$allocator@D@2@@std@@W4SYMBOL@@U?$less@V?$basic_string@DU?$char_traits@D@std@@V?$allocator@D@2@@std@@@2@V?$allocator@U?$pair@$$CBV?$basic_string@DU?$char_traits@D@std@@V?$allocator@D@2@@std@@W4SYMBOL@@@std@@@2@$0A@@std@@@std@@SAAADPAU_Node@?$_Tree_nod@V?$_Tmap_traits@V?$basic_string@DU?$char_traits@D@std@@V?$allocator@D@2@@std@@W4SYMBOL@@U?$less@V?$basic_string@DU?$char_traits@D@std@@V?$allocator@D@2@@std@@@2@V?$allocator@U?$pair@$$CBV?$basic_string@DU?$char_traits@D@std@@V?$allocator@D@2@@std@@W4SYMBOL@@@std@@@2@$0A@@std@@@2@@Z 0047b070 f i Token.obj
 0001:0007a0a0       ?_Isnil@?$_Tree_val@V?$_Tmap_traits@V?$basic_string@DU?$char_traits@D@std@@V?$allocator@D@2@@std@@W4SYMBOL@@U?$less@V?$basic_string@DU?$char_traits@D@std@@V?$allocator@D@2@@std@@@2@V?$allocator@U?$pair@$$CBV?$basic_string@DU?$char_traits@D@std@@V?$allocator@D@2@@std@@W4SYMBOL@@@std@@@2@$0A@@std@@@std@@SAAADPAU_Node@?$_Tree_nod@V?$_Tmap_traits@V?$basic_string@DU?$char_traits@D@std@@V?$allocator@D@2@@std@@W4SYMBOL@@U?$less@V?$basic_string@DU?$char_traits@D@std@@V?$allocator@D@2@@std@@@2@V?$allocator@U?$pair@$$CBV?$basic_string@DU?$char_traits@D@std@@V?$allocator@D@2@@std@@W4SYMBOL@@@std@@@2@$0A@@std@@@2@@Z 0047b0a0 f i Token.obj
 0001:0007a0d0       ?_Left@?$_Tree_val@V?$_Tmap_traits@V?$basic_string@DU?$char_traits@D@std@@V?$allocator@D@2@@std@@W4SYMBOL@@U?$less@V?$basic_string@DU?$char_traits@D@std@@V?$allocator@D@2@@std@@@2@V?$allocator@U?$pair@$$CBV?$basic_string@DU?$char_traits@D@std@@V?$allocator@D@2@@std@@W4SYMBOL@@@std@@@2@$0A@@std@@@std@@SAAAPAU_Node@?$_Tree_nod@V?$_Tmap_traits@V?$basic_string@DU?$char_traits@D@std@@V?$allocator@D@2@@std@@W4SYMBOL@@U?$less@V?$basic_string@DU?$char_traits@D@std@@V?$allocator@D@2@@std@@@2@V?$allocator@U?$pair@$$CBV?$basic_string@DU?$char_traits@D@std@@V?$allocator@D@2@@std@@W4SYMBOL@@@std@@@2@$0A@@std@@@2@PAU342@@Z 0047b0d0 f i Token.obj
 0001:0007a100       ?_Parent@?$_Tree_val@V?$_Tmap_traits@V?$basic_string@DU?$char_traits@D@std@@V?$allocator@D@2@@std@@W4SYMBOL@@U?$less@V?$basic_string@DU?$char_traits@D@std@@V?$allocator@D@2@@std@@@2@V?$allocator@U?$pair@$$CBV?$basic_string@DU?$char_traits@D@std@@V?$allocator@D@2@@std@@W4SYMBOL@@@std@@@2@$0A@@std@@@std@@SAAAPAU_Node@?$_Tree_nod@V?$_Tmap_traits@V?$basic_string@DU?$char_traits@D@std@@V?$allocator@D@2@@std@@W4SYMBOL@@U?$less@V?$basic_string@DU?$char_traits@D@std@@V?$allocator@D@2@@std@@@2@V?$allocator@U?$pair@$$CBV?$basic_string@DU?$char_traits@D@std@@V?$allocator@D@2@@std@@W4SYMBOL@@@std@@@2@$0A@@std@@@2@PAU342@@Z 0047b100 f i Token.obj
 0001:0007a130       ?_Right@?$_Tree_val@V?$_Tmap_traits@V?$basic_string@DU?$char_traits@D@std@@V?$allocator@D@2@@std@@W4SYMBOL@@U?$less@V?$basic_string@DU?$char_traits@D@std@@V?$allocator@D@2@@std@@@2@V?$allocator@U?$pair@$$CBV?$basic_string@DU?$char_traits@D@std@@V?$allocator@D@2@@std@@W4SYMBOL@@@std@@@2@$0A@@std@@@std@@SAAAPAU_Node@?$_Tree_nod@V?$_Tmap_traits@V?$basic_string@DU?$char_traits@D@std@@V?$allocator@D@2@@std@@W4SYMBOL@@U?$less@V?$basic_string@DU?$char_traits@D@std@@V?$allocator@D@2@@std@@@2@V?$allocator@U?$pair@$$CBV?$basic_string@DU?$char_traits@D@std@@V?$allocator@D@2@@std@@W4SYMBOL@@@std@@@2@$0A@@std@@@2@PAU342@@Z 0047b130 f i Token.obj
 0001:0007a160       ??0?$_Tree_nod@V?$_Tmap_traits@V?$basic_string@DU?$char_traits@D@std@@V?$allocator@D@2@@std@@W4SYMBOL@@U?$less@V?$basic_string@DU?$char_traits@D@std@@V?$allocator@D@2@@std@@@2@V?$allocator@U?$pair@$$CBV?$basic_string@DU?$char_traits@D@std@@V?$allocator@D@2@@std@@W4SYMBOL@@@std@@@2@$0A@@std@@@std@@QAE@ABU?$less@V?$basic_string@DU?$char_traits@D@std@@V?$allocator@D@2@@std@@@1@V?$allocator@U?$pair@$$CBV?$basic_string@DU?$char_traits@D@std@@V?$allocator@D@2@@std@@W4SYMBOL@@@std@@@1@@Z 0047b160 f i Token.obj
 0001:0007a280       ?allocate@?$allocator@U_Node@?$_Tree_nod@V?$_Tmap_traits@V?$basic_string@DU?$char_traits@D@std@@V?$allocator@D@2@@std@@W4SYMBOL@@U?$less@V?$basic_string@DU?$char_traits@D@std@@V?$allocator@D@2@@std@@@2@V?$allocator@U?$pair@$$CBV?$basic_string@DU?$char_traits@D@std@@V?$allocator@D@2@@std@@W4SYMBOL@@@std@@@2@$0A@@std@@@std@@@std@@QAEPAU_Node@?$_Tree_nod@V?$_Tmap_traits@V?$basic_string@DU?$char_traits@D@std@@V?$allocator@D@2@@std@@W4SYMBOL@@U?$less@V?$basic_string@DU?$char_traits@D@std@@V?$allocator@D@2@@std@@@2@V?$allocator@U?$pair@$$CBV?$basic_string@DU?$char_traits@D@std@@V?$allocator@D@2@@std@@W4SYMBOL@@@std@@@2@$0A@@std@@@2@I@Z 0047b280 f i Token.obj
 0001:0007a2d0       ??E?$_Tree_const_iterator@V?$_Tree_val@V?$_Tmap_traits@V?$basic_string@DU?$char_traits@D@std@@V?$allocator@D@2@@std@@W4SYMBOL@@U?$less@V?$basic_string@DU?$char_traits@D@std@@V?$allocator@D@2@@std@@@2@V?$allocator@U?$pair@$$CBV?$basic_string@DU?$char_traits@D@std@@V?$allocator@D@2@@std@@W4SYMBOL@@@std@@@2@$0A@@std@@@std@@@std@@QAE?AV01@H@Z 0047b2d0 f i Token.obj
 0001:0007a3b0       ??9?$_Tree_const_iterator@V?$_Tree_val@V?$_Tmap_traits@V?$basic_string@DU?$char_traits@D@std@@V?$allocator@D@2@@std@@W4SYMBOL@@U?$less@V?$basic_string@DU?$char_traits@D@std@@V?$allocator@D@2@@std@@@2@V?$allocator@U?$pair@$$CBV?$basic_string@DU?$char_traits@D@std@@V?$allocator@D@2@@std@@W4SYMBOL@@@std@@@2@$0A@@std@@@std@@@std@@QBE_NABV01@@Z 0047b3b0 f i Token.obj
 0001:0007a400       ??0?$_Tree_unchecked_const_iterator@V?$_Tree_val@V?$_Tmap_traits@V?$basic_string@DU?$char_traits@D@std@@V?$allocator@D@2@@std@@W4SYMBOL@@U?$less@V?$basic_string@DU?$char_traits@D@std@@V?$allocator@D@2@@std@@@2@V?$allocator@U?$pair@$$CBV?$basic_string@DU?$char_traits@D@std@@V?$allocator@D@2@@std@@W4SYMBOL@@@std@@@2@$0A@@std@@@std@@U_Iterator_base12@2@@std@@QAE@PAU_Node@?$_Tree_nod@V?$_Tmap_traits@V?$basic_string@DU?$char_traits@D@std@@V?$allocator@D@2@@std@@W4SYMBOL@@U?$less@V?$basic_string@DU?$char_traits@D@std@@V?$allocator@D@2@@std@@@2@V?$allocator@U?$pair@$$CBV?$basic_string@DU?$char_traits@D@std@@V?$allocator@D@2@@std@@W4SYMBOL@@@std@@@2@$0A@@std@@@1@PBV?$_Tree_val@V?$_Tmap_traits@V?$basic_string@DU?$char_traits@D@std@@V?$allocator@D@2@@std@@W4SYMBOL@@U?$less@V?$basic_string@DU?$char_traits@D@std@@V?$allocator@D@2@@std@@@2@V?$allocator@U?$pair@$$CBV?$basic_string@DU?$char_traits@D@std@@V?$allocator@D@2@@std@@W4SYMBOL@@@std@@@2@$0A@@std@@@1@@Z 0047b400 f i Token.obj
 0001:0007a4a0       ??0?$_Iterator012@Ubidirectional_iterator_tag@std@@U?$pair@$$CBHV?$basic_string@DU?$char_traits@D@std@@V?$allocator@D@2@@std@@@2@HPBU32@ABU32@U_Iterator_base12@2@@std@@QAE@XZ 0047b4a0 f i Token.obj
 0001:0007a4f0       ??0?$_Iterator012@Ubidirectional_iterator_tag@std@@U?$pair@$$CBV?$basic_string@DU?$char_traits@D@std@@V?$allocator@D@2@@std@@W4SYMBOL@@@2@HPBU32@ABU32@U_Iterator_base12@2@@std@@QAE@XZ 0047b4f0 f i Token.obj
 0001:0007a540       ?_Erase@?$_Tree@V?$_Tmap_traits@HV?$basic_string@DU?$char_traits@D@std@@V?$allocator@D@2@@std@@U?$less@H@2@V?$allocator@U?$pair@$$CBHV?$basic_string@DU?$char_traits@D@std@@V?$allocator@D@2@@std@@@std@@@2@$0A@@std@@@std@@IAEXPAU_Node@?$_Tree_nod@V?$_Tmap_traits@HV?$basic_string@DU?$char_traits@D@std@@V?$allocator@D@2@@std@@U?$less@H@2@V?$allocator@U?$pair@$$CBHV?$basic_string@DU?$char_traits@D@std@@V?$allocator@D@2@@std@@@std@@@2@$0A@@std@@@2@@Z 0047b540 f i Token.obj
 0001:0007a600       ?_Lrotate@?$_Tree@V?$_Tmap_traits@HV?$basic_string@DU?$char_traits@D@std@@V?$allocator@D@2@@std@@U?$less@H@2@V?$allocator@U?$pair@$$CBHV?$basic_string@DU?$char_traits@D@std@@V?$allocator@D@2@@std@@@std@@@2@$0A@@std@@@std@@IAEXPAU_Node@?$_Tree_nod@V?$_Tmap_traits@HV?$basic_string@DU?$char_traits@D@std@@V?$allocator@D@2@@std@@U?$less@H@2@V?$allocator@U?$pair@$$CBHV?$basic_string@DU?$char_traits@D@std@@V?$allocator@D@2@@std@@@std@@@2@$0A@@std@@@2@@Z 0047b600 f i Token.obj
 0001:0007a760       ?_Rmost@?$_Tree@V?$_Tmap_traits@HV?$basic_string@DU?$char_traits@D@std@@V?$allocator@D@2@@std@@U?$less@H@2@V?$allocator@U?$pair@$$CBHV?$basic_string@DU?$char_traits@D@std@@V?$allocator@D@2@@std@@@std@@@2@$0A@@std@@@std@@IBEAAPAU_Node@?$_Tree_nod@V?$_Tmap_traits@HV?$basic_string@DU?$char_traits@D@std@@V?$allocator@D@2@@std@@U?$less@H@2@V?$allocator@U?$pair@$$CBHV?$basic_string@DU?$char_traits@D@std@@V?$allocator@D@2@@std@@@std@@@2@$0A@@std@@@2@XZ 0047b760 f i Token.obj
 0001:0007a7b0       ?_Rrotate@?$_Tree@V?$_Tmap_traits@HV?$basic_string@DU?$char_traits@D@std@@V?$allocator@D@2@@std@@U?$less@H@2@V?$allocator@U?$pair@$$CBHV?$basic_string@DU?$char_traits@D@std@@V?$allocator@D@2@@std@@@std@@@2@$0A@@std@@@std@@IAEXPAU_Node@?$_Tree_nod@V?$_Tmap_traits@HV?$basic_string@DU?$char_traits@D@std@@V?$allocator@D@2@@std@@U?$less@H@2@V?$allocator@U?$pair@$$CBHV?$basic_string@DU?$char_traits@D@std@@V?$allocator@D@2@@std@@@std@@@2@$0A@@std@@@2@@Z 0047b7b0 f i Token.obj
 0001:0007a910       ?_Orphan_ptr@?$_Tree@V?$_Tmap_traits@HV?$basic_string@DU?$char_traits@D@std@@V?$allocator@D@2@@std@@U?$less@H@2@V?$allocator@U?$pair@$$CBHV?$basic_string@DU?$char_traits@D@std@@V?$allocator@D@2@@std@@@std@@@2@$0A@@std@@@std@@IBEXAAV12@PAU_Node@?$_Tree_nod@V?$_Tmap_traits@HV?$basic_string@DU?$char_traits@D@std@@V?$allocator@D@2@@std@@U?$less@H@2@V?$allocator@U?$pair@$$CBHV?$basic_string@DU?$char_traits@D@std@@V?$allocator@D@2@@std@@@std@@@2@$0A@@std@@@2@@Z 0047b910 f i Token.obj
 0001:0007aa50       ?_Max@?$_Tree_val@V?$_Tmap_traits@HV?$basic_string@DU?$char_traits@D@std@@V?$allocator@D@2@@std@@U?$less@H@2@V?$allocator@U?$pair@$$CBHV?$basic_string@DU?$char_traits@D@std@@V?$allocator@D@2@@std@@@std@@@2@$0A@@std@@@std@@SAPAU_Node@?$_Tree_nod@V?$_Tmap_traits@HV?$basic_string@DU?$char_traits@D@std@@V?$allocator@D@2@@std@@U?$less@H@2@V?$allocator@U?$pair@$$CBHV?$basic_string@DU?$char_traits@D@std@@V?$allocator@D@2@@std@@@std@@@2@$0A@@std@@@2@PAU342@@Z 0047ba50 f i Token.obj
 0001:0007aac0       ?_Min@?$_Tree_val@V?$_Tmap_traits@HV?$basic_string@DU?$char_traits@D@std@@V?$allocator@D@2@@std@@U?$less@H@2@V?$allocator@U?$pair@$$CBHV?$basic_string@DU?$char_traits@D@std@@V?$allocator@D@2@@std@@@std@@@2@$0A@@std@@@std@@SAPAU_Node@?$_Tree_nod@V?$_Tmap_traits@HV?$basic_string@DU?$char_traits@D@std@@V?$allocator@D@2@@std@@U?$less@H@2@V?$allocator@U?$pair@$$CBHV?$basic_string@DU?$char_traits@D@std@@V?$allocator@D@2@@std@@@std@@@2@$0A@@std@@@2@PAU342@@Z 0047bac0 f i Token.obj
 0001:0007ab30       ??0?$_Tmap_traits@HV?$basic_string@DU?$char_traits@D@std@@V?$allocator@D@2@@std@@U?$less@H@2@V?$allocator@U?$pair@$$CBHV?$basic_string@DU?$char_traits@D@std@@V?$allocator@D@2@@std@@@std@@@2@$0A@@std@@QAE@U?$less@H@1@@Z 0047bb30 f i Token.obj
 0001:0007ab80       ??E?$_Tree_const_iterator@V?$_Tree_val@V?$_Tmap_traits@HV?$basic_string@DU?$char_traits@D@std@@V?$allocator@D@2@@std@@U?$less@H@2@V?$allocator@U?$pair@$$CBHV?$basic_string@DU?$char_traits@D@std@@V?$allocator@D@2@@std@@@std@@@2@$0A@@std@@@std@@@std@@QAEAAV01@XZ 0047bb80 f i Token.obj
 0001:0007ac80       ?_Erase@?$_Tree@V?$_Tmap_traits@V?$basic_string@DU?$char_traits@D@std@@V?$allocator@D@2@@std@@W4SYMBOL@@U?$less@V?$basic_string@DU?$char_traits@D@std@@V?$allocator@D@2@@std@@@2@V?$allocator@U?$pair@$$CBV?$basic_string@DU?$char_traits@D@std@@V?$allocator@D@2@@std@@W4SYMBOL@@@std@@@2@$0A@@std@@@std@@IAEXPAU_Node@?$_Tree_nod@V?$_Tmap_traits@V?$basic_string@DU?$char_traits@D@std@@V?$allocator@D@2@@std@@W4SYMBOL@@U?$less@V?$basic_string@DU?$char_traits@D@std@@V?$allocator@D@2@@std@@@2@V?$allocator@U?$pair@$$CBV?$basic_string@DU?$char_traits@D@std@@V?$allocator@D@2@@std@@W4SYMBOL@@@std@@@2@$0A@@std@@@2@@Z 0047bc80 f i Token.obj
 0001:0007ad40       ?_Lrotate@?$_Tree@V?$_Tmap_traits@V?$basic_string@DU?$char_traits@D@std@@V?$allocator@D@2@@std@@W4SYMBOL@@U?$less@V?$basic_string@DU?$char_traits@D@std@@V?$allocator@D@2@@std@@@2@V?$allocator@U?$pair@$$CBV?$basic_string@DU?$char_traits@D@std@@V?$allocator@D@2@@std@@W4SYMBOL@@@std@@@2@$0A@@std@@@std@@IAEXPAU_Node@?$_Tree_nod@V?$_Tmap_traits@V?$basic_string@DU?$char_traits@D@std@@V?$allocator@D@2@@std@@W4SYMBOL@@U?$less@V?$basic_string@DU?$char_traits@D@std@@V?$allocator@D@2@@std@@@2@V?$allocator@U?$pair@$$CBV?$basic_string@DU?$char_traits@D@std@@V?$allocator@D@2@@std@@W4SYMBOL@@@std@@@2@$0A@@std@@@2@@Z 0047bd40 f i Token.obj
 0001:0007aea0       ?_Rmost@?$_Tree@V?$_Tmap_traits@V?$basic_string@DU?$char_traits@D@std@@V?$allocator@D@2@@std@@W4SYMBOL@@U?$less@V?$basic_string@DU?$char_traits@D@std@@V?$allocator@D@2@@std@@@2@V?$allocator@U?$pair@$$CBV?$basic_string@DU?$char_traits@D@std@@V?$allocator@D@2@@std@@W4SYMBOL@@@std@@@2@$0A@@std@@@std@@IBEAAPAU_Node@?$_Tree_nod@V?$_Tmap_traits@V?$basic_string@DU?$char_traits@D@std@@V?$allocator@D@2@@std@@W4SYMBOL@@U?$less@V?$basic_string@DU?$char_traits@D@std@@V?$allocator@D@2@@std@@@2@V?$allocator@U?$pair@$$CBV?$basic_string@DU?$char_traits@D@std@@V?$allocator@D@2@@std@@W4SYMBOL@@@std@@@2@$0A@@std@@@2@XZ 0047bea0 f i Token.obj
 0001:0007aef0       ?_Rrotate@?$_Tree@V?$_Tmap_traits@V?$basic_string@DU?$char_traits@D@std@@V?$allocator@D@2@@std@@W4SYMBOL@@U?$less@V?$basic_string@DU?$char_traits@D@std@@V?$allocator@D@2@@std@@@2@V?$allocator@U?$pair@$$CBV?$basic_string@DU?$char_traits@D@std@@V?$allocator@D@2@@std@@W4SYMBOL@@@std@@@2@$0A@@std@@@std@@IAEXPAU_Node@?$_Tree_nod@V?$_Tmap_traits@V?$basic_string@DU?$char_traits@D@std@@V?$allocator@D@2@@std@@W4SYMBOL@@U?$less@V?$basic_string@DU?$char_traits@D@std@@V?$allocator@D@2@@std@@@2@V?$allocator@U?$pair@$$CBV?$basic_string@DU?$char_traits@D@std@@V?$allocator@D@2@@std@@W4SYMBOL@@@std@@@2@$0A@@std@@@2@@Z 0047bef0 f i Token.obj
 0001:0007b050       ?_Orphan_ptr@?$_Tree@V?$_Tmap_traits@V?$basic_string@DU?$char_traits@D@std@@V?$allocator@D@2@@std@@W4SYMBOL@@U?$less@V?$basic_string@DU?$char_traits@D@std@@V?$allocator@D@2@@std@@@2@V?$allocator@U?$pair@$$CBV?$basic_string@DU?$char_traits@D@std@@V?$allocator@D@2@@std@@W4SYMBOL@@@std@@@2@$0A@@std@@@std@@IBEXAAV12@PAU_Node@?$_Tree_nod@V?$_Tmap_traits@V?$basic_string@DU?$char_traits@D@std@@V?$allocator@D@2@@std@@W4SYMBOL@@U?$less@V?$basic_string@DU?$char_traits@D@std@@V?$allocator@D@2@@std@@@2@V?$allocator@U?$pair@$$CBV?$basic_string@DU?$char_traits@D@std@@V?$allocator@D@2@@std@@W4SYMBOL@@@std@@@2@$0A@@std@@@2@@Z 0047c050 f i Token.obj
 0001:0007b190       ?_Max@?$_Tree_val@V?$_Tmap_traits@V?$basic_string@DU?$char_traits@D@std@@V?$allocator@D@2@@std@@W4SYMBOL@@U?$less@V?$basic_string@DU?$char_traits@D@std@@V?$allocator@D@2@@std@@@2@V?$allocator@U?$pair@$$CBV?$basic_string@DU?$char_traits@D@std@@V?$allocator@D@2@@std@@W4SYMBOL@@@std@@@2@$0A@@std@@@std@@SAPAU_Node@?$_Tree_nod@V?$_Tmap_traits@V?$basic_string@DU?$char_traits@D@std@@V?$allocator@D@2@@std@@W4SYMBOL@@U?$less@V?$basic_string@DU?$char_traits@D@std@@V?$allocator@D@2@@std@@@2@V?$allocator@U?$pair@$$CBV?$basic_string@DU?$char_traits@D@std@@V?$allocator@D@2@@std@@W4SYMBOL@@@std@@@2@$0A@@std@@@2@PAU342@@Z 0047c190 f i Token.obj
 0001:0007b200       ?_Min@?$_Tree_val@V?$_Tmap_traits@V?$basic_string@DU?$char_traits@D@std@@V?$allocator@D@2@@std@@W4SYMBOL@@U?$less@V?$basic_string@DU?$char_traits@D@std@@V?$allocator@D@2@@std@@@2@V?$allocator@U?$pair@$$CBV?$basic_string@DU?$char_traits@D@std@@V?$allocator@D@2@@std@@W4SYMBOL@@@std@@@2@$0A@@std@@@std@@SAPAU_Node@?$_Tree_nod@V?$_Tmap_traits@V?$basic_string@DU?$char_traits@D@std@@V?$allocator@D@2@@std@@W4SYMBOL@@U?$less@V?$basic_string@DU?$char_traits@D@std@@V?$allocator@D@2@@std@@@2@V?$allocator@U?$pair@$$CBV?$basic_string@DU?$char_traits@D@std@@V?$allocator@D@2@@std@@W4SYMBOL@@@std@@@2@$0A@@std@@@2@PAU342@@Z 0047c200 f i Token.obj
 0001:0007b270       ??0?$_Tmap_traits@V?$basic_string@DU?$char_traits@D@std@@V?$allocator@D@2@@std@@W4SYMBOL@@U?$less@V?$basic_string@DU?$char_traits@D@std@@V?$allocator@D@2@@std@@@2@V?$allocator@U?$pair@$$CBV?$basic_string@DU?$char_traits@D@std@@V?$allocator@D@2@@std@@W4SYMBOL@@@std@@@2@$0A@@std@@QAE@U?$less@V?$basic_string@DU?$char_traits@D@std@@V?$allocator@D@2@@std@@@1@@Z 0047c270 f i Token.obj
 0001:0007b2c0       ??E?$_Tree_const_iterator@V?$_Tree_val@V?$_Tmap_traits@V?$basic_string@DU?$char_traits@D@std@@V?$allocator@D@2@@std@@W4SYMBOL@@U?$less@V?$basic_string@DU?$char_traits@D@std@@V?$allocator@D@2@@std@@@2@V?$allocator@U?$pair@$$CBV?$basic_string@DU?$char_traits@D@std@@V?$allocator@D@2@@std@@W4SYMBOL@@@std@@@2@$0A@@std@@@std@@@std@@QAEAAV01@XZ 0047c2c0 f i Token.obj
 0001:0007b3c0       ??E?$_Tree_unchecked_const_iterator@V?$_Tree_val@V?$_Tmap_traits@HV?$basic_string@DU?$char_traits@D@std@@V?$allocator@D@2@@std@@U?$less@H@2@V?$allocator@U?$pair@$$CBHV?$basic_string@DU?$char_traits@D@std@@V?$allocator@D@2@@std@@@std@@@2@$0A@@std@@@std@@U_Iterator_base12@2@@std@@QAEAAV01@XZ 0047c3c0 f i Token.obj
 0001:0007b4b0       ??E?$_Tree_unchecked_const_iterator@V?$_Tree_val@V?$_Tmap_traits@V?$basic_string@DU?$char_traits@D@std@@V?$allocator@D@2@@std@@W4SYMBOL@@U?$less@V?$basic_string@DU?$char_traits@D@std@@V?$allocator@D@2@@std@@@2@V?$allocator@U?$pair@$$CBV?$basic_string@DU?$char_traits@D@std@@V?$allocator@D@2@@std@@W4SYMBOL@@@std@@@2@$0A@@std@@@std@@U_Iterator_base12@2@@std@@QAEAAV01@XZ 0047c4b0 f i Token.obj
 0001:0007b5a0       ??$move@AAH@std@@YA$$QAHAAH@Z 0047c5a0 f i Token.obj
 0001:0007b5d0       ??$insert@U?$pair@HV?$basic_string@DU?$char_traits@D@std@@V?$allocator@D@2@@std@@@std@@@?$_Tree@V?$_Tmap_traits@HV?$basic_string@DU?$char_traits@D@std@@V?$allocator@D@2@@std@@U?$less@H@2@V?$allocator@U?$pair@$$CBHV?$basic_string@DU?$char_traits@D@std@@V?$allocator@D@2@@std@@@std@@@2@$0A@@std@@@std@@QAE?AV?$_Tree_iterator@V?$_Tree_val@V?$_Tmap_traits@HV?$basic_string@DU?$char_traits@D@std@@V?$allocator@D@2@@std@@U?$less@H@2@V?$allocator@U?$pair@$$CBHV?$basic_string@DU?$char_traits@D@std@@V?$allocator@D@2@@std@@@std@@@2@$0A@@std@@@std@@@1@V?$_Tree_const_iterator@V?$_Tree_val@V?$_Tmap_traits@HV?$basic_string@DU?$char_traits@D@std@@V?$allocator@D@2@@std@@U?$less@H@2@V?$allocator@U?$pair@$$CBHV?$basic_string@DU?$char_traits@D@std@@V?$allocator@D@2@@std@@@std@@@2@$0A@@std@@@std@@@1@$$QAU?$pair@HV?$basic_string@DU?$char_traits@D@std@@V?$allocator@D@2@@std@@@1@@Z 0047c5d0 f i Token.obj
 0001:0007b6b0       ??$insert@U?$pair@$$CBV?$basic_string@DU?$char_traits@D@std@@V?$allocator@D@2@@std@@W4SYMBOL@@@std@@@?$_Tree@V?$_Tmap_traits@V?$basic_string@DU?$char_traits@D@std@@V?$allocator@D@2@@std@@W4SYMBOL@@U?$less@V?$basic_string@DU?$char_traits@D@std@@V?$allocator@D@2@@std@@@2@V?$allocator@U?$pair@$$CBV?$basic_string@DU?$char_traits@D@std@@V?$allocator@D@2@@std@@W4SYMBOL@@@std@@@2@$0A@@std@@@std@@QAE?AV?$_Tree_iterator@V?$_Tree_val@V?$_Tmap_traits@V?$basic_string@DU?$char_traits@D@std@@V?$allocator@D@2@@std@@W4SYMBOL@@U?$less@V?$basic_string@DU?$char_traits@D@std@@V?$allocator@D@2@@std@@@2@V?$allocator@U?$pair@$$CBV?$basic_string@DU?$char_traits@D@std@@V?$allocator@D@2@@std@@W4SYMBOL@@@std@@@2@$0A@@std@@@std@@@1@V?$_Tree_const_iterator@V?$_Tree_val@V?$_Tmap_traits@V?$basic_string@DU?$char_traits@D@std@@V?$allocator@D@2@@std@@W4SYMBOL@@U?$less@V?$basic_string@DU?$char_traits@D@std@@V?$allocator@D@2@@std@@@2@V?$allocator@U?$pair@$$CBV?$basic_string@DU?$char_traits@D@std@@V?$allocator@D@2@@std@@W4SYMBOL@@@std@@@2@$0A@@std@@@std@@@1@$$QAU?$pair@$$CBV?$basic_string@DU?$char_traits@D@std@@V?$allocator@D@2@@std@@W4SYMBOL@@@1@@Z 0047c6b0 f i Token.obj
 0001:0007b790       ??$_Kfn@$$CBHV?$basic_string@DU?$char_traits@D@std@@V?$allocator@D@2@@std@@@?$_Tmap_traits@HV?$basic_string@DU?$char_traits@D@std@@V?$allocator@D@2@@std@@U?$less@H@2@V?$allocator@U?$pair@$$CBHV?$basic_string@DU?$char_traits@D@std@@V?$allocator@D@2@@std@@@std@@@2@$0A@@std@@SAABHABU?$pair@$$CBHV?$basic_string@DU?$char_traits@D@std@@V?$allocator@D@2@@std@@@1@@Z 0047c790 f i Token.obj
 0001:0007b7c0       ??$_Kfn@$$CBV?$basic_string@DU?$char_traits@D@std@@V?$allocator@D@2@@std@@W4SYMBOL@@@?$_Tmap_traits@V?$basic_string@DU?$char_traits@D@std@@V?$allocator@D@2@@std@@W4SYMBOL@@U?$less@V?$basic_string@DU?$char_traits@D@std@@V?$allocator@D@2@@std@@@2@V?$allocator@U?$pair@$$CBV?$basic_string@DU?$char_traits@D@std@@V?$allocator@D@2@@std@@W4SYMBOL@@@std@@@2@$0A@@std@@SAABV?$basic_string@DU?$char_traits@D@std@@V?$allocator@D@2@@1@ABU?$pair@$$CBV?$basic_string@DU?$char_traits@D@std@@V?$allocator@D@2@@std@@W4SYMBOL@@@1@@Z 0047c7c0 f i Token.obj
 0001:0007b7f0       ??$move@AAW4SYMBOL@@@std@@YA$$QAW4SYMBOL@@AAW41@@Z 0047c7f0 f i Token.obj
 0001:0007b820       ??$?0U_Node@?$_Tree_nod@V?$_Tmap_traits@HV?$basic_string@DU?$char_traits@D@std@@V?$allocator@D@2@@std@@U?$less@H@2@V?$allocator@U?$pair@$$CBHV?$basic_string@DU?$char_traits@D@std@@V?$allocator@D@2@@std@@@std@@@2@$0A@@std@@@std@@@?$allocator@U_Container_proxy@std@@@std@@QAE@ABV?$allocator@U_Node@?$_Tree_nod@V?$_Tmap_traits@HV?$basic_string@DU?$char_traits@D@std@@V?$allocator@D@2@@std@@U?$less@H@2@V?$allocator@U?$pair@$$CBHV?$basic_string@DU?$char_traits@D@std@@V?$allocator@D@2@@std@@@std@@@2@$0A@@std@@@std@@@1@@Z 0047c820 f i Token.obj
 0001:0007b850       ??$?0U_Node@?$_Tree_nod@V?$_Tmap_traits@V?$basic_string@DU?$char_traits@D@std@@V?$allocator@D@2@@std@@W4SYMBOL@@U?$less@V?$basic_string@DU?$char_traits@D@std@@V?$allocator@D@2@@std@@@2@V?$allocator@U?$pair@$$CBV?$basic_string@DU?$char_traits@D@std@@V?$allocator@D@2@@std@@W4SYMBOL@@@std@@@2@$0A@@std@@@std@@@?$allocator@U_Container_proxy@std@@@std@@QAE@ABV?$allocator@U_Node@?$_Tree_nod@V?$_Tmap_traits@V?$basic_string@DU?$char_traits@D@std@@V?$allocator@D@2@@std@@W4SYMBOL@@U?$less@V?$basic_string@DU?$char_traits@D@std@@V?$allocator@D@2@@std@@@2@V?$allocator@U?$pair@$$CBV?$basic_string@DU?$char_traits@D@std@@V?$allocator@D@2@@std@@W4SYMBOL@@@std@@@2@$0A@@std@@@std@@@1@@Z 0047c850 f i Token.obj
 0001:0007b880       ??$addressof@U?$pair@$$CBHV?$basic_string@DU?$char_traits@D@std@@V?$allocator@D@2@@std@@@std@@@std@@YAPAU?$pair@$$CBHV?$basic_string@DU?$char_traits@D@std@@V?$allocator@D@2@@std@@@0@AAU10@@Z 0047c880 f i Token.obj
 0001:0007b8b0       ??$_Dest_val@V?$allocator@U?$pair@$$CBHV?$basic_string@DU?$char_traits@D@std@@V?$allocator@D@2@@std@@@std@@@std@@U?$pair@$$CBHV?$basic_string@DU?$char_traits@D@std@@V?$allocator@D@2@@std@@@2@@std@@YAXAAV?$allocator@U?$pair@$$CBHV?$basic_string@DU?$char_traits@D@std@@V?$allocator@D@2@@std@@@std@@@0@PAU?$pair@$$CBHV?$basic_string@DU?$char_traits@D@std@@V?$allocator@D@2@@std@@@0@@Z 0047c8b0 f i Token.obj
 0001:0007b8f0       ??$?0U?$pair@$$CBHV?$basic_string@DU?$char_traits@D@std@@V?$allocator@D@2@@std@@@std@@@?$allocator@U_Node@?$_Tree_nod@V?$_Tmap_traits@HV?$basic_string@DU?$char_traits@D@std@@V?$allocator@D@2@@std@@U?$less@H@2@V?$allocator@U?$pair@$$CBHV?$basic_string@DU?$char_traits@D@std@@V?$allocator@D@2@@std@@@std@@@2@$0A@@std@@@std@@@std@@QAE@ABV?$allocator@U?$pair@$$CBHV?$basic_string@DU?$char_traits@D@std@@V?$allocator@D@2@@std@@@std@@@1@@Z 0047c8f0 f i Token.obj
 0001:0007b920       ??$_Allocate@U_Node@?$_Tree_nod@V?$_Tmap_traits@HV?$basic_string@DU?$char_traits@D@std@@V?$allocator@D@2@@std@@U?$less@H@2@V?$allocator@U?$pair@$$CBHV?$basic_string@DU?$char_traits@D@std@@V?$allocator@D@2@@std@@@std@@@2@$0A@@std@@@std@@@std@@YAPAU_Node@?$_Tree_nod@V?$_Tmap_traits@HV?$basic_string@DU?$char_traits@D@std@@V?$allocator@D@2@@std@@U?$less@H@2@V?$allocator@U?$pair@$$CBHV?$basic_string@DU?$char_traits@D@std@@V?$allocator@D@2@@std@@@std@@@2@$0A@@std@@@0@IPAU120@@Z 0047c920 f i Token.obj
 0001:0007b9b0       ??$addressof@U?$pair@$$CBV?$basic_string@DU?$char_traits@D@std@@V?$allocator@D@2@@std@@W4SYMBOL@@@std@@@std@@YAPAU?$pair@$$CBV?$basic_string@DU?$char_traits@D@std@@V?$allocator@D@2@@std@@W4SYMBOL@@@0@AAU10@@Z 0047c9b0 f i Token.obj
 0001:0007b9e0       ??$_Dest_val@V?$allocator@U?$pair@$$CBV?$basic_string@DU?$char_traits@D@std@@V?$allocator@D@2@@std@@W4SYMBOL@@@std@@@std@@U?$pair@$$CBV?$basic_string@DU?$char_traits@D@std@@V?$allocator@D@2@@std@@W4SYMBOL@@@2@@std@@YAXAAV?$allocator@U?$pair@$$CBV?$basic_string@DU?$char_traits@D@std@@V?$allocator@D@2@@std@@W4SYMBOL@@@std@@@0@PAU?$pair@$$CBV?$basic_string@DU?$char_traits@D@std@@V?$allocator@D@2@@std@@W4SYMBOL@@@0@@Z 0047c9e0 f i Token.obj
 0001:0007ba20       ??$?0U?$pair@$$CBV?$basic_string@DU?$char_traits@D@std@@V?$allocator@D@2@@std@@W4SYMBOL@@@std@@@?$allocator@U_Node@?$_Tree_nod@V?$_Tmap_traits@V?$basic_string@DU?$char_traits@D@std@@V?$allocator@D@2@@std@@W4SYMBOL@@U?$less@V?$basic_string@DU?$char_traits@D@std@@V?$allocator@D@2@@std@@@2@V?$allocator@U?$pair@$$CBV?$basic_string@DU?$char_traits@D@std@@V?$allocator@D@2@@std@@W4SYMBOL@@@std@@@2@$0A@@std@@@std@@@std@@QAE@ABV?$allocator@U?$pair@$$CBV?$basic_string@DU?$char_traits@D@std@@V?$allocator@D@2@@std@@W4SYMBOL@@@std@@@1@@Z 0047ca20 f i Token.obj
 0001:0007ba50       ??$_Allocate@U_Node@?$_Tree_nod@V?$_Tmap_traits@V?$basic_string@DU?$char_traits@D@std@@V?$allocator@D@2@@std@@W4SYMBOL@@U?$less@V?$basic_string@DU?$char_traits@D@std@@V?$allocator@D@2@@std@@@2@V?$allocator@U?$pair@$$CBV?$basic_string@DU?$char_traits@D@std@@V?$allocator@D@2@@std@@W4SYMBOL@@@std@@@2@$0A@@std@@@std@@@std@@YAPAU_Node@?$_Tree_nod@V?$_Tmap_traits@V?$basic_string@DU?$char_traits@D@std@@V?$allocator@D@2@@std@@W4SYMBOL@@U?$less@V?$basic_string@DU?$char_traits@D@std@@V?$allocator@D@2@@std@@@2@V?$allocator@U?$pair@$$CBV?$basic_string@DU?$char_traits@D@std@@V?$allocator@D@2@@std@@W4SYMBOL@@@std@@@2@$0A@@std@@@0@IPAU120@@Z 0047ca50 f i Token.obj
 0001:0007bae0       ?_Insert@?$_Tree@V?$_Tmap_traits@HV?$basic_string@DU?$char_traits@D@std@@V?$allocator@D@2@@std@@U?$less@H@2@V?$allocator@U?$pair@$$CBHV?$basic_string@DU?$char_traits@D@std@@V?$allocator@D@2@@std@@@std@@@2@$0A@@std@@@std@@QAE?AV?$_Tree_iterator@V?$_Tree_val@V?$_Tmap_traits@HV?$basic_string@DU?$char_traits@D@std@@V?$allocator@D@2@@std@@U?$less@H@2@V?$allocator@U?$pair@$$CBHV?$basic_string@DU?$char_traits@D@std@@V?$allocator@D@2@@std@@@std@@@2@$0A@@std@@@std@@@2@V?$_Tree_const_iterator@V?$_Tree_val@V?$_Tmap_traits@HV?$basic_string@DU?$char_traits@D@std@@V?$allocator@D@2@@std@@U?$less@H@2@V?$allocator@U?$pair@$$CBHV?$basic_string@DU?$char_traits@D@std@@V?$allocator@D@2@@std@@@std@@@2@$0A@@std@@@std@@@2@PAU_Node@?$_Tree_nod@V?$_Tmap_traits@HV?$basic_string@DU?$char_traits@D@std@@V?$allocator@D@2@@std@@U?$less@H@2@V?$allocator@U?$pair@$$CBHV?$basic_string@DU?$char_traits@D@std@@V?$allocator@D@2@@std@@@std@@@2@$0A@@std@@@2@@Z 0047cae0 f i Token.obj
 0001:0007c6f0       ?destroy@?$allocator@U?$pair@$$CBHV?$basic_string@DU?$char_traits@D@std@@V?$allocator@D@2@@std@@@std@@@std@@QAEXPAU?$pair@$$CBHV?$basic_string@DU?$char_traits@D@std@@V?$allocator@D@2@@std@@@2@@Z 0047d6f0 f i Token.obj
 0001:0007c740       ?_Insert@?$_Tree@V?$_Tmap_traits@V?$basic_string@DU?$char_traits@D@std@@V?$allocator@D@2@@std@@W4SYMBOL@@U?$less@V?$basic_string@DU?$char_traits@D@std@@V?$allocator@D@2@@std@@@2@V?$allocator@U?$pair@$$CBV?$basic_string@DU?$char_traits@D@std@@V?$allocator@D@2@@std@@W4SYMBOL@@@std@@@2@$0A@@std@@@std@@QAE?AV?$_Tree_iterator@V?$_Tree_val@V?$_Tmap_traits@V?$basic_string@DU?$char_traits@D@std@@V?$allocator@D@2@@std@@W4SYMBOL@@U?$less@V?$basic_string@DU?$char_traits@D@std@@V?$allocator@D@2@@std@@@2@V?$allocator@U?$pair@$$CBV?$basic_string@DU?$char_traits@D@std@@V?$allocator@D@2@@std@@W4SYMBOL@@@std@@@2@$0A@@std@@@std@@@2@V?$_Tree_const_iterator@V?$_Tree_val@V?$_Tmap_traits@V?$basic_string@DU?$char_traits@D@std@@V?$allocator@D@2@@std@@W4SYMBOL@@U?$less@V?$basic_string@DU?$char_traits@D@std@@V?$allocator@D@2@@std@@@2@V?$allocator@U?$pair@$$CBV?$basic_string@DU?$char_traits@D@std@@V?$allocator@D@2@@std@@W4SYMBOL@@@std@@@2@$0A@@std@@@std@@@2@PAU_Node@?$_Tree_nod@V?$_Tmap_traits@V?$basic_string@DU?$char_traits@D@std@@V?$allocator@D@2@@std@@W4SYMBOL@@U?$less@V?$basic_string@DU?$char_traits@D@std@@V?$allocator@D@2@@std@@@2@V?$allocator@U?$pair@$$CBV?$basic_string@DU?$char_traits@D@std@@V?$allocator@D@2@@std@@W4SYMBOL@@@std@@@2@$0A@@std@@@2@@Z 0047d740 f i Token.obj
 0001:0007d350       ?destroy@?$allocator@U?$pair@$$CBV?$basic_string@DU?$char_traits@D@std@@V?$allocator@D@2@@std@@W4SYMBOL@@@std@@@std@@QAEXPAU?$pair@$$CBV?$basic_string@DU?$char_traits@D@std@@V?$allocator@D@2@@std@@W4SYMBOL@@@2@@Z 0047e350 f i Token.obj
 0001:0007d3a0       ??1?$pair@V?$_Tree_iterator@V?$_Tree_val@V?$_Tmap_traits@HV?$basic_string@DU?$char_traits@D@std@@V?$allocator@D@2@@std@@U?$less@H@2@V?$allocator@U?$pair@$$CBHV?$basic_string@DU?$char_traits@D@std@@V?$allocator@D@2@@std@@@std@@@2@$0A@@std@@@std@@@std@@_N@std@@QAE@XZ 0047e3a0 f i Token.obj
 0001:0007d3e0       ??1?$pair@V?$_Tree_iterator@V?$_Tree_val@V?$_Tmap_traits@V?$basic_string@DU?$char_traits@D@std@@V?$allocator@D@2@@std@@W4SYMBOL@@U?$less@V?$basic_string@DU?$char_traits@D@std@@V?$allocator@D@2@@std@@@2@V?$allocator@U?$pair@$$CBV?$basic_string@DU?$char_traits@D@std@@V?$allocator@D@2@@std@@W4SYMBOL@@@std@@@2@$0A@@std@@@std@@@std@@_N@std@@QAE@XZ 0047e3e0 f i Token.obj
 0001:0007d420       ??1?$_Pair_base@V?$_Tree_iterator@V?$_Tree_val@V?$_Tmap_traits@HV?$basic_string@DU?$char_traits@D@std@@V?$allocator@D@2@@std@@U?$less@H@2@V?$allocator@U?$pair@$$CBHV?$basic_string@DU?$char_traits@D@std@@V?$allocator@D@2@@std@@@std@@@2@$0A@@std@@@std@@@std@@_N@std@@QAE@XZ 0047e420 f i Token.obj
 0001:0007d460       ??1?$_Pair_base@V?$_Tree_iterator@V?$_Tree_val@V?$_Tmap_traits@V?$basic_string@DU?$char_traits@D@std@@V?$allocator@D@2@@std@@W4SYMBOL@@U?$less@V?$basic_string@DU?$char_traits@D@std@@V?$allocator@D@2@@std@@@2@V?$allocator@U?$pair@$$CBV?$basic_string@DU?$char_traits@D@std@@V?$allocator@D@2@@std@@W4SYMBOL@@@std@@@2@$0A@@std@@@std@@@std@@_N@std@@QAE@XZ 0047e460 f i Token.obj
 0001:0007d4a0       ?_Linsert@?$_Tree@V?$_Tmap_traits@HV?$basic_string@DU?$char_traits@D@std@@V?$allocator@D@2@@std@@U?$less@H@2@V?$allocator@U?$pair@$$CBHV?$basic_string@DU?$char_traits@D@std@@V?$allocator@D@2@@std@@@std@@@2@$0A@@std@@@std@@QAE?AU?$pair@V?$_Tree_iterator@V?$_Tree_val@V?$_Tmap_traits@HV?$basic_string@DU?$char_traits@D@std@@V?$allocator@D@2@@std@@U?$less@H@2@V?$allocator@U?$pair@$$CBHV?$basic_string@DU?$char_traits@D@std@@V?$allocator@D@2@@std@@@std@@@2@$0A@@std@@@std@@@std@@_N@2@PAU_Node@?$_Tree_nod@V?$_Tmap_traits@HV?$basic_string@DU?$char_traits@D@std@@V?$allocator@D@2@@std@@U?$less@H@2@V?$allocator@U?$pair@$$CBHV?$basic_string@DU?$char_traits@D@std@@V?$allocator@D@2@@std@@@std@@@2@$0A@@std@@@2@_N@Z 0047e4a0 f i Token.obj
 0001:0007d910       ?_Insert@?$_Tree@V?$_Tmap_traits@HV?$basic_string@DU?$char_traits@D@std@@V?$allocator@D@2@@std@@U?$less@H@2@V?$allocator@U?$pair@$$CBHV?$basic_string@DU?$char_traits@D@std@@V?$allocator@D@2@@std@@@std@@@2@$0A@@std@@@std@@IAE?AV?$_Tree_iterator@V?$_Tree_val@V?$_Tmap_traits@HV?$basic_string@DU?$char_traits@D@std@@V?$allocator@D@2@@std@@U?$less@H@2@V?$allocator@U?$pair@$$CBHV?$basic_string@DU?$char_traits@D@std@@V?$allocator@D@2@@std@@@std@@@2@$0A@@std@@@std@@@2@_NPAU_Node@?$_Tree_nod@V?$_Tmap_traits@HV?$basic_string@DU?$char_traits@D@std@@V?$allocator@D@2@@std@@U?$less@H@2@V?$allocator@U?$pair@$$CBHV?$basic_string@DU?$char_traits@D@std@@V?$allocator@D@2@@std@@@std@@@2@$0A@@std@@@2@1@Z 0047e910 f i Token.obj
 0001:0007dd90       ??0?$_Tree_const_iterator@V?$_Tree_val@V?$_Tmap_traits@HV?$basic_string@DU?$char_traits@D@std@@V?$allocator@D@2@@std@@U?$less@H@2@V?$allocator@U?$pair@$$CBHV?$basic_string@DU?$char_traits@D@std@@V?$allocator@D@2@@std@@@std@@@2@$0A@@std@@@std@@@std@@QAE@XZ 0047ed90 f i Token.obj
 0001:0007dde0       ??F?$_Tree_const_iterator@V?$_Tree_val@V?$_Tmap_traits@HV?$basic_string@DU?$char_traits@D@std@@V?$allocator@D@2@@std@@U?$less@H@2@V?$allocator@U?$pair@$$CBHV?$basic_string@DU?$char_traits@D@std@@V?$allocator@D@2@@std@@@std@@@2@$0A@@std@@@std@@@std@@QAEAAV01@XZ 0047ede0 f i Token.obj
 0001:0007df60       ?_Linsert@?$_Tree@V?$_Tmap_traits@V?$basic_string@DU?$char_traits@D@std@@V?$allocator@D@2@@std@@W4SYMBOL@@U?$less@V?$basic_string@DU?$char_traits@D@std@@V?$allocator@D@2@@std@@@2@V?$allocator@U?$pair@$$CBV?$basic_string@DU?$char_traits@D@std@@V?$allocator@D@2@@std@@W4SYMBOL@@@std@@@2@$0A@@std@@@std@@QAE?AU?$pair@V?$_Tree_iterator@V?$_Tree_val@V?$_Tmap_traits@V?$basic_string@DU?$char_traits@D@std@@V?$allocator@D@2@@std@@W4SYMBOL@@U?$less@V?$basic_string@DU?$char_traits@D@std@@V?$allocator@D@2@@std@@@2@V?$allocator@U?$pair@$$CBV?$basic_string@DU?$char_traits@D@std@@V?$allocator@D@2@@std@@W4SYMBOL@@@std@@@2@$0A@@std@@@std@@@std@@_N@2@PAU_Node@?$_Tree_nod@V?$_Tmap_traits@V?$basic_string@DU?$char_traits@D@std@@V?$allocator@D@2@@std@@W4SYMBOL@@U?$less@V?$basic_string@DU?$char_traits@D@std@@V?$allocator@D@2@@std@@@2@V?$allocator@U?$pair@$$CBV?$basic_string@DU?$char_traits@D@std@@V?$allocator@D@2@@std@@W4SYMBOL@@@std@@@2@$0A@@std@@@2@_N@Z 0047ef60 f i Token.obj
 0001:0007e3d0       ?_Insert@?$_Tree@V?$_Tmap_traits@V?$basic_string@DU?$char_traits@D@std@@V?$allocator@D@2@@std@@W4SYMBOL@@U?$less@V?$basic_string@DU?$char_traits@D@std@@V?$allocator@D@2@@std@@@2@V?$allocator@U?$pair@$$CBV?$basic_string@DU?$char_traits@D@std@@V?$allocator@D@2@@std@@W4SYMBOL@@@std@@@2@$0A@@std@@@std@@IAE?AV?$_Tree_iterator@V?$_Tree_val@V?$_Tmap_traits@V?$basic_string@DU?$char_traits@D@std@@V?$allocator@D@2@@std@@W4SYMBOL@@U?$less@V?$basic_string@DU?$char_traits@D@std@@V?$allocator@D@2@@std@@@2@V?$allocator@U?$pair@$$CBV?$basic_string@DU?$char_traits@D@std@@V?$allocator@D@2@@std@@W4SYMBOL@@@std@@@2@$0A@@std@@@std@@@2@_NPAU_Node@?$_Tree_nod@V?$_Tmap_traits@V?$basic_string@DU?$char_traits@D@std@@V?$allocator@D@2@@std@@W4SYMBOL@@U?$less@V?$basic_string@DU?$char_traits@D@std@@V?$allocator@D@2@@std@@@2@V?$allocator@U?$pair@$$CBV?$basic_string@DU?$char_traits@D@std@@V?$allocator@D@2@@std@@W4SYMBOL@@@std@@@2@$0A@@std@@@2@1@Z 0047f3d0 f i Token.obj
 0001:0007e850       ??0?$_Tree_const_iterator@V?$_Tree_val@V?$_Tmap_traits@V?$basic_string@DU?$char_traits@D@std@@V?$allocator@D@2@@std@@W4SYMBOL@@U?$less@V?$basic_string@DU?$char_traits@D@std@@V?$allocator@D@2@@std@@@2@V?$allocator@U?$pair@$$CBV?$basic_string@DU?$char_traits@D@std@@V?$allocator@D@2@@std@@W4SYMBOL@@@std@@@2@$0A@@std@@@std@@@std@@QAE@XZ 0047f850 f i Token.obj
 0001:0007e8a0       ??F?$_Tree_const_iterator@V?$_Tree_val@V?$_Tmap_traits@V?$basic_string@DU?$char_traits@D@std@@V?$allocator@D@2@@std@@W4SYMBOL@@U?$less@V?$basic_string@DU?$char_traits@D@std@@V?$allocator@D@2@@std@@@2@V?$allocator@U?$pair@$$CBV?$basic_string@DU?$char_traits@D@std@@V?$allocator@D@2@@std@@W4SYMBOL@@@std@@@2@$0A@@std@@@std@@@std@@QAEAAV01@XZ 0047f8a0 f i Token.obj
 0001:0007ea20       ?max_size@?$_Tree@V?$_Tmap_traits@HV?$basic_string@DU?$char_traits@D@std@@V?$allocator@D@2@@std@@U?$less@H@2@V?$allocator@U?$pair@$$CBHV?$basic_string@DU?$char_traits@D@std@@V?$allocator@D@2@@std@@@std@@@2@$0A@@std@@@std@@QBEIXZ 0047fa20 f i Token.obj
 0001:0007ea70       ??0?$_Tree_unchecked_const_iterator@V?$_Tree_val@V?$_Tmap_traits@HV?$basic_string@DU?$char_traits@D@std@@V?$allocator@D@2@@std@@U?$less@H@2@V?$allocator@U?$pair@$$CBHV?$basic_string@DU?$char_traits@D@std@@V?$allocator@D@2@@std@@@std@@@2@$0A@@std@@@std@@U_Iterator_base12@2@@std@@QAE@XZ 0047fa70 f i Token.obj
 0001:0007eac0       ??F?$_Tree_unchecked_const_iterator@V?$_Tree_val@V?$_Tmap_traits@HV?$basic_string@DU?$char_traits@D@std@@V?$allocator@D@2@@std@@U?$less@H@2@V?$allocator@U?$pair@$$CBHV?$basic_string@DU?$char_traits@D@std@@V?$allocator@D@2@@std@@@std@@@2@$0A@@std@@@std@@U_Iterator_base12@2@@std@@QAEAAV01@XZ 0047fac0 f i Token.obj
 0001:0007ebe0       ??F?$_Tree_iterator@V?$_Tree_val@V?$_Tmap_traits@HV?$basic_string@DU?$char_traits@D@std@@V?$allocator@D@2@@std@@U?$less@H@2@V?$allocator@U?$pair@$$CBHV?$basic_string@DU?$char_traits@D@std@@V?$allocator@D@2@@std@@@std@@@2@$0A@@std@@@std@@@std@@QAEAAV01@XZ 0047fbe0 f i Token.obj
 0001:0007ec30       ?max_size@?$_Tree@V?$_Tmap_traits@V?$basic_string@DU?$char_traits@D@std@@V?$allocator@D@2@@std@@W4SYMBOL@@U?$less@V?$basic_string@DU?$char_traits@D@std@@V?$allocator@D@2@@std@@@2@V?$allocator@U?$pair@$$CBV?$basic_string@DU?$char_traits@D@std@@V?$allocator@D@2@@std@@W4SYMBOL@@@std@@@2@$0A@@std@@@std@@QBEIXZ 0047fc30 f i Token.obj
 0001:0007ec80       ??0?$_Tree_unchecked_const_iterator@V?$_Tree_val@V?$_Tmap_traits@V?$basic_string@DU?$char_traits@D@std@@V?$allocator@D@2@@std@@W4SYMBOL@@U?$less@V?$basic_string@DU?$char_traits@D@std@@V?$allocator@D@2@@std@@@2@V?$allocator@U?$pair@$$CBV?$basic_string@DU?$char_traits@D@std@@V?$allocator@D@2@@std@@W4SYMBOL@@@std@@@2@$0A@@std@@@std@@U_Iterator_base12@2@@std@@QAE@XZ 0047fc80 f i Token.obj
 0001:0007ecd0       ??F?$_Tree_unchecked_const_iterator@V?$_Tree_val@V?$_Tmap_traits@V?$basic_string@DU?$char_traits@D@std@@V?$allocator@D@2@@std@@W4SYMBOL@@U?$less@V?$basic_string@DU?$char_traits@D@std@@V?$allocator@D@2@@std@@@2@V?$allocator@U?$pair@$$CBV?$basic_string@DU?$char_traits@D@std@@V?$allocator@D@2@@std@@W4SYMBOL@@@std@@@2@$0A@@std@@@std@@U_Iterator_base12@2@@std@@QAEAAV01@XZ 0047fcd0 f i Token.obj
 0001:0007edf0       ??F?$_Tree_iterator@V?$_Tree_val@V?$_Tmap_traits@V?$basic_string@DU?$char_traits@D@std@@V?$allocator@D@2@@std@@W4SYMBOL@@U?$less@V?$basic_string@DU?$char_traits@D@std@@V?$allocator@D@2@@std@@@2@V?$allocator@U?$pair@$$CBV?$basic_string@DU?$char_traits@D@std@@V?$allocator@D@2@@std@@W4SYMBOL@@@std@@@2@$0A@@std@@@std@@@std@@QAEAAV01@XZ 0047fdf0 f i Token.obj
 0001:0007ee40       ??0?$pair@V?$_Tree_iterator@V?$_Tree_val@V?$_Tmap_traits@HV?$basic_string@DU?$char_traits@D@std@@V?$allocator@D@2@@std@@U?$less@H@2@V?$allocator@U?$pair@$$CBHV?$basic_string@DU?$char_traits@D@std@@V?$allocator@D@2@@std@@@std@@@2@$0A@@std@@@std@@@std@@_N@std@@QAE@$$QAV?$_Tree_iterator@V?$_Tree_val@V?$_Tmap_traits@HV?$basic_string@DU?$char_traits@D@std@@V?$allocator@D@2@@std@@U?$less@H@2@V?$allocator@U?$pair@$$CBHV?$basic_string@DU?$char_traits@D@std@@V?$allocator@D@2@@std@@@std@@@2@$0A@@std@@@std@@@1@$$QA_N@Z 0047fe40 f i Token.obj
 0001:0007eea0       ??0?$pair@V?$_Tree_iterator@V?$_Tree_val@V?$_Tmap_traits@V?$basic_string@DU?$char_traits@D@std@@V?$allocator@D@2@@std@@W4SYMBOL@@U?$less@V?$basic_string@DU?$char_traits@D@std@@V?$allocator@D@2@@std@@@2@V?$allocator@U?$pair@$$CBV?$basic_string@DU?$char_traits@D@std@@V?$allocator@D@2@@std@@W4SYMBOL@@@std@@@2@$0A@@std@@@std@@@std@@_N@std@@QAE@$$QAV?$_Tree_iterator@V?$_Tree_val@V?$_Tmap_traits@V?$basic_string@DU?$char_traits@D@std@@V?$allocator@D@2@@std@@W4SYMBOL@@U?$less@V?$basic_string@DU?$char_traits@D@std@@V?$allocator@D@2@@std@@@2@V?$allocator@U?$pair@$$CBV?$basic_string@DU?$char_traits@D@std@@V?$allocator@D@2@@std@@W4SYMBOL@@@std@@@2@$0A@@std@@@std@@@1@$$QA_N@Z 0047fea0 f i Token.obj
 0001:0007ef00       ?max_size@?$allocator@U?$pair@$$CBHV?$basic_string@DU?$char_traits@D@std@@V?$allocator@D@2@@std@@@std@@@std@@QBEIXZ 0047ff00 f i Token.obj
 0001:0007ef60       ?max_size@?$allocator@U?$pair@$$CBV?$basic_string@DU?$char_traits@D@std@@V?$allocator@D@2@@std@@W4SYMBOL@@@std@@@std@@QBEIXZ 0047ff60 f i Token.obj
 0001:0007efc0       ??0?$_Pair_base@V?$_Tree_iterator@V?$_Tree_val@V?$_Tmap_traits@HV?$basic_string@DU?$char_traits@D@std@@V?$allocator@D@2@@std@@U?$less@H@2@V?$allocator@U?$pair@$$CBHV?$basic_string@DU?$char_traits@D@std@@V?$allocator@D@2@@std@@@std@@@2@$0A@@std@@@std@@@std@@_N@std@@QAE@$$QAV?$_Tree_iterator@V?$_Tree_val@V?$_Tmap_traits@HV?$basic_string@DU?$char_traits@D@std@@V?$allocator@D@2@@std@@U?$less@H@2@V?$allocator@U?$pair@$$CBHV?$basic_string@DU?$char_traits@D@std@@V?$allocator@D@2@@std@@@std@@@2@$0A@@std@@@std@@@1@$$QA_N@Z 0047ffc0 f i Token.obj
 0001:0007f060       ??0?$_Pair_base@V?$_Tree_iterator@V?$_Tree_val@V?$_Tmap_traits@V?$basic_string@DU?$char_traits@D@std@@V?$allocator@D@2@@std@@W4SYMBOL@@U?$less@V?$basic_string@DU?$char_traits@D@std@@V?$allocator@D@2@@std@@@2@V?$allocator@U?$pair@$$CBV?$basic_string@DU?$char_traits@D@std@@V?$allocator@D@2@@std@@W4SYMBOL@@@std@@@2@$0A@@std@@@std@@@std@@_N@std@@QAE@$$QAV?$_Tree_iterator@V?$_Tree_val@V?$_Tmap_traits@V?$basic_string@DU?$char_traits@D@std@@V?$allocator@D@2@@std@@W4SYMBOL@@U?$less@V?$basic_string@DU?$char_traits@D@std@@V?$allocator@D@2@@std@@@2@V?$allocator@U?$pair@$$CBV?$basic_string@DU?$char_traits@D@std@@V?$allocator@D@2@@std@@W4SYMBOL@@@std@@@2@$0A@@std@@@std@@@1@$$QA_N@Z 00480060 f i Token.obj
 0001:0007f100       ??$forward@U?$pair@HV?$basic_string@DU?$char_traits@D@std@@V?$allocator@D@2@@std@@@std@@@std@@YA$$QAU?$pair@HV?$basic_string@DU?$char_traits@D@std@@V?$allocator@D@2@@std@@@0@AAU10@@Z 00480100 f i Token.obj
 0001:0007f130       ??$_Buynode@U?$pair@HV?$basic_string@DU?$char_traits@D@std@@V?$allocator@D@2@@std@@@std@@@?$_Tree_val@V?$_Tmap_traits@HV?$basic_string@DU?$char_traits@D@std@@V?$allocator@D@2@@std@@U?$less@H@2@V?$allocator@U?$pair@$$CBHV?$basic_string@DU?$char_traits@D@std@@V?$allocator@D@2@@std@@@std@@@2@$0A@@std@@@std@@QAEPAU_Node@?$_Tree_nod@V?$_Tmap_traits@HV?$basic_string@DU?$char_traits@D@std@@V?$allocator@D@2@@std@@U?$less@H@2@V?$allocator@U?$pair@$$CBHV?$basic_string@DU?$char_traits@D@std@@V?$allocator@D@2@@std@@@std@@@2@$0A@@std@@@1@$$QAU?$pair@HV?$basic_string@DU?$char_traits@D@std@@V?$allocator@D@2@@std@@@1@@Z 00480130 f i Token.obj
 0001:0007f240       ??$forward@U?$pair@$$CBV?$basic_string@DU?$char_traits@D@std@@V?$allocator@D@2@@std@@W4SYMBOL@@@std@@@std@@YA$$QAU?$pair@$$CBV?$basic_string@DU?$char_traits@D@std@@V?$allocator@D@2@@std@@W4SYMBOL@@@0@AAU10@@Z 00480240 f i Token.obj
 0001:0007f270       ??$_Buynode@U?$pair@$$CBV?$basic_string@DU?$char_traits@D@std@@V?$allocator@D@2@@std@@W4SYMBOL@@@std@@@?$_Tree_val@V?$_Tmap_traits@V?$basic_string@DU?$char_traits@D@std@@V?$allocator@D@2@@std@@W4SYMBOL@@U?$less@V?$basic_string@DU?$char_traits@D@std@@V?$allocator@D@2@@std@@@2@V?$allocator@U?$pair@$$CBV?$basic_string@DU?$char_traits@D@std@@V?$allocator@D@2@@std@@W4SYMBOL@@@std@@@2@$0A@@std@@@std@@QAEPAU_Node@?$_Tree_nod@V?$_Tmap_traits@V?$basic_string@DU?$char_traits@D@std@@V?$allocator@D@2@@std@@W4SYMBOL@@U?$less@V?$basic_string@DU?$char_traits@D@std@@V?$allocator@D@2@@std@@@2@V?$allocator@U?$pair@$$CBV?$basic_string@DU?$char_traits@D@std@@V?$allocator@D@2@@std@@W4SYMBOL@@@std@@@2@$0A@@std@@@1@$$QAU?$pair@$$CBV?$basic_string@DU?$char_traits@D@std@@V?$allocator@D@2@@std@@W4SYMBOL@@@1@@Z 00480270 f i Token.obj
 0001:0007f380       ??$_Destroy@U?$pair@$$CBHV?$basic_string@DU?$char_traits@D@std@@V?$allocator@D@2@@std@@@std@@@std@@YAXPAU?$pair@$$CBHV?$basic_string@DU?$char_traits@D@std@@V?$allocator@D@2@@std@@@0@@Z 00480380 f i Token.obj
 0001:0007f3c0       ??$_Destroy@U?$pair@$$CBV?$basic_string@DU?$char_traits@D@std@@V?$allocator@D@2@@std@@W4SYMBOL@@@std@@@std@@YAXPAU?$pair@$$CBV?$basic_string@DU?$char_traits@D@std@@V?$allocator@D@2@@std@@W4SYMBOL@@@0@@Z 004803c0 f i Token.obj
 0001:0007f400       ??$?0AAV?$_Tree_iterator@V?$_Tree_val@V?$_Tmap_traits@HV?$basic_string@DU?$char_traits@D@std@@V?$allocator@D@2@@std@@U?$less@H@2@V?$allocator@U?$pair@$$CBHV?$basic_string@DU?$char_traits@D@std@@V?$allocator@D@2@@std@@@std@@@2@$0A@@std@@@std@@@std@@_N@?$pair@V?$_Tree_iterator@V?$_Tree_val@V?$_Tmap_traits@HV?$basic_string@DU?$char_traits@D@std@@V?$allocator@D@2@@std@@U?$less@H@2@V?$allocator@U?$pair@$$CBHV?$basic_string@DU?$char_traits@D@std@@V?$allocator@D@2@@std@@@std@@@2@$0A@@std@@@std@@@std@@_N@std@@QAE@AAV?$_Tree_iterator@V?$_Tree_val@V?$_Tmap_traits@HV?$basic_string@DU?$char_traits@D@std@@V?$allocator@D@2@@std@@U?$less@H@2@V?$allocator@U?$pair@$$CBHV?$basic_string@DU?$char_traits@D@std@@V?$allocator@D@2@@std@@@std@@@2@$0A@@std@@@std@@@1@$$QA_N@Z 00480400 f i Token.obj
 0001:0007f460       ??$?0AAV?$_Tree_iterator@V?$_Tree_val@V?$_Tmap_traits@V?$basic_string@DU?$char_traits@D@std@@V?$allocator@D@2@@std@@W4SYMBOL@@U?$less@V?$basic_string@DU?$char_traits@D@std@@V?$allocator@D@2@@std@@@2@V?$allocator@U?$pair@$$CBV?$basic_string@DU?$char_traits@D@std@@V?$allocator@D@2@@std@@W4SYMBOL@@@std@@@2@$0A@@std@@@std@@@std@@_N@?$pair@V?$_Tree_iterator@V?$_Tree_val@V?$_Tmap_traits@V?$basic_string@DU?$char_traits@D@std@@V?$allocator@D@2@@std@@W4SYMBOL@@U?$less@V?$basic_string@DU?$char_traits@D@std@@V?$allocator@D@2@@std@@@2@V?$allocator@U?$pair@$$CBV?$basic_string@DU?$char_traits@D@std@@V?$allocator@D@2@@std@@W4SYMBOL@@@std@@@2@$0A@@std@@@std@@@std@@_N@std@@QAE@AAV?$_Tree_iterator@V?$_Tree_val@V?$_Tmap_traits@V?$basic_string@DU?$char_traits@D@std@@V?$allocator@D@2@@std@@W4SYMBOL@@U?$less@V?$basic_string@DU?$char_traits@D@std@@V?$allocator@D@2@@std@@@2@V?$allocator@U?$pair@$$CBV?$basic_string@DU?$char_traits@D@std@@V?$allocator@D@2@@std@@W4SYMBOL@@@std@@@2@$0A@@std@@@std@@@1@$$QA_N@Z 00480460 f i Token.obj
 0001:0007f4c0       ??$move@AAV?$_Tree_iterator@V?$_Tree_val@V?$_Tmap_traits@HV?$basic_string@DU?$char_traits@D@std@@V?$allocator@D@2@@std@@U?$less@H@2@V?$allocator@U?$pair@$$CBHV?$basic_string@DU?$char_traits@D@std@@V?$allocator@D@2@@std@@@std@@@2@$0A@@std@@@std@@@std@@@std@@YA$$QAV?$_Tree_iterator@V?$_Tree_val@V?$_Tmap_traits@HV?$basic_string@DU?$char_traits@D@std@@V?$allocator@D@2@@std@@U?$less@H@2@V?$allocator@U?$pair@$$CBHV?$basic_string@DU?$char_traits@D@std@@V?$allocator@D@2@@std@@@std@@@2@$0A@@std@@@std@@@0@AAV10@@Z 004804c0 f i Token.obj
 0001:0007f4f0       ??$move@AAV?$_Tree_iterator@V?$_Tree_val@V?$_Tmap_traits@V?$basic_string@DU?$char_traits@D@std@@V?$allocator@D@2@@std@@W4SYMBOL@@U?$less@V?$basic_string@DU?$char_traits@D@std@@V?$allocator@D@2@@std@@@2@V?$allocator@U?$pair@$$CBV?$basic_string@DU?$char_traits@D@std@@V?$allocator@D@2@@std@@W4SYMBOL@@@std@@@2@$0A@@std@@@std@@@std@@@std@@YA$$QAV?$_Tree_iterator@V?$_Tree_val@V?$_Tmap_traits@V?$basic_string@DU?$char_traits@D@std@@V?$allocator@D@2@@std@@W4SYMBOL@@U?$less@V?$basic_string@DU?$char_traits@D@std@@V?$allocator@D@2@@std@@@2@V?$allocator@U?$pair@$$CBV?$basic_string@DU?$char_traits@D@std@@V?$allocator@D@2@@std@@W4SYMBOL@@@std@@@2@$0A@@std@@@std@@@0@AAV10@@Z 004804f0 f i Token.obj
 0001:0007f520       ??_G?$pair@$$CBHV?$basic_string@DU?$char_traits@D@std@@V?$allocator@D@2@@std@@@std@@QAEPAXI@Z 00480520 f i Token.obj
 0001:0007f580       ??_G?$pair@$$CBV?$basic_string@DU?$char_traits@D@std@@V?$allocator@D@2@@std@@W4SYMBOL@@@std@@QAEPAXI@Z 00480580 f i Token.obj
 0001:0007f5e0       ??1?$pair@$$CBHV?$basic_string@DU?$char_traits@D@std@@V?$allocator@D@2@@std@@@std@@QAE@XZ 004805e0 f i Token.obj
 0001:0007f620       ??1?$_Pair_base@$$CBHV?$basic_string@DU?$char_traits@D@std@@V?$allocator@D@2@@std@@@std@@QAE@XZ 00480620 f i Token.obj
 0001:0007f670       ?_Buynode@?$_Tree_val@V?$_Tmap_traits@HV?$basic_string@DU?$char_traits@D@std@@V?$allocator@D@2@@std@@U?$less@H@2@V?$allocator@U?$pair@$$CBHV?$basic_string@DU?$char_traits@D@std@@V?$allocator@D@2@@std@@@std@@@2@$0A@@std@@@std@@QAEPAU_Node@?$_Tree_nod@V?$_Tmap_traits@HV?$basic_string@DU?$char_traits@D@std@@V?$allocator@D@2@@std@@U?$less@H@2@V?$allocator@U?$pair@$$CBHV?$basic_string@DU?$char_traits@D@std@@V?$allocator@D@2@@std@@@std@@@2@$0A@@std@@@2@XZ 00480670 f i Token.obj
 0001:0007f720       ?_Buynode@?$_Tree_val@V?$_Tmap_traits@V?$basic_string@DU?$char_traits@D@std@@V?$allocator@D@2@@std@@W4SYMBOL@@U?$less@V?$basic_string@DU?$char_traits@D@std@@V?$allocator@D@2@@std@@@2@V?$allocator@U?$pair@$$CBV?$basic_string@DU?$char_traits@D@std@@V?$allocator@D@2@@std@@W4SYMBOL@@@std@@@2@$0A@@std@@@std@@QAEPAU_Node@?$_Tree_nod@V?$_Tmap_traits@V?$basic_string@DU?$char_traits@D@std@@V?$allocator@D@2@@std@@W4SYMBOL@@U?$less@V?$basic_string@DU?$char_traits@D@std@@V?$allocator@D@2@@std@@@2@V?$allocator@U?$pair@$$CBV?$basic_string@DU?$char_traits@D@std@@V?$allocator@D@2@@std@@W4SYMBOL@@@std@@@2@$0A@@std@@@2@XZ 00480720 f i Token.obj
 0001:0007f7d0       ??$_Cons_val@V?$allocator@U?$pair@$$CBHV?$basic_string@DU?$char_traits@D@std@@V?$allocator@D@2@@std@@@std@@@std@@U?$pair@$$CBHV?$basic_string@DU?$char_traits@D@std@@V?$allocator@D@2@@std@@@2@U?$pair@HV?$basic_string@DU?$char_traits@D@std@@V?$allocator@D@2@@std@@@2@@std@@YAXAAV?$allocator@U?$pair@$$CBHV?$basic_string@DU?$char_traits@D@std@@V?$allocator@D@2@@std@@@std@@@0@PAU?$pair@$$CBHV?$basic_string@DU?$char_traits@D@std@@V?$allocator@D@2@@std@@@0@$$QAU?$pair@HV?$basic_string@DU?$char_traits@D@std@@V?$allocator@D@2@@std@@@0@@Z 004807d0 f i Token.obj
 0001:0007f820       ??$_Cons_val@V?$allocator@U?$pair@$$CBV?$basic_string@DU?$char_traits@D@std@@V?$allocator@D@2@@std@@W4SYMBOL@@@std@@@std@@U?$pair@$$CBV?$basic_string@DU?$char_traits@D@std@@V?$allocator@D@2@@std@@W4SYMBOL@@@2@U32@@std@@YAXAAV?$allocator@U?$pair@$$CBV?$basic_string@DU?$char_traits@D@std@@V?$allocator@D@2@@std@@W4SYMBOL@@@std@@@0@PAU?$pair@$$CBV?$basic_string@DU?$char_traits@D@std@@V?$allocator@D@2@@std@@W4SYMBOL@@@0@$$QAU20@@Z 00480820 f i Token.obj
 0001:0007f870       ??$forward@AAV?$_Tree_iterator@V?$_Tree_val@V?$_Tmap_traits@HV?$basic_string@DU?$char_traits@D@std@@V?$allocator@D@2@@std@@U?$less@H@2@V?$allocator@U?$pair@$$CBHV?$basic_string@DU?$char_traits@D@std@@V?$allocator@D@2@@std@@@std@@@2@$0A@@std@@@std@@@std@@@std@@YAAAV?$_Tree_iterator@V?$_Tree_val@V?$_Tmap_traits@HV?$basic_string@DU?$char_traits@D@std@@V?$allocator@D@2@@std@@U?$less@H@2@V?$allocator@U?$pair@$$CBHV?$basic_string@DU?$char_traits@D@std@@V?$allocator@D@2@@std@@@std@@@2@$0A@@std@@@std@@@0@AAV10@@Z 00480870 f i Token.obj
 0001:0007f8a0       ??$?0AAV?$_Tree_iterator@V?$_Tree_val@V?$_Tmap_traits@HV?$basic_string@DU?$char_traits@D@std@@V?$allocator@D@2@@std@@U?$less@H@2@V?$allocator@U?$pair@$$CBHV?$basic_string@DU?$char_traits@D@std@@V?$allocator@D@2@@std@@@std@@@2@$0A@@std@@@std@@@std@@_N@?$_Pair_base@V?$_Tree_iterator@V?$_Tree_val@V?$_Tmap_traits@HV?$basic_string@DU?$char_traits@D@std@@V?$allocator@D@2@@std@@U?$less@H@2@V?$allocator@U?$pair@$$CBHV?$basic_string@DU?$char_traits@D@std@@V?$allocator@D@2@@std@@@std@@@2@$0A@@std@@@std@@@std@@_N@std@@QAE@AAV?$_Tree_iterator@V?$_Tree_val@V?$_Tmap_traits@HV?$basic_string@DU?$char_traits@D@std@@V?$allocator@D@2@@std@@U?$less@H@2@V?$allocator@U?$pair@$$CBHV?$basic_string@DU?$char_traits@D@std@@V?$allocator@D@2@@std@@@std@@@2@$0A@@std@@@std@@@1@$$QA_N@Z 004808a0 f i Token.obj
 0001:0007f940       ??$forward@AAV?$_Tree_iterator@V?$_Tree_val@V?$_Tmap_traits@V?$basic_string@DU?$char_traits@D@std@@V?$allocator@D@2@@std@@W4SYMBOL@@U?$less@V?$basic_string@DU?$char_traits@D@std@@V?$allocator@D@2@@std@@@2@V?$allocator@U?$pair@$$CBV?$basic_string@DU?$char_traits@D@std@@V?$allocator@D@2@@std@@W4SYMBOL@@@std@@@2@$0A@@std@@@std@@@std@@@std@@YAAAV?$_Tree_iterator@V?$_Tree_val@V?$_Tmap_traits@V?$basic_string@DU?$char_traits@D@std@@V?$allocator@D@2@@std@@W4SYMBOL@@U?$less@V?$basic_string@DU?$char_traits@D@std@@V?$allocator@D@2@@std@@@2@V?$allocator@U?$pair@$$CBV?$basic_string@DU?$char_traits@D@std@@V?$allocator@D@2@@std@@W4SYMBOL@@@std@@@2@$0A@@std@@@std@@@0@AAV10@@Z 00480940 f i Token.obj
 0001:0007f970       ??$?0AAV?$_Tree_iterator@V?$_Tree_val@V?$_Tmap_traits@V?$basic_string@DU?$char_traits@D@std@@V?$allocator@D@2@@std@@W4SYMBOL@@U?$less@V?$basic_string@DU?$char_traits@D@std@@V?$allocator@D@2@@std@@@2@V?$allocator@U?$pair@$$CBV?$basic_string@DU?$char_traits@D@std@@V?$allocator@D@2@@std@@W4SYMBOL@@@std@@@2@$0A@@std@@@std@@@std@@_N@?$_Pair_base@V?$_Tree_iterator@V?$_Tree_val@V?$_Tmap_traits@V?$basic_string@DU?$char_traits@D@std@@V?$allocator@D@2@@std@@W4SYMBOL@@U?$less@V?$basic_string@DU?$char_traits@D@std@@V?$allocator@D@2@@std@@@2@V?$allocator@U?$pair@$$CBV?$basic_string@DU?$char_traits@D@std@@V?$allocator@D@2@@std@@W4SYMBOL@@@std@@@2@$0A@@std@@@std@@@std@@_N@std@@QAE@AAV?$_Tree_iterator@V?$_Tree_val@V?$_Tmap_traits@V?$basic_string@DU?$char_traits@D@std@@V?$allocator@D@2@@std@@W4SYMBOL@@U?$less@V?$basic_string@DU?$char_traits@D@std@@V?$allocator@D@2@@std@@@2@V?$allocator@U?$pair@$$CBV?$basic_string@DU?$char_traits@D@std@@V?$allocator@D@2@@std@@W4SYMBOL@@@std@@@2@$0A@@std@@@std@@@1@$$QA_N@Z 00480970 f i Token.obj
 0001:0007fa10       ?construct@?$allocator@U?$pair@$$CBV?$basic_string@DU?$char_traits@D@std@@V?$allocator@D@2@@std@@W4SYMBOL@@@std@@@std@@QAEXPAU?$pair@$$CBV?$basic_string@DU?$char_traits@D@std@@V?$allocator@D@2@@std@@W4SYMBOL@@@2@$$QAU32@@Z 00480a10 f i Token.obj
 0001:0007fae0       ??$construct@U?$pair@HV?$basic_string@DU?$char_traits@D@std@@V?$allocator@D@2@@std@@@std@@@?$allocator@U?$pair@$$CBHV?$basic_string@DU?$char_traits@D@std@@V?$allocator@D@2@@std@@@std@@@std@@QAEXPAU?$pair@$$CBHV?$basic_string@DU?$char_traits@D@std@@V?$allocator@D@2@@std@@@1@$$QAU?$pair@HV?$basic_string@DU?$char_traits@D@std@@V?$allocator@D@2@@std@@@1@@Z 00480ae0 f i Token.obj
 0001:0007fbb0       ??$?0$$CBV?$basic_string@DU?$char_traits@D@std@@V?$allocator@D@2@@std@@W4SYMBOL@@@?$pair@$$CBV?$basic_string@DU?$char_traits@D@std@@V?$allocator@D@2@@std@@W4SYMBOL@@@std@@QAE@$$QAU01@@Z 00480bb0 f i Token.obj
 0001:0007fc20       ??0?$_Pair_base@$$CBV?$basic_string@DU?$char_traits@D@std@@V?$allocator@D@2@@std@@W4SYMBOL@@@std@@QAE@$$QBV?$basic_string@DU?$char_traits@D@std@@V?$allocator@D@2@@1@$$QAW4SYMBOL@@@Z 00480c20 f i Token.obj
 0001:0007fcc0       ??$?0HV?$basic_string@DU?$char_traits@D@std@@V?$allocator@D@2@@std@@@?$pair@$$CBHV?$basic_string@DU?$char_traits@D@std@@V?$allocator@D@2@@std@@@std@@QAE@$$QAU?$pair@HV?$basic_string@DU?$char_traits@D@std@@V?$allocator@D@2@@std@@@1@@Z 00480cc0 f i Token.obj
 0001:0007fd30       ??$forward@W4SYMBOL@@@std@@YA$$QAW4SYMBOL@@AAW41@@Z 00480d30 f i Token.obj
 0001:0007fd60       ??$?0HV?$basic_string@DU?$char_traits@D@std@@V?$allocator@D@2@@std@@@?$_Pair_base@$$CBHV?$basic_string@DU?$char_traits@D@std@@V?$allocator@D@2@@std@@@std@@QAE@$$QAH$$QAV?$basic_string@DU?$char_traits@D@std@@V?$allocator@D@2@@1@@Z 00480d60 f i Token.obj
 0001:0007fdd0       ??0Tokenizer@@QAE@AAV?$basic_istream@DU?$char_traits@D@std@@@std@@_N@Z 00480dd0 f   Tokenizer.obj
 0001:0007fe40       ?ScanProgram@Tokenizer@@QAEXXZ 00480e40 f   Tokenizer.obj
 0001:0007ff10       ?Get@Tokenizer@@QAE?AV?$auto_ptr@VToken@@@std@@XZ 00480f10 f   Tokenizer.obj
 0001:0007ffe0       ?GetNext@Tokenizer@@IAEPAVToken@@XZ 00480fe0 f   Tokenizer.obj
 0001:00080240       ?isEOF@Buffer@@QAE_NXZ     00481240 f i Tokenizer.obj
 0001:000802a0       ?CurColumn@Buffer@@QBEHXZ  004812a0 f i Tokenizer.obj
 0001:000802d0       ??0Token@@QAE@W4SYMBOL@@@Z 004812d0 f i Tokenizer.obj
 0001:00080320       ?ident@Token@@UBE?AV?$basic_string@DU?$char_traits@D@std@@V?$allocator@D@2@@std@@XZ 00481320 f i Tokenizer.obj
 0001:00080400       ?value@Token@@UBENXZ       00481400 f i Tokenizer.obj
 0001:000804c0       ??_EToken@@UAEPAXI@Z       004814c0 f i Tokenizer.obj
 0001:000804c0       ??_GToken@@UAEPAXI@Z       004814c0 f i Tokenizer.obj
 0001:00080520       ??1Token@@UAE@XZ           00481520 f i Tokenizer.obj
 0001:00080560       ?SkipWhiteSpace@Tokenizer@@IAEXXZ 00481560 f   Tokenizer.obj
 0001:00080950       ?GetCh@Tokenizer@@IAEXXZ   00481950 f i Tokenizer.obj
 0001:000809a0       ?GetQuotedIdent@Tokenizer@@IAEPAVToken@@XZ 004819a0 f   Tokenizer.obj
 0001:00080b80       ??0IdentToken@@QAE@V?$basic_string@DU?$char_traits@D@std@@V?$allocator@D@2@@std@@@Z 00481b80 f i Tokenizer.obj
 0001:00080c60       ?ident@IdentToken@@UBE?AV?$basic_string@DU?$char_traits@D@std@@V?$allocator@D@2@@std@@XZ 00481c60 f i Tokenizer.obj
 0001:00080cd0       ??_EIdentToken@@UAEPAXI@Z  00481cd0 f i Tokenizer.obj
 0001:00080cd0       ??_GIdentToken@@UAEPAXI@Z  00481cd0 f i Tokenizer.obj
 0001:00080d30       ??1IdentToken@@UAE@XZ      00481d30 f i Tokenizer.obj
 0001:00080dc0       ?GetIdent@Tokenizer@@IAEPAVToken@@XZ 00481dc0 f   Tokenizer.obj
 0001:00080f30       ?GetScalar@Tokenizer@@IAEPAVToken@@XZ 00481f30 f   Tokenizer.obj
 0001:000810d0       ??0ScalarToken@@QAE@N@Z    004820d0 f i Tokenizer.obj
 0001:00081130       ?value@ScalarToken@@UBENXZ 00482130 f i Tokenizer.obj
 0001:00081160       ??_EScalarToken@@UAEPAXI@Z 00482160 f i Tokenizer.obj
 0001:00081160       ??_GScalarToken@@UAEPAXI@Z 00482160 f i Tokenizer.obj
 0001:000811c0       ??1ScalarToken@@UAE@XZ     004821c0 f i Tokenizer.obj
 0001:00081200       ?GetPunct@Tokenizer@@IAEPAVToken@@XZ 00482200 f   Tokenizer.obj
 0001:000816e0       ?UnGet@Tokenizer@@IAEXPAVToken@@@Z 004826e0 f   Tokenizer.obj
 0001:000817b0       ?Peek@Tokenizer@@QAEPBVToken@@XZ 004827b0 f   Tokenizer.obj
 0001:00081810       ?Read@Tokenizer@@QAE?AV?$auto_ptr@VToken@@@std@@W4SYMBOL@@@Z 00482810 f   Tokenizer.obj
 0001:00081a00       ?CondRead@Tokenizer@@QAE_NW4SYMBOL@@@Z 00482a00 f   Tokenizer.obj
 0001:00081a80       ?SearchReserved@Tokenizer@@IBEPAVToken@@ABV?$basic_string@DU?$char_traits@D@std@@V?$allocator@D@2@@std@@@Z 00482a80 f   Tokenizer.obj
 0001:00081be0       ?CondReadCh@Tokenizer@@IAE_ND@Z 00482be0 f   Tokenizer.obj
 0001:00081c40       ??0?$auto_ptr@VToken@@@std@@QAE@PAVToken@@@Z 00482c40 f i Tokenizer.obj
 0001:00081c80       ??0?$auto_ptr@VToken@@@std@@QAE@AAV01@@Z 00482c80 f i Tokenizer.obj
 0001:00081cd0       ?release@?$auto_ptr@VToken@@@std@@QAEPAVToken@@XZ 00482cd0 f i Tokenizer.obj
 0001:00081d10       ??0TraceGLWindow@@QAE@HHHHPBD@Z 00482d10 f   TraceGLWindow.obj
 0001:00081de0       ?size_range@Fl_Window@@QAEXHHHHHHH@Z 00482de0 f i TraceGLWindow.obj
 0001:00081e70       ??_ETraceGLWindow@@UAEPAXI@Z 00482e70 f i TraceGLWindow.obj
 0001:00081e70       ??_GTraceGLWindow@@UAEPAXI@Z 00482e70 f i TraceGLWindow.obj
 0001:00081ed0       ??1TraceGLWindow@@UAE@XZ   00482ed0 f i TraceGLWindow.obj
 0001:00081f10       ?handle@TraceGLWindow@@UAEHH@Z 00482f10 f   TraceGLWindow.obj
 0001:000820c0       ?draw@TraceGLWindow@@UAEXXZ 004830c0 f   TraceGLWindow.obj
 0001:00082280       ?refresh@TraceGLWindow@@QAEXXZ 00483280 f   TraceGLWindow.obj
 0001:000822c0       ?resizeWindow@TraceGLWindow@@QAEXHH@Z 004832c0 f   TraceGLWindow.obj
 0001:00082380       ?x@Fl_Widget@@QBEHXZ       00483380 f i TraceGLWindow.obj
 0001:000823c0       ?y@Fl_Widget@@QBEHXZ       004833c0 f i TraceGLWindow.obj
 0001:00082400       ?saveImage@TraceGLWindow@@QAEXPBD0H@Z 00483400 f   TraceGLWindow.obj
 0001:000824c0       ?setRayTracer@TraceGLWindow@@QAEXPAVRayTracer@@@Z 004834c0 f   TraceGLWindow.obj
 0001:00082500       ??0ThreadPool@@QAE@XZ      00483500 f   ThreadPool.obj
 0001:000825b0       ??_EThreadPool@@UAEPAXI@Z  004835b0 f i ThreadPool.obj
 0001:000825b0       ??_GThreadPool@@UAEPAXI@Z  004835b0 f i ThreadPool.obj
 0001:00082610       ??1ThreadPool@@UAE@XZ      00483610 f   ThreadPool.obj
 0001:000826d0       ?holdMutex@ThreadPool@@QAEXXZ 004836d0 f   ThreadPool.obj
 0001:00082720       ?releaseMutex@ThreadPool@@QAEXXZ 00483720 f   ThreadPool.obj
 0001:00082770       ?startThread@ThreadPool@@QAE_NP6AXPAV1@PAX@Z1@Z 00483770 f   ThreadPool.obj
 0001:00082970       ?waitForThreads@ThreadPool@@QAE_NI@Z 00483970 f   ThreadPool.obj
 0001:00082a40       ?version@Fl@@SANXZ         00483a40 f   fltk:Fl.obj
 0001:00082a50       ?event_inside@Fl@@SAHHHHH@Z 00483a50 f   fltk:Fl.obj
 0001:00082aa0       ?event_inside@Fl@@SAHPBVFl_Widget@@@Z 00483aa0 f   fltk:Fl.obj
 0001:00082b10       ?add_check@Fl@@SAXP6AXPAX@Z0@Z 00483b10 f   fltk:Fl.obj
 0001:00082b90       ?remove_check@Fl@@SAXP6AXPAX@Z0@Z 00483b90 f   fltk:Fl.obj
 0001:00082c10       ?has_check@Fl@@SAHP6AXPAX@Z0@Z 00483c10 f   fltk:Fl.obj
 0001:00082c60       ?wait@Fl@@SANN@Z           00483c60 f   fltk:Fl.obj
 0001:00082c90       ?run@Fl@@SAHXZ             00483c90 f   fltk:Fl.obj
 0001:00082cc0       ?wait@Fl@@SAHXZ            00483cc0 f   fltk:Fl.obj
 0001:00082d00       ?check@Fl@@SAHXZ           00483d00 f   fltk:Fl.obj
 0001:00082d30       ?ready@Fl@@SAHXZ           00483d30 f   fltk:Fl.obj
 0001:00082d40       ?fl_find@@YAPAVFl_Window@@PAUHWND__@@@Z 00483d40 f   fltk:Fl.obj
 0001:00082dc0       ?first_window@Fl@@SAPAVFl_Window@@XZ 00483dc0 f   fltk:Fl.obj
 0001:00082df0       ?next_window@Fl@@SAPAVFl_Window@@PBV2@@Z 00483df0 f   fltk:Fl.obj
 0001:00082e30       ?first_window@Fl@@SAXPAVFl_Window@@@Z 00483e30 f   fltk:Fl.obj
 0001:00082e80       ?redraw@Fl@@SAXXZ          00483e80 f   fltk:Fl.obj
 0001:00082eb0       ?flush@Fl@@SAXXZ           00483eb0 f   fltk:Fl.obj
 0001:00082f80       ?add_handler@Fl@@SAXP6AHH@Z@Z 00483f80 f   fltk:Fl.obj
 0001:00082fc0       ?remove_handler@Fl@@SAXP6AHH@Z@Z 00483fc0 f   fltk:Fl.obj
 0001:00083040       ?focus@Fl@@SAXPAVFl_Widget@@@Z 00484040 f   fltk:Fl.obj
 0001:00083130       ?belowmouse@Fl@@SAXPAVFl_Widget@@@Z 00484130 f   fltk:Fl.obj
 0001:000831c0       ?pushed@Fl@@SAXPAVFl_Widget@@@Z 004841c0 f   fltk:Fl.obj
 0001:000831e0       ?fl_fix_focus@@YAXXZ       004841e0 f   fltk:Fl.obj
 0001:000833c0       ?fl_throw_focus@@YAXPAVFl_Widget@@@Z 004843c0 f   fltk:Fl.obj
 0001:00083490       ?handle@Fl@@SAHHPAVFl_Window@@@Z 00484490 f   fltk:Fl.obj
 0001:00083cf0       ?hide@Fl_Window@@UAEXXZ    00484cf0 f   fltk:Fl.obj
 0001:00083fb0       ??1Fl_Window@@UAE@XZ       00484fb0 f   fltk:Fl.obj
 0001:00084010       ?handle@Fl_Window@@UAEHH@Z 00485010 f   fltk:Fl.obj
 0001:00084140       ?selection_owner@Fl@@SAXPAVFl_Widget@@@Z 00485140 f   fltk:Fl.obj
 0001:00084150       ?selection@Fl@@SAXAAVFl_Widget@@PBDH@Z 00485150 f   fltk:Fl.obj
 0001:00084170       ?paste@Fl@@SAXAAVFl_Widget@@@Z 00485170 f   fltk:Fl.obj
 0001:00084190       ?redraw@Fl_Widget@@QAEXXZ  00485190 f   fltk:Fl.obj
 0001:000841b0       ?redraw_label@Fl_Widget@@QAEXXZ 004851b0 f   fltk:Fl.obj
 0001:00084460       ?damage@Fl_Widget@@QAEXE@Z 00485460 f   fltk:Fl.obj
 0001:00084520       ?damage@Fl_Widget@@QAEXEHHHH@Z 00485520 f   fltk:Fl.obj
 0001:00084700       ?flush@Fl_Window@@MAEXXZ   00485700 f   fltk:Fl.obj
 0001:00084740       ?add_fd@Fl@@SAXHHP6AXHPAX@Z0@Z 00485740 f   fltk:Fl.obj
 0001:000848b0       ?add_fd@Fl@@SAXHP6AXHPAX@Z0@Z 004858b0 f   fltk:Fl.obj
 0001:000848d0       ?remove_fd@Fl@@SAXHH@Z     004858d0 f   fltk:Fl.obj
 0001:00084b10       ?remove_fd@Fl@@SAXH@Z      00485b10 f   fltk:Fl.obj
 0001:00084b40       ?thread_message@Fl@@SAPAXXZ 00485b40 f   fltk:Fl.obj
 0001:00084b60       ?fl_wait@@YAHN@Z           00485b60 f   fltk:Fl.obj
 0001:00084f30       ?fl_ready@@YAHXZ           00485f30 f   fltk:Fl.obj
 0001:00084fe0       ?x@Fl@@SAHXZ               00485fe0 f   fltk:Fl.obj
 0001:00085020       ?y@Fl@@SAHXZ               00486020 f   fltk:Fl.obj
 0001:00085060       ?h@Fl@@SAHXZ               00486060 f   fltk:Fl.obj
 0001:000850a0       ?w@Fl@@SAHXZ               004860a0 f   fltk:Fl.obj
 0001:000850e0       ?get_mouse@Fl@@SAXAAH0@Z   004860e0 f   fltk:Fl.obj
 0001:00085110       ?copy@Fl@@SAXPBDHH@Z       00486110 f   fltk:Fl.obj
 0001:00085290       ?paste@Fl@@SAXAAVFl_Widget@@H@Z 00486290 f   fltk:Fl.obj
 0001:00085460       ?fake_X_wm@Fl_X@@SAHPBVFl_Window@@AAH1111@Z 00486460 f   fltk:Fl.obj
 0001:000858d0       ?resize@Fl_Window@@UAEXHHHH@Z 004868d0 f   fltk:Fl.obj
 0001:00085b40       ?make@Fl_X@@SAPAV1@PAVFl_Window@@@Z 00486b40 f   fltk:Fl.obj
 0001:000875d0       ?add_timeout@Fl@@SAXNP6AXPAX@Z0@Z 004885d0 f   fltk:Fl.obj
 0001:000875f0       ?repeat_timeout@Fl@@SAXNP6AXPAX@Z0@Z 004885f0 f   fltk:Fl.obj
 0001:00087940       ?has_timeout@Fl@@SAHP6AXPAX@Z0@Z 00488940 f   fltk:Fl.obj
 0001:000879a0       ?remove_timeout@Fl@@SAXP6AXPAX@Z0@Z 004889a0 f   fltk:Fl.obj
 0001:00087a10       ?size_range_@Fl_Window@@AAEXXZ 00488a10 f   fltk:Fl.obj
 0001:00087a30       ?set_minmax@Fl_X@@QAEXPAUtagMINMAXINFO@@@Z 00488a30 f   fltk:Fl.obj
 0001:00087b10       ?fl_filename_name@@YAPBDPBD@Z 00488b10 f   fltk:Fl.obj
 0001:00087b90       ?label@Fl_Window@@QAEXPBD0@Z 00488b90 f   fltk:Fl.obj
 0001:00087c00       ?show@Fl_Window@@UAEXXZ    00488c00 f   fltk:Fl.obj
 0001:00087cb0       ?fl_GetDC@@YAPAUHDC__@@PAUHWND__@@@Z 00488cb0 f   fltk:Fl.obj
 0001:00087d50       ?make_current@Fl_Window@@QAEXXZ 00488d50 f   fltk:Fl.obj
 0001:00087db0       ?fl_free_fonts@@YAXXZ      00488db0 f   fltk:Fl.obj
 0001:00087e60       ?fl_save_dc@@YAXPAUHWND__@@PAUHDC__@@@Z 00488e60 f   fltk:Fl.obj
 0001:00087ed0       ?fl_release_dc@@YAXPAUHWND__@@PAUHDC__@@@Z 00488ed0 f   fltk:Fl.obj
 0001:00087f70       ?fl_cleanup_dc_list@@YAXXZ 00488f70 f   fltk:Fl.obj
 0001:00087fe0       ?delete_widget@Fl@@SAXPAVFl_Widget@@@Z 00488fe0 f   fltk:Fl.obj
 0001:000880a0       ?do_widget_deletion@Fl@@SAXXZ 004890a0 f   fltk:Fl.obj
 0001:00088120       ?watch_widget_pointer@Fl@@SAXAAPAVFl_Widget@@@Z 00489120 f   fltk:Fl.obj
 0001:00088200       ?release_widget_pointer@Fl@@SAXAAPAVFl_Widget@@@Z 00489200 f   fltk:Fl.obj
 0001:00088260       ?clear_widget_pointer@Fl@@SAXPBVFl_Widget@@@Z 00489260 f   fltk:Fl.obj
 0001:000882d0       ??_EFl_Window@@UAEPAXI@Z   004892d0 f i fltk:Fl.obj
 0001:000882d0       ??_GFl_Window@@UAEPAXI@Z   004892d0 f i fltk:Fl.obj
 0001:00088300       ??0Lf2CrlfConvert@@QAE@PBDH@Z 00489300 f i fltk:Fl.obj
 0001:000884b0       ??1Lf2CrlfConvert@@QAE@XZ  004894b0 f i fltk:Fl.obj
 0001:000884e0       ?add_name@NameList@@QAEXPBD@Z 004894e0 f i fltk:Fl.obj
 0001:00088560       ??1NameList@@QAE@XZ        00489560 f i fltk:Fl.obj
 0001:000885c0       ?_Fl_Window@Fl_Window@@AAEXXZ 004895c0 f   fltk:Fl_Window.obj
 0001:00088680       ??0Fl_Window@@QAE@HHHHPBD@Z 00489680 f   fltk:Fl_Window.obj
 0001:00088730       ??0Fl_Window@@QAE@HHPBD@Z  00489730 f   fltk:Fl_Window.obj
 0001:000887e0       ?window@Fl_Widget@@QBEPAVFl_Window@@XZ 004897e0 f   fltk:Fl_Window.obj
 0001:00088830       ?x_root@Fl_Window@@QBEHXZ  00489830 f   fltk:Fl_Window.obj
 0001:00088870       ?y_root@Fl_Window@@QBEHXZ  00489870 f   fltk:Fl_Window.obj
 0001:000888b0       ?draw@Fl_Window@@MAEXXZ    004898b0 f   fltk:Fl_Window.obj
 0001:00088960       ?label@Fl_Window@@QAEXPBD@Z 00489960 f   fltk:Fl_Window.obj
 0001:00088990       ?copy_label@Fl_Window@@QAEXPBD@Z 00489990 f   fltk:Fl_Window.obj
 0001:00088a20       ?iconlabel@Fl_Window@@QAEXPBD@Z 00489a20 f   fltk:Fl_Window.obj
 0001:00088a70       ?default_atclose@Fl@@SAXPAVFl_Window@@PAX@Z 00489a70 f   fltk:Fl_Window.obj
 0001:00088aa0       ?default_callback@Fl_Window@@SAXPAV1@PAX@Z 00489aa0 f   fltk:Fl_Window.obj
 0001:00088ac0       ?current@Fl_Window@@SAPAV1@XZ 00489ac0 f   fltk:Fl_Window.obj
 0001:00088ad0       ?array@Fl_Group@@QBEPBQAVFl_Widget@@XZ 00489ad0 f   fltk:Fl_Group.obj
 0001:00088b00       ?find@Fl_Group@@QBEHPBVFl_Widget@@@Z 00489b00 f   fltk:Fl_Group.obj
 0001:00088b60       ?begin@Fl_Group@@QAEXXZ    00489b60 f   fltk:Fl_Group.obj
 0001:00088b80       ?end@Fl_Group@@QAEXXZ      00489b80 f   fltk:Fl_Group.obj
 0001:00088ba0       ?current@Fl_Group@@SAPAV1@XZ 00489ba0 f   fltk:Fl_Group.obj
 0001:00088bb0       ?current@Fl_Group@@SAXPAV1@@Z 00489bb0 f   fltk:Fl_Group.obj
 0001:00088bc0       ?handle@Fl_Group@@UAEHH@Z  00489bc0 f   fltk:Fl_Group.obj
 0001:00089550       ?navigation@Fl_Group@@AAEHH@Z 0048a550 f   fltk:Fl_Group.obj
 0001:00089710       ??0Fl_Group@@QAE@HHHHPBD@Z 0048a710 f   fltk:Fl_Group.obj
 0001:000897c0       ?clear@Fl_Group@@QAEXXZ    0048a7c0 f   fltk:Fl_Group.obj
 0001:00089890       ??1Fl_Group@@UAE@XZ        0048a890 f   fltk:Fl_Group.obj
 0001:000898f0       ?insert@Fl_Group@@QAEXAAVFl_Widget@@H@Z 0048a8f0 f   fltk:Fl_Group.obj
 0001:00089a70       ?add@Fl_Group@@QAEXAAVFl_Widget@@@Z 0048aa70 f   fltk:Fl_Group.obj
 0001:00089a90       ?remove@Fl_Group@@QAEXAAVFl_Widget@@@Z 0048aa90 f   fltk:Fl_Group.obj
 0001:00089b80       ?init_sizes@Fl_Group@@QAEXXZ 0048ab80 f   fltk:Fl_Group.obj
 0001:00089bb0       ?sizes@Fl_Group@@IAEPAFXZ  0048abb0 f   fltk:Fl_Group.obj
 0001:00089e10       ?resize@Fl_Group@@UAEXHHHH@Z 0048ae10 f   fltk:Fl_Group.obj
 0001:0008a1e0       ?draw_children@Fl_Group@@IAEXXZ 0048b1e0 f   fltk:Fl_Group.obj
 0001:0008a370       ?draw@Fl_Group@@MAEXXZ     0048b370 f   fltk:Fl_Group.obj
 0001:0008a3b0       ?update_child@Fl_Group@@IBEXAAVFl_Widget@@@Z 0048b3b0 f   fltk:Fl_Group.obj
 0001:0008a450       ?draw_child@Fl_Group@@IBEXAAVFl_Widget@@@Z 0048b450 f   fltk:Fl_Group.obj
 0001:0008a4f0       ?draw_outside_label@Fl_Group@@IBEXABVFl_Widget@@@Z 0048b4f0 f   fltk:Fl_Group.obj
 0001:0008a650       ??_GFl_Group@@UAEPAXI@Z    0048b650 f i fltk:Fl_Group.obj
 0001:0008a650       ??_EFl_Group@@UAEPAXI@Z    0048b650 f i fltk:Fl_Group.obj
 0001:0008a680       ?item_pathname@Fl_Menu_@@QBEHPADHPBUFl_Menu_Item@@@Z 0048b680 f   fltk:Fl_Menu_.obj
 0001:0008a8b0       ?find_item@Fl_Menu_@@QAEPBUFl_Menu_Item@@PBD@Z 0048b8b0 f   fltk:Fl_Menu_.obj
 0001:0008aaa0       ?value@Fl_Menu_@@QAEHPBUFl_Menu_Item@@@Z 0048baa0 f   fltk:Fl_Menu_.obj
 0001:0008aae0       ?picked@Fl_Menu_@@QAEPBUFl_Menu_Item@@PBU2@@Z 0048bae0 f   fltk:Fl_Menu_.obj
 0001:0008ac30       ?setonly@Fl_Menu_Item@@QAEXXZ 0048bc30 f   fltk:Fl_Menu_.obj
 0001:0008ace0       ??0Fl_Menu_@@QAE@HHHHPBD@Z 0048bce0 f   fltk:Fl_Menu_.obj
 0001:0008ad90       ?size@Fl_Menu_@@QBEHXZ     0048bd90 f   fltk:Fl_Menu_.obj
 0001:0008adc0       ?menu@Fl_Menu_@@QAEXPBUFl_Menu_Item@@@Z 0048bdc0 f   fltk:Fl_Menu_.obj
 0001:0008adf0       ?copy@Fl_Menu_@@QAEXPBUFl_Menu_Item@@PAX@Z 0048bdf0 f   fltk:Fl_Menu_.obj
 0001:0008ae90       ??1Fl_Menu_@@UAE@XZ        0048be90 f   fltk:Fl_Menu_.obj
 0001:0008aef0       ?clear@Fl_Menu_@@QAEXXZ    0048bef0 f   fltk:Fl_Menu_.obj
 0001:0008afb0       ??_EFl_Menu_@@UAEPAXI@Z    0048bfb0 f i fltk:Fl_Menu_.obj
 0001:0008afb0       ??_GFl_Menu_@@UAEPAXI@Z    0048bfb0 f i fltk:Fl_Menu_.obj
 0001:0008afe0       ?draw@Fl_Menu_Bar@@MAEXXZ  0048bfe0 f   fltk:Fl_Menu_Bar.obj
 0001:0008b150       ?handle@Fl_Menu_Bar@@UAEHH@Z 0048c150 f   fltk:Fl_Menu_Bar.obj
 0001:0008b2b0       ?default_callback@Fl_Widget@@SAXPAV1@PAX@Z 0048c2b0 f   fltk:Fl_Widget.obj
 0001:0008b320       ?readqueue@Fl@@SAPAVFl_Widget@@XZ 0048c320 f   fltk:Fl_Widget.obj
 0001:0008b370       ?handle@Fl_Widget@@UAEHH@Z 0048c370 f   fltk:Fl_Widget.obj
 0001:0008b380       ??0Fl_Widget@@IAE@HHHHPBD@Z 0048c380 f   fltk:Fl_Widget.obj
 0001:0008b490       ?resize@Fl_Widget@@UAEXHHHH@Z 0048c490 f   fltk:Fl_Widget.obj
 0001:0008b4d0       ?damage_resize@Fl_Widget@@QAEHHHHH@Z 0048c4d0 f   fltk:Fl_Widget.obj
 0001:0008b540       ?take_focus@Fl_Widget@@QAEHXZ 0048c540 f   fltk:Fl_Widget.obj
 0001:0008b5c0       ??1Fl_Widget@@UAE@XZ       0048c5c0 f   fltk:Fl_Widget.obj
 0001:0008b6f0       ?draw_focus@Fl_Widget@@IBEXW4Fl_Boxtype@@HHHH@Z 0048c6f0 f   fltk:Fl_Widget.obj
 0001:0008b8d0       ?activate@Fl_Widget@@QAEXXZ 0048c8d0 f   fltk:Fl_Widget.obj
 0001:0008b970       ?deactivate@Fl_Widget@@QAEXXZ 0048c970 f   fltk:Fl_Widget.obj
 0001:0008b9e0       ?active_r@Fl_Widget@@QBEHXZ 0048c9e0 f   fltk:Fl_Widget.obj
 0001:0008ba30       ?show@Fl_Widget@@QAEXXZ    0048ca30 f   fltk:Fl_Widget.obj
 0001:0008bad0       ?hide@Fl_Widget@@QAEXXZ    0048cad0 f   fltk:Fl_Widget.obj
 0001:0008bb70       ?visible_r@Fl_Widget@@QBEHXZ 0048cb70 f   fltk:Fl_Widget.obj
 0001:0008bbc0       ?contains@Fl_Widget@@QBEHPBV1@@Z 0048cbc0 f   fltk:Fl_Widget.obj
 0001:0008bc00       ?label@Fl_Widget@@QAEXPBD@Z 0048cc00 f   fltk:Fl_Widget.obj
 0001:0008bc70       ?copy_label@Fl_Widget@@QAEXPBD@Z 0048cc70 f   fltk:Fl_Widget.obj
 0001:0008bd00       ??_GFl_Widget@@UAEPAXI@Z   0048cd00 f i fltk:Fl_Widget.obj
 0001:0008bd00       ??_EFl_Widget@@UAEPAXI@Z   0048cd00 f i fltk:Fl_Widget.obj
 0001:0008bd30       ??0Fl_Text_Display@@QAE@HHHHPBD@Z 0048cd30 f   fltk:Fl_Text_Display.obj
 0001:0008c1c0       ??1Fl_Text_Display@@UAE@XZ 0048d1c0 f   fltk:Fl_Text_Display.obj
 0001:0008c2a0       ?buffer@Fl_Text_Display@@QAEXPAVFl_Text_Buffer@@@Z 0048d2a0 f   fltk:Fl_Text_Display.obj
 0001:0008c3e0       ?highlight_data@Fl_Text_Display@@QAEXPAVFl_Text_Buffer@@PBUStyle_Table_Entry@1@HDP6AXHPAX@Z2@Z 0048d3e0 f   fltk:Fl_Text_Display.obj
 0001:0008c450       ?longest_vline@Fl_Text_Display@@IAEHXZ 0048d450 f   fltk:Fl_Text_Display.obj
 0001:0008c4b0       ?resize@Fl_Text_Display@@UAEXHHHH@Z 0048d4b0 f   fltk:Fl_Text_Display.obj
 0001:0008ced0       ?draw_text@Fl_Text_Display@@IAEXHHHH@Z 0048ded0 f   fltk:Fl_Text_Display.obj
 0001:0008cfd0       ?redisplay_range@Fl_Text_Display@@QAEXHH@Z 0048dfd0 f   fltk:Fl_Text_Display.obj
 0001:0008d0d0       ?draw_range@Fl_Text_Display@@IAEXHH@Z 0048e0d0 f   fltk:Fl_Text_Display.obj
 0001:0008d300       ?insert_position@Fl_Text_Display@@QAEXH@Z 0048e300 f   fltk:Fl_Text_Display.obj
 0001:0008d3a0       ?show_cursor@Fl_Text_Display@@QAEXH@Z 0048e3a0 f   fltk:Fl_Text_Display.obj
 0001:0008d3e0       ?cursor_style@Fl_Text_Display@@QAEXH@Z 0048e3e0 f   fltk:Fl_Text_Display.obj
 0001:0008d410       ?wrap_mode@Fl_Text_Display@@QAEXHH@Z 0048e410 f   fltk:Fl_Text_Display.obj
 0001:0008d560       ?insert@Fl_Text_Display@@QAEXPBD@Z 0048e560 f   fltk:Fl_Text_Display.obj
 0001:0008d5b0       ?overstrike@Fl_Text_Display@@QAEXPBD@Z 0048e5b0 f   fltk:Fl_Text_Display.obj
 0001:0008d7f0       ?position_to_xy@Fl_Text_Display@@IAEHHPAH0@Z 0048e7f0 f   fltk:Fl_Text_Display.obj
 0001:0008d9f0       ?position_to_linecol@Fl_Text_Display@@IAEHHPAH0@Z 0048e9f0 f   fltk:Fl_Text_Display.obj
 0001:0008db10       ?in_selection@Fl_Text_Display@@QAEHHH@Z 0048eb10 f   fltk:Fl_Text_Display.obj
 0001:0008dbb0       ?wrapped_column@Fl_Text_Display@@QAEHHH@Z 0048ebb0 f   fltk:Fl_Text_Display.obj
 0001:0008dc40       ?wrapped_row@Fl_Text_Display@@QAEHH@Z 0048ec40 f   fltk:Fl_Text_Display.obj
 0001:0008dcb0       ?display_insert@Fl_Text_Display@@IAEXXZ 0048ecb0 f   fltk:Fl_Text_Display.obj
 0001:0008de80       ?show_insert_position@Fl_Text_Display@@QAEXXZ 0048ee80 f   fltk:Fl_Text_Display.obj
 0001:0008dee0       ?move_right@Fl_Text_Display@@QAEHXZ 0048eee0 f   fltk:Fl_Text_Display.obj
 0001:0008df30       ?move_left@Fl_Text_Display@@QAEHXZ 0048ef30 f   fltk:Fl_Text_Display.obj
 0001:0008df60       ?move_up@Fl_Text_Display@@QAEHXZ 0048ef60 f   fltk:Fl_Text_Display.obj
 0001:0008e090       ?move_down@Fl_Text_Display@@QAEHXZ 0048f090 f   fltk:Fl_Text_Display.obj
 0001:0008e1b0       ?count_lines@Fl_Text_Display@@QAEHHH_N@Z 0048f1b0 f   fltk:Fl_Text_Display.obj
 0001:0008e230       ?skip_lines@Fl_Text_Display@@QAEHHH_N@Z 0048f230 f   fltk:Fl_Text_Display.obj
 0001:0008e2d0       ?line_end@Fl_Text_Display@@QAEHH_N@Z 0048f2d0 f   fltk:Fl_Text_Display.obj
 0001:0008e380       ?line_start@Fl_Text_Display@@QAEHH@Z 0048f380 f   fltk:Fl_Text_Display.obj
 0001:0008e410       ?rewind_lines@Fl_Text_Display@@QAEHHH@Z 0048f410 f   fltk:Fl_Text_Display.obj
 0001:0008e4e0       ?next_word@Fl_Text_Display@@QAEXXZ 0048f4e0 f   fltk:Fl_Text_Display.obj
 0001:0008e620       ?previous_word@Fl_Text_Display@@QAEXXZ 0048f620 f   fltk:Fl_Text_Display.obj
 0001:0008e7b0       ?buffer_predelete_cb@Fl_Text_Display@@KAXHHPAX@Z 0048f7b0 f   fltk:Fl_Text_Display.obj
 0001:0008e810       ?buffer_modified_cb@Fl_Text_Display@@KAXHHHHPBDPAX@Z 0048f810 f   fltk:Fl_Text_Display.obj
 0001:0008ebb0       ?maintain_absolute_top_line_number@Fl_Text_Display@@IAEXH@Z 0048fbb0 f   fltk:Fl_Text_Display.obj
 0001:0008ebe0       ?get_absolute_top_line_number@Fl_Text_Display@@IAEHXZ 0048fbe0 f   fltk:Fl_Text_Display.obj
 0001:0008ec20       ?absolute_top_line_number@Fl_Text_Display@@IAEXH@Z 0048fc20 f   fltk:Fl_Text_Display.obj
 0001:0008ecc0       ?maintaining_absolute_top_line_number@Fl_Text_Display@@IAEHXZ 0048fcc0 f   fltk:Fl_Text_Display.obj
 0001:0008ed10       ?reset_absolute_top_line_number@Fl_Text_Display@@IAEXXZ 0048fd10 f   fltk:Fl_Text_Display.obj
 0001:0008ed40       ?position_to_line@Fl_Text_Display@@IAEHHPAH@Z 0048fd40 f   fltk:Fl_Text_Display.obj
 0001:0008ee90       ?draw_vline@Fl_Text_Display@@IAEXHHHHH@Z 0048fe90 f   fltk:Fl_Text_Display.obj
 0001:0008f700       ?draw_string@Fl_Text_Display@@IAEXHHHHPBDH@Z 00490700 f   fltk:Fl_Text_Display.obj
 0001:0008fa80       ?clear_rect@Fl_Text_Display@@IAEXHHHHH@Z 00490a80 f   fltk:Fl_Text_Display.obj
 0001:0008fbb0       ?draw_cursor@Fl_Text_Display@@IAEXHH@Z 00490bb0 f   fltk:Fl_Text_Display.obj
 0001:0008ff20       ?position_style@Fl_Text_Display@@QAEHHHHH@Z 00490f20 f   fltk:Fl_Text_Display.obj
 0001:00090060       ?string_width@Fl_Text_Display@@IAEHPBDHH@Z 00491060 f   fltk:Fl_Text_Display.obj
 0001:00090130       ?xy_to_position@Fl_Text_Display@@IAEHHHH@Z 00491130 f   fltk:Fl_Text_Display.obj
 0001:00090310       ?xy_to_rowcol@Fl_Text_Display@@IAEXHHPAH0H@Z 00491310 f   fltk:Fl_Text_Display.obj
 0001:000903d0       ?offset_line_starts@Fl_Text_Display@@IAEXH@Z 004913d0 f   fltk:Fl_Text_Display.obj
 0001:00090610       ?update_line_starts@Fl_Text_Display@@IAEXHHHHHPAH@Z 00491610 f   fltk:Fl_Text_Display.obj
 0001:000909a0       ?calc_line_starts@Fl_Text_Display@@IAEXHH@Z 004919a0 f   fltk:Fl_Text_Display.obj
 0001:00090b20       ?calc_last_char@Fl_Text_Display@@IAEXXZ 00491b20 f   fltk:Fl_Text_Display.obj
 0001:00090ba0       ?scroll@Fl_Text_Display@@QAEXHH@Z 00491ba0 f   fltk:Fl_Text_Display.obj
 0001:00090c10       ?scroll_@Fl_Text_Display@@IAEXHH@Z 00491c10 f   fltk:Fl_Text_Display.obj
 0001:00090ce0       ?update_v_scrollbar@Fl_Text_Display@@IAEXXZ 00491ce0 f   fltk:Fl_Text_Display.obj
 0001:00090d50       ?update_h_scrollbar@Fl_Text_Display@@IAEXXZ 00491d50 f   fltk:Fl_Text_Display.obj
 0001:00090dc0       ?v_scrollbar_cb@Fl_Text_Display@@KAXPAVFl_Scrollbar@@PAV1@@Z 00491dc0 f   fltk:Fl_Text_Display.obj
 0001:00090e10       ?h_scrollbar_cb@Fl_Text_Display@@KAXPAVFl_Scrollbar@@PAV1@@Z 00491e10 f   fltk:Fl_Text_Display.obj
 0001:00090e60       ?draw_line_numbers@Fl_Text_Display@@IAEX_N@Z 00491e60 f   fltk:Fl_Text_Display.obj
 0001:00090f20       ?measure_vline@Fl_Text_Display@@IAEHH@Z 00491f20 f   fltk:Fl_Text_Display.obj
 0001:00091100       ?empty_vlines@Fl_Text_Display@@IAEHXZ 00492100 f   fltk:Fl_Text_Display.obj
 0001:00091150       ?vline_length@Fl_Text_Display@@IAEHH@Z 00492150 f   fltk:Fl_Text_Display.obj
 0001:00091200       ?find_wrap_range@Fl_Text_Display@@IAEXPBDHHHPAH111@Z 00492200 f   fltk:Fl_Text_Display.obj
 0001:00091680       ?measure_deleted_lines@Fl_Text_Display@@IAEXHH@Z 00492680 f   fltk:Fl_Text_Display.obj
 0001:00091800       ?wrapped_line_counter@Fl_Text_Display@@IAEXPAVFl_Text_Buffer@@HHH_NHPAH2221@Z 00492800 f   fltk:Fl_Text_Display.obj
 0001:00091c70       ?measure_proportional_character@Fl_Text_Display@@IAEHDHH@Z 00492c70 f   fltk:Fl_Text_Display.obj
 0001:00091d70       ?find_line_end@Fl_Text_Display@@IAEXH_NPAH1@Z 00492d70 f   fltk:Fl_Text_Display.obj
 0001:00091e30       ?wrap_uses_character@Fl_Text_Display@@IAEHH@Z 00492e30 f   fltk:Fl_Text_Display.obj
 0001:00091ee0       ?range_touches_selection@Fl_Text_Display@@IAEHPAVFl_Text_Selection@@HH@Z 00492ee0 f   fltk:Fl_Text_Display.obj
 0001:00091f50       ?extend_range_for_styles@Fl_Text_Display@@IAEXPAH0@Z 00492f50 f   fltk:Fl_Text_Display.obj
 0001:00092010       ?draw@Fl_Text_Display@@MAEXXZ 00493010 f   fltk:Fl_Text_Display.obj
 0001:00092870       ?fl_text_drag_me@@YAXHPAVFl_Text_Display@@@Z 00493870 f   fltk:Fl_Text_Display.obj
 0001:00092b20       ?scroll_timer_cb@Fl_Text_Display@@KAXPAX@Z 00493b20 f   fltk:Fl_Text_Display.obj
 0001:00092cc0       ?handle@Fl_Text_Display@@UAEHH@Z 00493cc0 f   fltk:Fl_Text_Display.obj
 0001:00093880       ??_EFl_Text_Display@@UAEPAXI@Z 00494880 f i fltk:Fl_Text_Display.obj
 0001:00093880       ??_GFl_Text_Display@@UAEPAXI@Z 00494880 f i fltk:Fl_Text_Display.obj
 0001:000938b0       ?value@Fl_Button@@QAEHH@Z  004948b0 f   fltk:Fl_Button.obj
 0001:00093930       ?setonly@Fl_Button@@QAEXXZ 00494930 f   fltk:Fl_Button.obj
 0001:000939b0       ?draw@Fl_Button@@MAEXXZ    004949b0 f   fltk:Fl_Button.obj
 0001:00093af0       ?handle@Fl_Button@@UAEHH@Z 00494af0 f   fltk:Fl_Button.obj
 0001:00094190       ??0Fl_Button@@QAE@HHHHPBD@Z 00495190 f   fltk:Fl_Button.obj
 0001:00094200       ?draw_focus@Fl_Widget@@IAEXXZ 00495200 f i fltk:Fl_Button.obj
 0001:00094260       ??_GFl_Button@@UAEPAXI@Z   00495260 f i fltk:Fl_Button.obj
 0001:00094260       ??_EFl_Button@@UAEPAXI@Z   00495260 f i fltk:Fl_Button.obj
 0001:00094290       ?expand@Fl_Input_@@ABEPBDPBDPAD@Z 00495290 f   fltk:Fl_Input_.obj
 0001:00094520       ?expandpos@Fl_Input_@@ABENPBD00PAH@Z 00495520 f   fltk:Fl_Input_.obj
 0001:000945f0       ?minimal_update@Fl_Input_@@AAEXH@Z 004955f0 f   fltk:Fl_Input_.obj
 0001:00094660       ?minimal_update@Fl_Input_@@AAEXHH@Z 00495660 f   fltk:Fl_Input_.obj
 0001:00094690       ?setfont@Fl_Input_@@ABEXXZ 00495690 f   fltk:Fl_Input_.obj
 0001:000946c0       ?drawtext@Fl_Input_@@IAEXHHHH@Z 004956c0 f   fltk:Fl_Input_.obj
 0001:00095650       ?word_end@Fl_Input_@@IBEHH@Z 00496650 f   fltk:Fl_Input_.obj
 0001:00095720       ?word_start@Fl_Input_@@IBEHH@Z 00496720 f   fltk:Fl_Input_.obj
 0001:00095780       ?line_end@Fl_Input_@@IBEHH@Z 00496780 f   fltk:Fl_Input_.obj
 0001:00095910       ?line_start@Fl_Input_@@IBEHH@Z 00496910 f   fltk:Fl_Input_.obj
 0001:00095a50       ?handle_mouse@Fl_Input_@@IAEXHHHHH@Z 00496a50 f   fltk:Fl_Input_.obj
 0001:00095f70       ?position@Fl_Input_@@QAEHHH@Z 00496f70 f   fltk:Fl_Input_.obj
 0001:000960b0       ?up_down_position@Fl_Input_@@IAEHHH@Z 004970b0 f   fltk:Fl_Input_.obj
 0001:00096230       ?copy@Fl_Input_@@QAEHH@Z   00497230 f   fltk:Fl_Input_.obj
 0001:000962c0       ?replace@Fl_Input_@@QAEHHHPBDH@Z 004972c0 f   fltk:Fl_Input_.obj
 0001:00096830       ?undo@Fl_Input_@@QAEHXZ    00497830 f   fltk:Fl_Input_.obj
 0001:00096a50       ?copy_cuts@Fl_Input_@@QAEHXZ 00497a50 f   fltk:Fl_Input_.obj
 0001:00096aa0       ?maybe_do_callback@Fl_Input_@@IAEXXZ 00497aa0 f   fltk:Fl_Input_.obj
 0001:00096b00       ?handletext@Fl_Input_@@IAEHHHHHH@Z 00497b00 f   fltk:Fl_Input_.obj
 0001:00097140       ??0Fl_Input_@@QAE@HHHHPBD@Z 00498140 f   fltk:Fl_Input_.obj
 0001:00097220       ?put_in_buffer@Fl_Input_@@AAEXH@Z 00498220 f   fltk:Fl_Input_.obj
 0001:000973a0       ?static_value@Fl_Input_@@QAEHPBDH@Z 004983a0 f   fltk:Fl_Input_.obj
 0001:00097530       ?static_value@Fl_Input_@@QAEHPBD@Z 00498530 f   fltk:Fl_Input_.obj
 0001:00097570       ?value@Fl_Input_@@QAEHPBDH@Z 00498570 f   fltk:Fl_Input_.obj
 0001:000975b0       ?value@Fl_Input_@@QAEHPBD@Z 004985b0 f   fltk:Fl_Input_.obj
 0001:000975f0       ?resize@Fl_Input_@@UAEXHHHH@Z 004985f0 f   fltk:Fl_Input_.obj
 0001:00097650       ??1Fl_Input_@@UAE@XZ       00498650 f   fltk:Fl_Input_.obj
 0001:000976a0       ??_GFl_Input_@@UAEPAXI@Z   004986a0 f i fltk:Fl_Input_.obj
 0001:000976a0       ??_EFl_Input_@@UAEPAXI@Z   004986a0 f i fltk:Fl_Input_.obj
 0001:000976d0       ?draw@Fl_Input@@UAEXXZ     004986d0 f   fltk:Fl_Input.obj
 0001:000977b0       ?shift_position@Fl_Input@@AAEHH@Z 004987b0 f   fltk:Fl_Input.obj
 0001:00097800       ?shift_up_down_position@Fl_Input@@AAEHH@Z 00498800 f   fltk:Fl_Input.obj
 0001:00097830       ?handle_key@Fl_Input@@AAEHXZ 00498830 f   fltk:Fl_Input.obj
 0001:00098840       ?handle@Fl_Input@@UAEHH@Z  00499840 f   fltk:Fl_Input.obj
 0001:00099070       ??0Fl_Input@@QAE@HHHHPBD@Z 0049a070 f   fltk:Fl_Input.obj
 0001:000990b0       ??_EFl_Input@@UAEPAXI@Z    0049a0b0 f i fltk:Fl_Input.obj
 0001:000990b0       ??_GFl_Input@@UAEPAXI@Z    0049a0b0 f i fltk:Fl_Input.obj
 0001:000990e0       ?resizeform@@YAXXZ         0049a0e0 f   fltk:fl_ask.obj
 0001:00099440       ?fl_beep@@YAXH@Z           0049a440 f   fltk:fl_ask.obj
 0001:000994b0       ?fl_message@@YAXPBDZZ      0049a4b0 f   fltk:fl_ask.obj
 0001:00099cc0       ?fl_alert@@YAXPBDZZ        0049acc0 f   fltk:fl_ask.obj
 0001:00099d20       ?fl_ask@@YAHPBDZZ          0049ad20 f   fltk:fl_ask.obj
 0001:00099d80       ?fl_choice@@YAHPBD000ZZ    0049ad80 f   fltk:fl_ask.obj
 0001:00099de0       ?fl_message_icon@@YAPAVFl_Widget@@XZ 0049ade0 f   fltk:fl_ask.obj
 0001:00099df0       ?fl_input@@YAPBDPBD0ZZ     0049adf0 f   fltk:fl_ask.obj
 0001:00099f30       ?fl_password@@YAPBDPBD0ZZ  0049af30 f   fltk:fl_ask.obj
 0001:00099f80       ??_EFl_Box@@UAEPAXI@Z      0049af80 f i fltk:fl_ask.obj
 0001:00099f80       ??_GFl_Box@@UAEPAXI@Z      0049af80 f i fltk:fl_ask.obj
 0001:00099fb0       ??_EFl_Return_Button@@UAEPAXI@Z 0049afb0 f i fltk:fl_ask.obj
 0001:00099fb0       ??_GFl_Return_Button@@UAEPAXI@Z 0049afb0 f i fltk:fl_ask.obj
 0001:00099fe0       ?visual@Fl@@SAHH@Z         0049afe0 f   fltk:Fl_visual.obj
 0001:0009a040       ??0Fl_Check_Button@@QAE@HHHHPBD@Z 0049b040 f   fltk:Fl_Check_Button.obj
 0001:0009a090       ??_EFl_Check_Button@@UAEPAXI@Z 0049b090 f i fltk:Fl_Check_Button.obj
 0001:0009a090       ??_GFl_Check_Button@@UAEPAXI@Z 0049b090 f i fltk:Fl_Check_Button.obj
 0001:0009a0c0       ??0Fl_Valuator@@IAE@HHHHPBD@Z 0049b0c0 f   fltk:Fl_Valuator.obj
 0001:0009a140       ?step@Fl_Valuator@@QAEXN@Z 0049b140 f   fltk:Fl_Valuator.obj
 0001:0009a200       ?precision@Fl_Valuator@@QAEXH@Z 0049b200 f   fltk:Fl_Valuator.obj
 0001:0009a240       ?value_damage@Fl_Valuator@@MAEXXZ 0049b240 f   fltk:Fl_Valuator.obj
 0001:0009a260       ?value@Fl_Valuator@@QAEHN@Z 0049b260 f   fltk:Fl_Valuator.obj
 0001:0009a2b0       ?softclamp@Fl_Valuator@@IAENN@Z 0049b2b0 f   fltk:Fl_Valuator.obj
 0001:0009a3d0       ?handle_drag@Fl_Valuator@@IAEXN@Z 0049b3d0 f   fltk:Fl_Valuator.obj
 0001:0009a460       ?handle_release@Fl_Valuator@@IAEXXZ 0049b460 f   fltk:Fl_Valuator.obj
 0001:0009a4e0       ?round@Fl_Valuator@@QAENN@Z 0049b4e0 f   fltk:Fl_Valuator.obj
 0001:0009a550       ?clamp@Fl_Valuator@@QAENN@Z 0049b550 f   fltk:Fl_Valuator.obj
 0001:0009a610       ?increment@Fl_Valuator@@QAENNH@Z 0049b610 f   fltk:Fl_Valuator.obj
 0001:0009a6b0       ?format@Fl_Valuator@@UAEHPAD@Z 0049b6b0 f   fltk:Fl_Valuator.obj
 0001:0009a7e0       ??_EFl_Valuator@@UAEPAXI@Z 0049b7e0 f i fltk:Fl_Valuator.obj
 0001:0009a7e0       ??_GFl_Valuator@@UAEPAXI@Z 0049b7e0 f i fltk:Fl_Valuator.obj
 0001:0009a810       ??0Fl_Value_Slider@@QAE@HHHHPBD@Z 0049b810 f   fltk:Fl_Value_Slider.obj
 0001:0009a880       ?draw@Fl_Value_Slider@@UAEXXZ 0049b880 f   fltk:Fl_Value_Slider.obj
 0001:0009aba0       ?handle@Fl_Value_Slider@@UAEHH@Z 0049bba0 f   fltk:Fl_Value_Slider.obj
 0001:0009acb0       ??_GFl_Value_Slider@@UAEPAXI@Z 0049bcb0 f i fltk:Fl_Value_Slider.obj
 0001:0009acb0       ??_EFl_Value_Slider@@UAEPAXI@Z 0049bcb0 f i fltk:Fl_Value_Slider.obj
 0001:0009ace0       ?compose@Fl@@SAHAAH@Z      0049bce0 f   fltk:Fl_compose.obj
 0001:0009af90       ?layout@Fl_TooltipBox@@QAEXXZ 0049bf90 f   fltk:Fl_Tooltip.obj
 0001:0009b110       ?draw@Fl_TooltipBox@@UAEXXZ 0049c110 f   fltk:Fl_Tooltip.obj
 0001:0009b1b0       ?enter_@Fl_Tooltip@@SAXPAVFl_Widget@@@Z 0049c1b0 f   fltk:Fl_Tooltip.obj
 0001:0009b230       ?current@Fl_Tooltip@@SAXPAVFl_Widget@@@Z 0049c230 f   fltk:Fl_Tooltip.obj
 0001:0009b280       ?exit_@Fl_Tooltip@@SAXPAVFl_Widget@@@Z 0049c280 f   fltk:Fl_Tooltip.obj
 0001:0009b480       ?enter_area@Fl_Tooltip@@SAXPAVFl_Widget@@HHHHPBD@Z 0049c480 f   fltk:Fl_Tooltip.obj
 0001:0009b600       ?tooltip@Fl_Widget@@QAEXPBD@Z 0049c600 f   fltk:Fl_Tooltip.obj
 0001:0009b640       ??0Fl_TooltipBox@@QAE@XZ   0049c640 f i fltk:Fl_Tooltip.obj
 0001:0009b6e0       ??_GFl_Single_Window@@UAEPAXI@Z 0049c6e0 f i fltk:Fl_Tooltip.obj
 0001:0009b6e0       ??_EFl_Single_Window@@UAEPAXI@Z 0049c6e0 f i fltk:Fl_Tooltip.obj
 0001:0009b710       ??_EFl_Menu_Window@@UAEPAXI@Z 0049c710 f i fltk:Fl_Tooltip.obj
 0001:0009b710       ??_GFl_Menu_Window@@UAEPAXI@Z 0049c710 f i fltk:Fl_Tooltip.obj
 0001:0009b740       ?show@Fl_TooltipBox@@UAEXXZ 0049c740 f i fltk:Fl_Tooltip.obj
 0001:0009b760       ??_GFl_TooltipBox@@UAEPAXI@Z 0049c760 f i fltk:Fl_Tooltip.obj
 0001:0009b760       ??_EFl_TooltipBox@@UAEPAXI@Z 0049c760 f i fltk:Fl_Tooltip.obj
 0001:0009b790       ?fl_no_label@@YAXPBUFl_Label@@HHHHW4Fl_Align@@@Z 0049c790 f   fltk:fl_labeltype.obj
 0001:0009b7a0       ?fl_normal_label@@YAXPBUFl_Label@@HHHHW4Fl_Align@@@Z 0049c7a0 f   fltk:fl_labeltype.obj
 0001:0009b800       ?fl_normal_measure@@YAXPBUFl_Label@@AAH1@Z 0049c800 f   fltk:fl_labeltype.obj
 0001:0009b890       ?set_labeltype@Fl@@SAXW4Fl_Labeltype@@P6AXPBUFl_Label@@HHHHW4Fl_Align@@@ZP6AX1AAH4@Z@Z 0049c890 f   fltk:fl_labeltype.obj
 0001:0009b8b0       ?draw@Fl_Label@@QBEXHHHHW4Fl_Align@@@Z 0049c8b0 f   fltk:fl_labeltype.obj
 0001:0009b900       ?measure@Fl_Label@@QBEXAAH0@Z 0049c900 f   fltk:fl_labeltype.obj
 0001:0009b970       ?draw_label@Fl_Widget@@IBEXXZ 0049c970 f   fltk:fl_labeltype.obj
 0001:0009ba40       ?draw_label@Fl_Widget@@IBEXHHHH@Z 0049ca40 f   fltk:fl_labeltype.obj
 0001:0009ba90       ?draw_label@Fl_Widget@@QBEXHHHHW4Fl_Align@@@Z 0049ca90 f   fltk:fl_labeltype.obj
 0001:0009bb30       ?fl_rect@@YAXHHHH@Z        0049cb30 f   fltk:fl_rect.obj
 0001:0009bbd0       ?fl_rectf@@YAXHHHH@Z       0049cbd0 f   fltk:fl_rect.obj
 0001:0009bc40       ?fl_xyline@@YAXHHH@Z       0049cc40 f   fltk:fl_rect.obj
 0001:0009bc80       ?fl_xyline@@YAXHHHH@Z      0049cc80 f   fltk:fl_rect.obj
 0001:0009bcf0       ?fl_xyline@@YAXHHHHH@Z     0049ccf0 f   fltk:fl_rect.obj
 0001:0009bd70       ?fl_yxline@@YAXHHH@Z       0049cd70 f   fltk:fl_rect.obj
 0001:0009bdc0       ?fl_yxline@@YAXHHHH@Z      0049cdc0 f   fltk:fl_rect.obj
 0001:0009be30       ?fl_yxline@@YAXHHHHH@Z     0049ce30 f   fltk:fl_rect.obj
 0001:0009beb0       ?fl_line@@YAXHHHH@Z        0049ceb0 f   fltk:fl_rect.obj
 0001:0009bf10       ?fl_line@@YAXHHHHHH@Z      0049cf10 f   fltk:fl_rect.obj
 0001:0009bf80       ?fl_loop@@YAXHHHHHH@Z      0049cf80 f   fltk:fl_rect.obj
 0001:0009bfe0       ?fl_loop@@YAXHHHHHHHH@Z    0049cfe0 f   fltk:fl_rect.obj
 0001:0009c050       ?fl_polygon@@YAXHHHHHH@Z   0049d050 f   fltk:fl_rect.obj
 0001:0009c0c0       ?fl_polygon@@YAXHHHHHHHH@Z 0049d0c0 f   fltk:fl_rect.obj
 0001:0009c140       ?fl_point@@YAXHH@Z         0049d140 f   fltk:fl_rect.obj
 0001:0009c170       ?fl_restore_clip@@YAXXZ    0049d170 f   fltk:fl_rect.obj
 0001:0009c1b0       ?fl_clip_region@@YAXPAUHRGN__@@@Z 0049d1b0 f   fltk:fl_rect.obj
 0001:0009c1f0       ?fl_clip_region@@YAPAUHRGN__@@XZ 0049d1f0 f   fltk:fl_rect.obj
 0001:0009c210       ?fl_push_clip@@YAXHHHH@Z   0049d210 f   fltk:fl_rect.obj
 0001:0009c2c0       ?fl_push_no_clip@@YAXXZ    0049d2c0 f   fltk:fl_rect.obj
 0001:0009c310       ?fl_pop_clip@@YAXXZ        0049d310 f   fltk:fl_rect.obj
 0001:0009c370       ?fl_not_clipped@@YAHHHHH@Z 0049d370 f   fltk:fl_rect.obj
 0001:0009c3f0       ?fl_clip_box@@YAHHHHHAAH000@Z 0049d3f0 f   fltk:fl_rect.obj
 0001:0009c520       ?add_awake_handler_@Fl@@SAHP6AXPAX@Z0@Z 0049d520 f   fltk:Fl_lock.obj
 0001:0009c600       ?get_awake_handler_@Fl@@SAHAAP6AXPAX@ZAAPAX@Z 0049d600 f   fltk:Fl_lock.obj
 0001:0009c690       ?awake@Fl@@SAHP6AXPAX@Z0@Z 0049d690 f   fltk:Fl_lock.obj
 0001:0009c720       ?lock@Fl@@SAXXZ            0049d720 f   fltk:Fl_lock.obj
 0001:0009c790       ?unlock@Fl@@SAXXZ          0049d790 f   fltk:Fl_lock.obj
 0001:0009c7a0       ?awake@Fl@@SAXPAX@Z        0049d7a0 f   fltk:Fl_lock.obj
 0001:0009c7c0       ?screen_count@Fl@@SAHXZ    0049d7c0 f   fltk:screen_xywh.obj
 0001:0009c900       ?screen_xywh@Fl@@SAXAAH000HH@Z 0049d900 f   fltk:screen_xywh.obj
 0001:0009ca20       ?screen_xywh@Fl@@SAXAAH000H@Z 0049da20 f   fltk:screen_xywh.obj
 0001:0009cae0       ?dnd@Fl@@SAHXZ             0049dae0 f   fltk:fl_dnd.obj
 0001:0009cc20       ?QueryInterface@FLDropSource@@UAGJABU_GUID@@PAPAX@Z 0049dc20 f i fltk:fl_dnd.obj
 0001:0009cc90       ?AddRef@FLDropSource@@UAGKXZ 0049dc90 f i fltk:fl_dnd.obj
 0001:0009ccc0       ?Release@FLDropSource@@UAGKXZ 0049dcc0 f i fltk:fl_dnd.obj
 0001:0009cd10       ?GiveFeedback@FLDropSource@@UAGJK@Z 0049dd10 f i fltk:fl_dnd.obj
 0001:0009cd20       ?QueryContinueDrag@FLDropSource@@UAGJHK@Z 0049dd20 f i fltk:fl_dnd.obj
 0001:0009cd50       ?QueryInterface@FLDataObject@@UAGJABU_GUID@@PAPAX@Z 0049dd50 f i fltk:fl_dnd.obj
 0001:0009cdc0       ?AddRef@FLDataObject@@UAGKXZ 0049ddc0 f i fltk:fl_dnd.obj
 0001:0009cdf0       ?Release@FLDataObject@@UAGKXZ 0049ddf0 f i fltk:fl_dnd.obj
 0001:0009ce40       ?GetData@FLDataObject@@UAGJPAUtagFORMATETC@@PAUtagSTGMEDIUM@@@Z 0049de40 f i fltk:fl_dnd.obj
 0001:0009cef0       ?QueryGetData@FLDataObject@@UAGJPAUtagFORMATETC@@@Z 0049def0 f i fltk:fl_dnd.obj
 0001:0009cf30       ?GetDataHere@FLDataObject@@UAGJPAUtagFORMATETC@@PAUtagSTGMEDIUM@@@Z 0049df30 f i fltk:fl_dnd.obj
 0001:0009cf40       ?GetCanonicalFormatEtc@FLDataObject@@UAGJPAUtagFORMATETC@@0@Z 0049df40 f i fltk:fl_dnd.obj
 0001:0009cf50       ?SetData@FLDataObject@@UAGJPAUtagFORMATETC@@PAUtagSTGMEDIUM@@H@Z 0049df50 f i fltk:fl_dnd.obj
 0001:0009cf60       ?EnumFormatEtc@FLDataObject@@UAGJKPAPAUIEnumFORMATETC@@@Z 0049df60 f i fltk:fl_dnd.obj
 0001:0009cf70       ?DAdvise@FLDataObject@@UAGJPAUtagFORMATETC@@KPAUIAdviseSink@@PAK@Z 0049df70 f i fltk:fl_dnd.obj
 0001:0009cf80       ?DUnadvise@FLDataObject@@UAGJK@Z 0049df80 f i fltk:fl_dnd.obj
 0001:0009cf90       ?EnumDAdvise@FLDataObject@@UAGJPAPAUIEnumSTATDATA@@@Z 0049df90 f i fltk:fl_dnd.obj
 0001:0009cfa0       ?QueryInterface@FLDropTarget@@UAGJABU_GUID@@PAPAX@Z 0049dfa0 f i fltk:fl_dnd.obj
 0001:0009d010       ?AddRef@FLDropTarget@@UAGKXZ 0049e010 f i fltk:fl_dnd.obj
 0001:0009d040       ?Release@FLDropTarget@@UAGKXZ 0049e040 f i fltk:fl_dnd.obj
 0001:0009d090       ?DragEnter@FLDropTarget@@UAGJPAUIDataObject@@KU_POINTL@@PAK@Z 0049e090 f i fltk:fl_dnd.obj
 0001:0009d190       ?DragOver@FLDropTarget@@UAGJKU_POINTL@@PAK@Z 0049e190 f i fltk:fl_dnd.obj
 0001:0009d2a0       ?DragLeave@FLDropTarget@@UAGJXZ 0049e2a0 f i fltk:fl_dnd.obj
 0001:0009d330       ?Drop@FLDropTarget@@UAGJPAUIDataObject@@KU_POINTL@@PAK@Z 0049e330 f i fltk:fl_dnd.obj
 0001:0009d4a0       ?fillCurrentDragData@FLDropTarget@@CADPAUIDataObject@@@Z 0049e4a0 f i fltk:fl_dnd.obj
 0001:0009d720       ?fl_cleanup_pens@@YAXXZ    0049e720 f   fltk:fl_color.obj
 0001:0009d770       ?fl_save_pen@@YAXXZ        0049e770 f   fltk:fl_color.obj
 0001:0009d7b0       ?fl_restore_pen@@YAXXZ     0049e7b0 f   fltk:fl_color.obj
 0001:0009d800       ?fl_color@@YAXW4Fl_Color@@@Z 0049e800 f   fltk:fl_color.obj
 0001:0009d960       ?fl_color@@YAXEEE@Z        0049e960 f   fltk:fl_color.obj
 0001:0009da90       ?fl_brush@@YAPAUHBRUSH__@@XZ 0049ea90 f   fltk:fl_color.obj
 0001:0009daa0       ?fl_brush_action@@YAPAUHBRUSH__@@H@Z 0049eaa0 f   fltk:fl_color.obj
 0001:0009dd20       ?free_color@Fl@@SAXW4Fl_Color@@H@Z 0049ed20 f   fltk:fl_color.obj
 0001:0009dd50       ?set_color@Fl@@SAXW4Fl_Color@@I@Z 0049ed50 f   fltk:fl_color.obj
 0001:0009dd90       ?fl_select_palette@@YAPAUHPALETTE__@@XZ 0049ed90 f   fltk:fl_color.obj
 0001:0009df20       ?get_color@Fl@@SAIW4Fl_Color@@@Z 0049ef20 f   fltk:fl_color.obj
 0001:0009df40       ?set_color@Fl@@SAXW4Fl_Color@@EEE@Z 0049ef40 f   fltk:fl_color.obj
 0001:0009df70       ?get_color@Fl@@SAXW4Fl_Color@@AAE11@Z 0049ef70 f   fltk:fl_color.obj
 0001:0009dfc0       ?fl_color_average@@YA?AW4Fl_Color@@W41@0M@Z 0049efc0 f   fltk:fl_color.obj
 0001:0009e140       ?fl_inactive@@YA?AW4Fl_Color@@W41@@Z 0049f140 f   fltk:fl_color.obj
 0001:0009e160       ?fl_contrast@@YA?AW4Fl_Color@@W41@0@Z 0049f160 f   fltk:fl_color.obj
 0001:0009e340       ?background@Fl@@SAXEEE@Z   0049f340 f   fltk:Fl_get_system_colors.obj
 0001:0009e550       ?foreground@Fl@@SAXEEE@Z   0049f550 f   fltk:Fl_get_system_colors.obj
 0001:0009e580       ?background2@Fl@@SAXEEE@Z  0049f580 f   fltk:Fl_get_system_colors.obj
 0001:0009e5d0       ?fl_parse_color@@YAHPBDAAE11@Z 0049f5d0 f   fltk:Fl_get_system_colors.obj
 0001:0009e730       ?get_system_colors@Fl@@SAXXZ 0049f730 f   fltk:Fl_get_system_colors.obj
 0001:0009e860       ?scheme@Fl@@SAHPBD@Z       0049f860 f   fltk:Fl_get_system_colors.obj
 0001:0009e940       ?reload_scheme@Fl@@SAHXZ   0049f940 f   fltk:Fl_get_system_colors.obj
 0001:0009ee90       ??0Fl_Pixmap@@QAE@PBQBD@Z  0049fe90 f i fltk:Fl_get_system_colors.obj
 0001:0009ef60       ??_GFl_Image@@UAEPAXI@Z    0049ff60 f i fltk:Fl_get_system_colors.obj
 0001:0009ef60       ??_EFl_Image@@UAEPAXI@Z    0049ff60 f i fltk:Fl_get_system_colors.obj
 0001:0009ef90       ??_GFl_Pixmap@@UAEPAXI@Z   0049ff90 f i fltk:Fl_get_system_colors.obj
 0001:0009ef90       ??_EFl_Pixmap@@UAEPAXI@Z   0049ff90 f i fltk:Fl_get_system_colors.obj
 0001:0009efc0       ??0Fl_FontSize@@QAE@PBDH@Z 0049ffc0 f   fltk:fl_font.obj
 0001:0009f140       ??1Fl_FontSize@@QAE@XZ     004a0140 f   fltk:fl_font.obj
 0001:0009f170       ?fl_font@@YAXHH@Z          004a0170 f   fltk:fl_font.obj
 0001:0009f2e0       ?fl_height@@YAHXZ          004a02e0 f   fltk:fl_font.obj
 0001:0009f310       ?fl_descent@@YAHXZ         004a0310 f   fltk:fl_font.obj
 0001:0009f330       ?fl_width@@YANPBDH@Z       004a0330 f   fltk:fl_font.obj
 0001:0009f390       ?fl_width@@YANE@Z          004a0390 f   fltk:fl_font.obj
 0001:0009f3c0       ?fl_draw@@YAXPBDHHH@Z      004a03c0 f   fltk:fl_font.obj
 0001:0009f440       ?fl_draw@@YAXPBDHMM@Z      004a0440 f   fltk:fl_font.obj
 0001:0009f470       ?fl_width@@YANPBD@Z        004a0470 f   fltk:fl_font.obj
 0001:0009f4a0       ?fl_draw@@YAXPBDHH@Z       004a04a0 f   fltk:fl_font.obj
 0001:0009f4d0       ?fl_rectf@@YAXHHHHW4Fl_Color@@@Z 004a04d0 f i fltk:fl_boxtype.obj
 0001:0009f500       ?draw_box_active@Fl@@SAHXZ 004a0500 f   fltk:fl_boxtype.obj
 0001:0009f510       ?fl_gray_ramp@@YAPAEXZ     004a0510 f   fltk:fl_boxtype.obj
 0001:0009f540       ?fl_frame@@YAXPBDHHHH@Z    004a0540 f   fltk:fl_boxtype.obj
 0001:0009f6f0       ?fl_frame2@@YAXPBDHHHH@Z   004a06f0 f   fltk:fl_boxtype.obj
 0001:0009f8a0       ?fl_no_box@@YAXHHHHW4Fl_Color@@@Z 004a08a0 f   fltk:fl_boxtype.obj
 0001:0009f8b0       ?fl_thin_down_frame@@YAXHHHHW4Fl_Color@@@Z 004a08b0 f   fltk:fl_boxtype.obj
 0001:0009f8e0       ?fl_thin_down_box@@YAXHHHHW4Fl_Color@@@Z 004a08e0 f   fltk:fl_boxtype.obj
 0001:0009f960       ?fl_thin_up_frame@@YAXHHHHW4Fl_Color@@@Z 004a0960 f   fltk:fl_boxtype.obj
 0001:0009f990       ?fl_thin_up_box@@YAXHHHHW4Fl_Color@@@Z 004a0990 f   fltk:fl_boxtype.obj
 0001:0009fa10       ?fl_up_frame@@YAXHHHHW4Fl_Color@@@Z 004a0a10 f   fltk:fl_boxtype.obj
 0001:0009fa40       ?fl_up_box@@YAXHHHHW4Fl_Color@@@Z 004a0a40 f   fltk:fl_boxtype.obj
 0001:0009fac0       ?fl_down_frame@@YAXHHHHW4Fl_Color@@@Z 004a0ac0 f   fltk:fl_boxtype.obj
 0001:0009faf0       ?fl_down_box@@YAXHHHHW4Fl_Color@@@Z 004a0af0 f   fltk:fl_boxtype.obj
 0001:0009fb50       ?fl_engraved_frame@@YAXHHHHW4Fl_Color@@@Z 004a0b50 f   fltk:fl_boxtype.obj
 0001:0009fb80       ?fl_engraved_box@@YAXHHHHW4Fl_Color@@@Z 004a0b80 f   fltk:fl_boxtype.obj
 0001:0009fc00       ?fl_embossed_frame@@YAXHHHHW4Fl_Color@@@Z 004a0c00 f   fltk:fl_boxtype.obj
 0001:0009fc30       ?fl_embossed_box@@YAXHHHHW4Fl_Color@@@Z 004a0c30 f   fltk:fl_boxtype.obj
 0001:0009fcb0       ?fl_rectbound@@YAXHHHHW4Fl_Color@@@Z 004a0cb0 f   fltk:fl_boxtype.obj
 0001:0009fd50       ?fl_border_frame@@YAXHHHHW4Fl_Color@@@Z 004a0d50 f   fltk:fl_boxtype.obj
 0001:0009fda0       ?box_dx@Fl@@SAHW4Fl_Boxtype@@@Z 004a0da0 f   fltk:fl_boxtype.obj
 0001:0009fdc0       ?box_dy@Fl@@SAHW4Fl_Boxtype@@@Z 004a0dc0 f   fltk:fl_boxtype.obj
 0001:0009fde0       ?box_dw@Fl@@SAHW4Fl_Boxtype@@@Z 004a0de0 f   fltk:fl_boxtype.obj
 0001:0009fe00       ?box_dh@Fl@@SAHW4Fl_Boxtype@@@Z 004a0e00 f   fltk:fl_boxtype.obj
 0001:0009fe20       ?fl_internal_boxtype@@YAXW4Fl_Boxtype@@P6AXHHHHW4Fl_Color@@@Z@Z 004a0e20 f   fltk:fl_boxtype.obj
 0001:0009fe60       ?get_boxtype@Fl@@SAP6AXHHHHW4Fl_Color@@@ZW4Fl_Boxtype@@@Z 004a0e60 f   fltk:fl_boxtype.obj
 0001:0009fe80       ?set_boxtype@Fl@@SAXW4Fl_Boxtype@@P6AXHHHHW4Fl_Color@@@ZEEEE@Z 004a0e80 f   fltk:fl_boxtype.obj
 0001:0009fee0       ?set_boxtype@Fl@@SAXW4Fl_Boxtype@@0@Z 004a0ee0 f   fltk:fl_boxtype.obj
 0001:0009ff10       ?fl_draw_box@@YAXW4Fl_Boxtype@@HHHHW4Fl_Color@@@Z 004a0f10 f   fltk:fl_boxtype.obj
 0001:0009ff50       ?draw_box@Fl_Widget@@IBEXXZ 004a0f50 f   fltk:fl_boxtype.obj
 0001:0009ffb0       ?draw_box@Fl_Widget@@IBEXW4Fl_Boxtype@@W4Fl_Color@@@Z 004a0fb0 f   fltk:fl_boxtype.obj
 0001:0009fff0       ?draw_box@Fl_Widget@@IBEXW4Fl_Boxtype@@HHHHW4Fl_Color@@@Z 004a0ff0 f   fltk:fl_boxtype.obj
 0001:000a0040       _fl_strlcat                004a1040 f   fltk:flstring.obj
 0001:000a00c0       _fl_strlcpy                004a10c0 f   fltk:flstring.obj
 0001:000a0110       ?size@Fl_Menu_Item@@QBEHXZ 004a1110 f   fltk:Fl_Menu.obj
 0001:000a0180       ?next@Fl_Menu_Item@@QBEPBU1@H@Z 004a1180 f   fltk:Fl_Menu.obj
 0001:000a0230       ?measure@Fl_Menu_Item@@QBEHPAHPBVFl_Menu_@@@Z 004a1230 f   fltk:Fl_Menu.obj
 0001:000a0350       ?draw@Fl_Menu_Item@@QBEXHHHHPBVFl_Menu_@@H@Z 004a1350 f   fltk:Fl_Menu.obj
 0001:000a0b90       ??0menutitle@@QAE@HHHHPBUFl_Menu_Item@@@Z 004a1b90 f   fltk:Fl_Menu.obj
 0001:000a0c80       ??0menuwindow@@QAE@PBUFl_Menu_Item@@HHHH00HHH@Z 004a1c80 f   fltk:Fl_Menu.obj
 0001:000a1450       ??1menuwindow@@UAE@XZ      004a2450 f   fltk:Fl_Menu.obj
 0001:000a14e0       ?position@menuwindow@@QAEXHH@Z 004a24e0 f   fltk:Fl_Menu.obj
 0001:000a1580       ?autoscroll@menuwindow@@QAEXH@Z 004a2580 f   fltk:Fl_Menu.obj
 0001:000a1670       ?drawentry@menuwindow@@AAEXPBUFl_Menu_Item@@HH@Z 004a2670 f   fltk:Fl_Menu.obj
 0001:000a1990       ?draw@menutitle@@EAEXXZ    004a2990 f   fltk:Fl_Menu.obj
 0001:000a19d0       ?draw@menuwindow@@EAEXXZ   004a29d0 f   fltk:Fl_Menu.obj
 0001:000a1b50       ?set_selected@menuwindow@@QAEXH@Z 004a2b50 f   fltk:Fl_Menu.obj
 0001:000a1b90       ?find_selected@menuwindow@@QAEHHH@Z 004a2b90 f   fltk:Fl_Menu.obj
 0001:000a1d20       ?titlex@menuwindow@@QAEHH@Z 004a2d20 f   fltk:Fl_Menu.obj
 0001:000a1d90       ?is_inside@menuwindow@@QAEHHH@Z 004a2d90 f   fltk:Fl_Menu.obj
 0001:000a1e00       ?is_inside@menustate@@QAEHHH@Z 004a2e00 f   fltk:Fl_Menu.obj
 0001:000a1e60       ?handle@menuwindow@@UAEHH@Z 004a2e60 f   fltk:Fl_Menu.obj
 0001:000a2690       ?pulldown@Fl_Menu_Item@@QBEPBU1@HHHHPBU1@PBVFl_Menu_@@0H@Z 004a3690 f   fltk:Fl_Menu.obj
 0001:000a3120       ?popup@Fl_Menu_Item@@QBEPBU1@HHPBDPBU1@PBVFl_Menu_@@@Z 004a4120 f   fltk:Fl_Menu.obj
 0001:000a3170       ?find_shortcut@Fl_Menu_Item@@QBEPBU1@PAH@Z 004a4170 f   fltk:Fl_Menu.obj
 0001:000a3210       ?test_shortcut@Fl_Menu_Item@@QBEPBU1@XZ 004a4210 f   fltk:Fl_Menu.obj
 0001:000a32d0       ??_Gmenutitle@@UAEPAXI@Z   004a42d0 f i fltk:Fl_Menu.obj
 0001:000a32d0       ??_Emenutitle@@UAEPAXI@Z   004a42d0 f i fltk:Fl_Menu.obj
 0001:000a3300       ??_Gmenuwindow@@UAEPAXI@Z  004a4300 f i fltk:Fl_Menu.obj
 0001:000a3300       ??_Emenuwindow@@UAEPAXI@Z  004a4300 f i fltk:Fl_Menu.obj
 0001:000a3330       ?scrollbar_size@Fl@@SAHXZ  004a4330 f   fltk:Fl_Browser_.obj
 0001:000a3340       ?scrollbar_size@Fl@@SAXH@Z 004a4340 f   fltk:Fl_Browser_.obj
 0001:000a3350       ?bbox@Fl_Browser_@@IBEXAAH000@Z 004a4350 f   fltk:Fl_Browser_.obj
 0001:000a34b0       ?leftedge@Fl_Browser_@@IBEHXZ 004a44b0 f   fltk:Fl_Browser_.obj
 0001:000a34e0       ?resize@Fl_Browser_@@UAEXHHHH@Z 004a44e0 f   fltk:Fl_Browser_.obj
 0001:000a35c0       ?redraw_line@Fl_Browser_@@IAEXPAX@Z 004a45c0 f   fltk:Fl_Browser_.obj
 0001:000a3640       ?update_top@Fl_Browser_@@AAEXXZ 004a4640 f   fltk:Fl_Browser_.obj
 0001:000a3860       ?position@Fl_Browser_@@QAEXH@Z 004a4860 f   fltk:Fl_Browser_.obj
 0001:000a38b0       ?hposition@Fl_Browser_@@QAEXH@Z 004a48b0 f   fltk:Fl_Browser_.obj
 0001:000a3900       ?displayed@Fl_Browser_@@IBEHPAX@Z 004a4900 f   fltk:Fl_Browser_.obj
 0001:000a3990       ?display@Fl_Browser_@@QAEXPAX@Z 004a4990 f   fltk:Fl_Browser_.obj
 0001:000a3b90       ?draw@Fl_Browser_@@MAEXXZ  004a4b90 f   fltk:Fl_Browser_.obj
 0001:000a4880       ?new_list@Fl_Browser_@@IAEXXZ 004a5880 f   fltk:Fl_Browser_.obj
 0001:000a4900       ?deleting@Fl_Browser_@@IAEXPAX@Z 004a5900 f   fltk:Fl_Browser_.obj
 0001:000a49e0       ?replacing@Fl_Browser_@@IAEXPAX0@Z 004a59e0 f   fltk:Fl_Browser_.obj
 0001:000a4a50       ?swapping@Fl_Browser_@@IAEXPAX0@Z 004a5a50 f   fltk:Fl_Browser_.obj
 0001:000a4ad0       ?inserting@Fl_Browser_@@IAEXPAX0@Z 004a5ad0 f   fltk:Fl_Browser_.obj
 0001:000a4b10       ?find_item@Fl_Browser_@@IAEPAXH@Z 004a5b10 f   fltk:Fl_Browser_.obj
 0001:000a4bc0       ?select@Fl_Browser_@@QAEHPAXHH@Z 004a5bc0 f   fltk:Fl_Browser_.obj
 0001:000a4d70       ?deselect@Fl_Browser_@@QAEHH@Z 004a5d70 f   fltk:Fl_Browser_.obj
 0001:000a4e30       ?select_only@Fl_Browser_@@QAEHPAXH@Z 004a5e30 f   fltk:Fl_Browser_.obj
 0001:000a4ef0       ?handle@Fl_Browser_@@UAEHH@Z 004a5ef0 f   fltk:Fl_Browser_.obj
 0001:000a5b80       ??0Fl_Browser_@@IAE@HHHHPBD@Z 004a6b80 f   fltk:Fl_Browser_.obj
 0001:000a5d80       ?item_quick_height@Fl_Browser_@@MBEHPAX@Z 004a6d80 f   fltk:Fl_Browser_.obj
 0001:000a5da0       ?incr_height@Fl_Browser_@@MBEHXZ 004a6da0 f   fltk:Fl_Browser_.obj
 0001:000a5dd0       ?full_height@Fl_Browser_@@MBEHXZ 004a6dd0 f   fltk:Fl_Browser_.obj
 0001:000a5e30       ?full_width@Fl_Browser_@@MBEHXZ 004a6e30 f   fltk:Fl_Browser_.obj
 0001:000a5e50       ?item_select@Fl_Browser_@@MAEXPAXH@Z 004a6e50 f   fltk:Fl_Browser_.obj
 0001:000a5e60       ?item_selected@Fl_Browser_@@MBEHPAX@Z 004a6e60 f   fltk:Fl_Browser_.obj
 0001:000a5e80       ??_GFl_Browser_@@UAEPAXI@Z 004a6e80 f i fltk:Fl_Browser_.obj
 0001:000a5e80       ??_EFl_Browser_@@UAEPAXI@Z 004a6e80 f i fltk:Fl_Browser_.obj
 0001:000a5f10       ?increment_cb@Fl_Scrollbar@@AAEXXZ 004a6f10 f   fltk:Fl_Scrollbar.obj
 0001:000a6080       ?timeout_cb@Fl_Scrollbar@@CAXPAX@Z 004a7080 f   fltk:Fl_Scrollbar.obj
 0001:000a60c0       ?handle@Fl_Scrollbar@@UAEHH@Z 004a70c0 f   fltk:Fl_Scrollbar.obj
 0001:000a69f0       ?draw@Fl_Scrollbar@@MAEXXZ 004a79f0 f   fltk:Fl_Scrollbar.obj
 0001:000a7190       ??0Fl_Scrollbar@@QAE@HHHHPBD@Z 004a8190 f   fltk:Fl_Scrollbar.obj
 0001:000a7210       ??1Fl_Scrollbar@@UAE@XZ    004a8210 f   fltk:Fl_Scrollbar.obj
 0001:000a7290       ??_EFl_Scrollbar@@UAEPAXI@Z 004a8290 f i fltk:Fl_Scrollbar.obj
 0001:000a7290       ??_GFl_Scrollbar@@UAEPAXI@Z 004a8290 f i fltk:Fl_Scrollbar.obj
 0001:000a72c0       ??1Fl_Slider@@UAE@XZ       004a82c0 f i fltk:Fl_Scrollbar.obj
 0001:000a72e0       ??0Fl_Text_Buffer@@QAE@H@Z 004a82e0 f   fltk:Fl_Text_Buffer.obj
 0001:000a7400       ??1Fl_Text_Buffer@@QAE@XZ  004a8400 f   fltk:Fl_Text_Buffer.obj
 0001:000a7490       ?text@Fl_Text_Buffer@@QAEPADXZ 004a8490 f   fltk:Fl_Text_Buffer.obj
 0001:000a7510       ?text@Fl_Text_Buffer@@QAEXPBD@Z 004a8510 f   fltk:Fl_Text_Buffer.obj
 0001:000a7630       ?text_range@Fl_Text_Buffer@@QAEPADHH@Z 004a8630 f   fltk:Fl_Text_Buffer.obj
 0001:000a7770       ?character@Fl_Text_Buffer@@QAEDH@Z 004a8770 f   fltk:Fl_Text_Buffer.obj
 0001:000a77d0       ?insert@Fl_Text_Buffer@@QAEXHPBD@Z 004a87d0 f   fltk:Fl_Text_Buffer.obj
 0001:000a7850       ?replace@Fl_Text_Buffer@@QAEXHHPBD@Z 004a8850 f   fltk:Fl_Text_Buffer.obj
 0001:000a7910       ?remove@Fl_Text_Buffer@@QAEXHH@Z 004a8910 f   fltk:Fl_Text_Buffer.obj
 0001:000a79f0       ?copy@Fl_Text_Buffer@@QAEXPAV1@HHH@Z 004a89f0 f   fltk:Fl_Text_Buffer.obj
 0001:000a7b40       ?undo@Fl_Text_Buffer@@QAEHPAH@Z 004a8b40 f   fltk:Fl_Text_Buffer.obj
 0001:000a7d20       ?canUndo@Fl_Text_Buffer@@QAEXD@Z 004a8d20 f   fltk:Fl_Text_Buffer.obj
 0001:000a7d40       ?insert_column@Fl_Text_Buffer@@QAEXHHPBDPAH1@Z 004a8d40 f   fltk:Fl_Text_Buffer.obj
 0001:000a7e30       ?overlay_rectangular@Fl_Text_Buffer@@QAEXHHHPBDPAH1@Z 004a8e30 f   fltk:Fl_Text_Buffer.obj
 0001:000a7f30       ?replace_rectangular@Fl_Text_Buffer@@QAEXHHHHPBD@Z 004a8f30 f   fltk:Fl_Text_Buffer.obj
 0001:000a8110       ?remove_rectangular@Fl_Text_Buffer@@QAEXHHHH@Z 004a9110 f   fltk:Fl_Text_Buffer.obj
 0001:000a81b0       ?clear_rectangular@Fl_Text_Buffer@@QAEXHHHH@Z 004a91b0 f   fltk:Fl_Text_Buffer.obj
 0001:000a8240       ?text_in_rectangle@Fl_Text_Buffer@@QAEPADHHHH@Z 004a9240 f   fltk:Fl_Text_Buffer.obj
 0001:000a8380       ?tab_distance@Fl_Text_Buffer@@QAEXH@Z 004a9380 f   fltk:Fl_Text_Buffer.obj
 0001:000a83e0       ?select@Fl_Text_Buffer@@QAEXHH@Z 004a93e0 f   fltk:Fl_Text_Buffer.obj
 0001:000a8430       ?unselect@Fl_Text_Buffer@@QAEXXZ 004a9430 f   fltk:Fl_Text_Buffer.obj
 0001:000a8480       ?select_rectangular@Fl_Text_Buffer@@QAEXHHHH@Z 004a9480 f   fltk:Fl_Text_Buffer.obj
 0001:000a84e0       ?selection_position@Fl_Text_Buffer@@QAEHPAH0@Z 004a94e0 f   fltk:Fl_Text_Buffer.obj
 0001:000a8500       ?selection_position@Fl_Text_Buffer@@QAEHPAH0000@Z 004a9500 f   fltk:Fl_Text_Buffer.obj
 0001:000a8530       ?selection_text@Fl_Text_Buffer@@QAEPADXZ 004a9530 f   fltk:Fl_Text_Buffer.obj
 0001:000a8550       ?remove_selection@Fl_Text_Buffer@@QAEXXZ 004a9550 f   fltk:Fl_Text_Buffer.obj
 0001:000a8570       ?replace_selection@Fl_Text_Buffer@@QAEXPBD@Z 004a9570 f   fltk:Fl_Text_Buffer.obj
 0001:000a8590       ?secondary_select@Fl_Text_Buffer@@QAEXHH@Z 004a9590 f   fltk:Fl_Text_Buffer.obj
 0001:000a85f0       ?secondary_unselect@Fl_Text_Buffer@@QAEXXZ 004a95f0 f   fltk:Fl_Text_Buffer.obj
 0001:000a8640       ?secondary_select_rectangular@Fl_Text_Buffer@@QAEXHHHH@Z 004a9640 f   fltk:Fl_Text_Buffer.obj
 0001:000a86a0       ?secondary_selection_position@Fl_Text_Buffer@@QAEHPAH0@Z 004a96a0 f   fltk:Fl_Text_Buffer.obj
 0001:000a86c0       ?secondary_selection_position@Fl_Text_Buffer@@QAEHPAH0000@Z 004a96c0 f   fltk:Fl_Text_Buffer.obj
 0001:000a86f0       ?secondary_selection_text@Fl_Text_Buffer@@QAEPADXZ 004a96f0 f   fltk:Fl_Text_Buffer.obj
 0001:000a8710       ?remove_secondary_selection@Fl_Text_Buffer@@QAEXXZ 004a9710 f   fltk:Fl_Text_Buffer.obj
 0001:000a8730       ?replace_secondary_selection@Fl_Text_Buffer@@QAEXPBD@Z 004a9730 f   fltk:Fl_Text_Buffer.obj
 0001:000a8750       ?highlight@Fl_Text_Buffer@@QAEXHH@Z 004a9750 f   fltk:Fl_Text_Buffer.obj
 0001:000a87b0       ?unhighlight@Fl_Text_Buffer@@QAEXXZ 004a97b0 f   fltk:Fl_Text_Buffer.obj
 0001:000a8800       ?highlight_rectangular@Fl_Text_Buffer@@QAEXHHHH@Z 004a9800 f   fltk:Fl_Text_Buffer.obj
 0001:000a8860       ?highlight_position@Fl_Text_Buffer@@QAEHPAH0@Z 004a9860 f   fltk:Fl_Text_Buffer.obj
 0001:000a8880       ?highlight_position@Fl_Text_Buffer@@QAEHPAH0000@Z 004a9880 f   fltk:Fl_Text_Buffer.obj
 0001:000a88b0       ?highlight_text@Fl_Text_Buffer@@QAEPADXZ 004a98b0 f   fltk:Fl_Text_Buffer.obj
 0001:000a88d0       ?add_modify_callback@Fl_Text_Buffer@@QAEXP6AXHHHHPBDPAX@Z1@Z 004a98d0 f   fltk:Fl_Text_Buffer.obj
 0001:000a89f0       ?remove_modify_callback@Fl_Text_Buffer@@QAEXP6AXHHHHPBDPAX@Z1@Z 004a99f0 f   fltk:Fl_Text_Buffer.obj
 0001:000a8bf0       ?add_predelete_callback@Fl_Text_Buffer@@QAEXP6AXHHPAX@Z0@Z 004a9bf0 f   fltk:Fl_Text_Buffer.obj
 0001:000a8d10       ?remove_predelete_callback@Fl_Text_Buffer@@QAEXP6AXHHPAX@Z0@Z 004a9d10 f   fltk:Fl_Text_Buffer.obj
 0001:000a8f10       ?line_text@Fl_Text_Buffer@@QAEPADH@Z 004a9f10 f   fltk:Fl_Text_Buffer.obj
 0001:000a8f40       ?line_start@Fl_Text_Buffer@@QAEHH@Z 004a9f40 f   fltk:Fl_Text_Buffer.obj
 0001:000a8f70       ?line_end@Fl_Text_Buffer@@QAEHH@Z 004a9f70 f   fltk:Fl_Text_Buffer.obj
 0001:000a8fa0       ?word_start@Fl_Text_Buffer@@QAEHH@Z 004a9fa0 f   fltk:Fl_Text_Buffer.obj
 0001:000a9030       ?word_end@Fl_Text_Buffer@@QAEHH@Z 004aa030 f   fltk:Fl_Text_Buffer.obj
 0001:000a9090       ?expand_character@Fl_Text_Buffer@@QAEHHHPAD@Z 004aa090 f   fltk:Fl_Text_Buffer.obj
 0001:000a90d0       ?expand_character@Fl_Text_Buffer@@SAHDHPADHD@Z 004aa0d0 f   fltk:Fl_Text_Buffer.obj
 0001:000a91b0       ?character_width@Fl_Text_Buffer@@SAHDHHD@Z 004aa1b0 f   fltk:Fl_Text_Buffer.obj
 0001:000a9220       ?count_displayed_characters@Fl_Text_Buffer@@QAEHHH@Z 004aa220 f   fltk:Fl_Text_Buffer.obj
 0001:000a9290       ?skip_displayed_characters@Fl_Text_Buffer@@QAEHHH@Z 004aa290 f   fltk:Fl_Text_Buffer.obj
 0001:000a9310       ?count_lines@Fl_Text_Buffer@@QAEHHH@Z 004aa310 f   fltk:Fl_Text_Buffer.obj
 0001:000a93c0       ?skip_lines@Fl_Text_Buffer@@QAEHHH@Z 004aa3c0 f   fltk:Fl_Text_Buffer.obj
 0001:000a9480       ?rewind_lines@Fl_Text_Buffer@@QAEHHH@Z 004aa480 f   fltk:Fl_Text_Buffer.obj
 0001:000a9540       ?search_forward@Fl_Text_Buffer@@QAEHHPBDPAHH@Z 004aa540 f   fltk:Fl_Text_Buffer.obj
 0001:000a9680       ?search_backward@Fl_Text_Buffer@@QAEHHPBDPAHH@Z 004aa680 f   fltk:Fl_Text_Buffer.obj
 0001:000a97c0       ?findchars_forward@Fl_Text_Buffer@@QAEHHPBDPAH@Z 004aa7c0 f   fltk:Fl_Text_Buffer.obj
 0001:000a98b0       ?findchars_backward@Fl_Text_Buffer@@QAEHHPBDPAH@Z 004aa8b0 f   fltk:Fl_Text_Buffer.obj
 0001:000a99c0       ?substitute_null_characters@Fl_Text_Buffer@@QAEHPADH@Z 004aa9c0 f   fltk:Fl_Text_Buffer.obj
 0001:000a9b20       ?unsubstitute_null_characters@Fl_Text_Buffer@@QAEXPAD@Z 004aab20 f   fltk:Fl_Text_Buffer.obj
 0001:000a9c80       ?insert_@Fl_Text_Buffer@@IAEHHPBD@Z 004aac80 f   fltk:Fl_Text_Buffer.obj
 0001:000a9db0       ?remove_@Fl_Text_Buffer@@IAEXHH@Z 004aadb0 f   fltk:Fl_Text_Buffer.obj
 0001:000a9fd0       ?insert_column_@Fl_Text_Buffer@@IAEXHHPBDPAH11@Z 004aafd0 f   fltk:Fl_Text_Buffer.obj
 0001:000aa2a0       ?remove_rectangular_@Fl_Text_Buffer@@IAEXHHHHPAH0@Z 004ab2a0 f   fltk:Fl_Text_Buffer.obj
 0001:000aa470       ?overlay_rectangular_@Fl_Text_Buffer@@IAEXHHHPBDPAH11@Z 004ab470 f   fltk:Fl_Text_Buffer.obj
 0001:000aae00       ?set@Fl_Text_Selection@@QAEXHH@Z 004abe00 f   fltk:Fl_Text_Buffer.obj
 0001:000aae50       ?set_rectangular@Fl_Text_Selection@@QAEXHHHH@Z 004abe50 f   fltk:Fl_Text_Buffer.obj
 0001:000aaea0       ?position@Fl_Text_Selection@@QAEHPAH0@Z 004abea0 f   fltk:Fl_Text_Buffer.obj
 0001:000aaee0       ?position@Fl_Text_Selection@@QAEHPAH0000@Z 004abee0 f   fltk:Fl_Text_Buffer.obj
 0001:000aaf50       ?includes@Fl_Text_Selection@@QAEHHHH@Z 004abf50 f   fltk:Fl_Text_Buffer.obj
 0001:000ab010       ?selection_text_@Fl_Text_Buffer@@IAEPADPAVFl_Text_Selection@@@Z 004ac010 f   fltk:Fl_Text_Buffer.obj
 0001:000ab090       ?remove_selection_@Fl_Text_Buffer@@IAEXPAVFl_Text_Selection@@@Z 004ac090 f   fltk:Fl_Text_Buffer.obj
 0001:000ab100       ?replace_selection_@Fl_Text_Buffer@@IAEXPAVFl_Text_Selection@@PBD@Z 004ac100 f   fltk:Fl_Text_Buffer.obj
 0001:000ab260       ?call_modify_callbacks@Fl_Text_Buffer@@IAEXHHHHPBD@Z 004ac260 f   fltk:Fl_Text_Buffer.obj
 0001:000ab2c0       ?call_predelete_callbacks@Fl_Text_Buffer@@IAEXHH@Z 004ac2c0 f   fltk:Fl_Text_Buffer.obj
 0001:000ab320       ?redisplay_selection@Fl_Text_Buffer@@IAEXPAVFl_Text_Selection@@0@Z 004ac320 f   fltk:Fl_Text_Buffer.obj
 0001:000ab560       ?move_gap@Fl_Text_Buffer@@IAEXH@Z 004ac560 f   fltk:Fl_Text_Buffer.obj
 0001:000ab610       ?reallocate_with_gap@Fl_Text_Buffer@@IAEXHH@Z 004ac610 f   fltk:Fl_Text_Buffer.obj
 0001:000ab760       ?update_selections@Fl_Text_Buffer@@IAEXHHH@Z 004ac760 f   fltk:Fl_Text_Buffer.obj
 0001:000ab7b0       ?update@Fl_Text_Selection@@QAEXHHH@Z 004ac7b0 f   fltk:Fl_Text_Buffer.obj
 0001:000ab8b0       ?findchar_forward@Fl_Text_Buffer@@QAEHHDPAH@Z 004ac8b0 f   fltk:Fl_Text_Buffer.obj
 0001:000ab980       ?findchar_backward@Fl_Text_Buffer@@QAEHHDPAH@Z 004ac980 f   fltk:Fl_Text_Buffer.obj
 0001:000abbb0       ?rectangular_selection_boundaries@Fl_Text_Buffer@@IAEXHHHPAH0@Z 004acbb0 f   fltk:Fl_Text_Buffer.obj
 0001:000ac140       ?insertfile@Fl_Text_Buffer@@QAEHPBDHH@Z 004ad140 f   fltk:Fl_Text_Buffer.obj
 0001:000ac210       ?outputfile@Fl_Text_Buffer@@QAEHPBDHHH@Z 004ad210 f   fltk:Fl_Text_Buffer.obj
 0001:000ac2e0       ?_Fl_Slider@Fl_Slider@@AAEXXZ 004ad2e0 f   fltk:Fl_Slider.obj
 0001:000ac300       ??0Fl_Slider@@QAE@HHHHPBD@Z 004ad300 f   fltk:Fl_Slider.obj
 0001:000ac380       ??0Fl_Slider@@QAE@EHHHHPBD@Z 004ad380 f   fltk:Fl_Slider.obj
 0001:000ac430       ?slider_size@Fl_Slider@@QAEXN@Z 004ad430 f   fltk:Fl_Slider.obj
 0001:000ac490       ?bounds@Fl_Slider@@QAEXNN@Z 004ad490 f   fltk:Fl_Slider.obj
